ARM GAS  /tmp/cc3uVotH.s 			page 1


   1              		.cpu cortex-m0
   2              		.fpu softvfp
   3              		.eabi_attribute 20, 1	@ Tag_ABI_FP_denormal
   4              		.eabi_attribute 21, 1	@ Tag_ABI_FP_exceptions
   5              		.eabi_attribute 23, 3	@ Tag_ABI_FP_number_model
   6              		.eabi_attribute 24, 1	@ Tag_ABI_align8_needed
   7              		.eabi_attribute 25, 1	@ Tag_ABI_align8_preserved
   8              		.eabi_attribute 26, 1	@ Tag_ABI_enum_size
   9              		.eabi_attribute 30, 2	@ Tag_ABI_optimization_goals
  10              		.eabi_attribute 34, 0	@ Tag_CPU_unaligned_access
  11              		.eabi_attribute 18, 4	@ Tag_ABI_PCS_wchar_t
  12              		.file	"blink.c"
  13              	@ GNU C (15:4.9.3+svn231177-1) version 4.9.3 20150529 (prerelease) (arm-none-eabi)
  14              	@	compiled by GNU C version 5.2.1 20151129, GMP version 6.1.0, MPFR version 3.1.3, MPC version 1.0.
  15              	@ warning: MPFR header version 3.1.3 differs from library version 3.1.4.
  16              	@ GGC heuristics: --param ggc-min-expand=100 --param ggc-min-heapsize=131072
  17              	@ options passed:  -I . -I ../../lpc_chip_11cxx_lib/inc -imultilib armv6-m
  18              	@ -MD bin/blink.d -MF bin/blink.d -MP -MQ bin/blink.o -D__USES_INITFINI__
  19              	@ -D CORE_M0 src/blink.c -mcpu=cortex-m0 -mthumb -auxbase-strip bin/blink.o
  20              	@ -g -ggdb3 -O2 -Wall -Wstrict-prototypes -Wextra -std=gnu90
  21              	@ -ffunction-sections -fdata-sections -fverbose-asm
  22              	@ options enabled:  -faggressive-loop-optimizations -fauto-inc-dec
  23              	@ -fbranch-count-reg -fcaller-saves -fcombine-stack-adjustments -fcommon
  24              	@ -fcompare-elim -fcprop-registers -fcrossjumping -fcse-follow-jumps
  25              	@ -fdata-sections -fdefer-pop -fdelete-null-pointer-checks -fdevirtualize
  26              	@ -fdevirtualize-speculatively -fdwarf2-cfi-asm -fearly-inlining
  27              	@ -feliminate-unused-debug-types -fexpensive-optimizations
  28              	@ -fforward-propagate -ffunction-cse -ffunction-sections -fgcse -fgcse-lm
  29              	@ -fgnu-runtime -fgnu-unique -fguess-branch-probability
  30              	@ -fhoist-adjacent-loads -fident -fif-conversion -fif-conversion2
  31              	@ -findirect-inlining -finline -finline-atomics
  32              	@ -finline-functions-called-once -finline-small-functions -fipa-cp
  33              	@ -fipa-profile -fipa-pure-const -fipa-reference -fipa-sra
  34              	@ -fira-hoist-pressure -fira-share-save-slots -fira-share-spill-slots
  35              	@ -fisolate-erroneous-paths-dereference -fivopts -fkeep-static-consts
  36              	@ -fleading-underscore -flifetime-dse -fmath-errno -fmerge-constants
  37              	@ -fmerge-debug-strings -fmove-loop-invariants -fomit-frame-pointer
  38              	@ -foptimize-sibling-calls -foptimize-strlen -fpartial-inlining -fpeephole
  39              	@ -fpeephole2 -fprefetch-loop-arrays -freg-struct-return -freorder-blocks
  40              	@ -freorder-functions -frerun-cse-after-loop
  41              	@ -fsched-critical-path-heuristic -fsched-dep-count-heuristic
  42              	@ -fsched-group-heuristic -fsched-interblock -fsched-last-insn-heuristic
  43              	@ -fsched-pressure -fsched-rank-heuristic -fsched-spec
  44              	@ -fsched-spec-insn-heuristic -fsched-stalled-insns-dep -fschedule-insns2
  45              	@ -fsection-anchors -fshow-column -fshrink-wrap -fsigned-zeros
  46              	@ -fsplit-ivs-in-unroller -fsplit-wide-types -fstrict-aliasing
  47              	@ -fstrict-overflow -fstrict-volatile-bitfields -fsync-libcalls
  48              	@ -fthread-jumps -ftoplevel-reorder -ftrapping-math -ftree-bit-ccp
  49              	@ -ftree-builtin-call-dce -ftree-ccp -ftree-ch -ftree-coalesce-vars
  50              	@ -ftree-copy-prop -ftree-copyrename -ftree-cselim -ftree-dce
  51              	@ -ftree-dominator-opts -ftree-dse -ftree-forwprop -ftree-fre
  52              	@ -ftree-loop-if-convert -ftree-loop-im -ftree-loop-ivcanon
  53              	@ -ftree-loop-optimize -ftree-parallelize-loops= -ftree-phiprop -ftree-pre
  54              	@ -ftree-pta -ftree-reassoc -ftree-scev-cprop -ftree-sink -ftree-slsr
  55              	@ -ftree-sra -ftree-switch-conversion -ftree-tail-merge -ftree-ter
  56              	@ -ftree-vrp -funit-at-a-time -fvar-tracking -fvar-tracking-assignments
  57              	@ -fverbose-asm -fzero-initialized-in-bss -mlittle-endian -mlra
ARM GAS  /tmp/cc3uVotH.s 			page 2


  58              	@ -mpic-data-is-text-relative -msched-prolog -mthumb
  59              	@ -mvectorize-with-neon-quad
  60              	
  61              		.text
  62              	.Ltext0:
  63              		.cfi_sections	.debug_frame
  64              		.section	.text.SysTick_Handler,"ax",%progbits
  65              		.align	2
  66              		.global	SysTick_Handler
  67              		.code	16
  68              		.thumb_func
  69              		.type	SysTick_Handler, %function
  70              	SysTick_Handler:
  71              	.LFB198:
  72              		.file 1 "src/blink.c"
   1:src/blink.c   **** 
   2:src/blink.c   **** #include "chip.h"
   3:src/blink.c   **** 
   4:src/blink.c   **** const uint32_t OscRateIn = 12000000;
   5:src/blink.c   **** 
   6:src/blink.c   **** #define LED0 2, 8
   7:src/blink.c   **** #define LED1 0, 6
   8:src/blink.c   **** #define LED2 0, 7
   9:src/blink.c   **** #define LED3 2, 9
  10:src/blink.c   **** 
  11:src/blink.c   **** volatile uint32_t msTicks;
  12:src/blink.c   **** 
  13:src/blink.c   **** void SysTick_Handler(void) {
  73              		.loc 1 13 0
  74              		.cfi_startproc
  14:src/blink.c   **** 	msTicks++;
  75              		.loc 1 14 0
  76 0000 024A     		ldr	r2, .L2	@ tmp112,
  15:src/blink.c   **** }
  77              		.loc 1 15 0
  78              		@ sp needed	@
  14:src/blink.c   **** 	msTicks++;
  79              		.loc 1 14 0
  80 0002 1368     		ldr	r3, [r2]	@ D.6246, msTicks
  81 0004 0133     		add	r3, r3, #1	@ D.6246,
  82 0006 1360     		str	r3, [r2]	@ D.6246, msTicks
  83              		.loc 1 15 0
  84 0008 7047     		bx	lr
  85              	.L3:
  86 000a C046     		.align	2
  87              	.L2:
  88 000c 00000000 		.word	msTicks
  89              		.cfi_endproc
  90              	.LFE198:
  91              		.size	SysTick_Handler, .-SysTick_Handler
  92              		.global	__aeabi_uidiv
  93              		.section	.text.startup.main,"ax",%progbits
  94              		.align	2
  95              		.global	main
  96              		.code	16
  97              		.thumb_func
  98              		.type	main, %function
ARM GAS  /tmp/cc3uVotH.s 			page 3


  99              	main:
 100              	.LFB203:
  16:src/blink.c   **** 
  17:src/blink.c   **** static void Delay(uint32_t dlyTicks) {
  18:src/blink.c   **** 	uint32_t curTicks = msTicks;
  19:src/blink.c   **** 	while ((msTicks - curTicks) < dlyTicks);
  20:src/blink.c   **** }
  21:src/blink.c   **** 
  22:src/blink.c   **** static void GPIO_Config(void) {
  23:src/blink.c   **** 	Chip_GPIO_Init(LPC_GPIO);
  24:src/blink.c   **** 
  25:src/blink.c   **** }
  26:src/blink.c   **** 
  27:src/blink.c   **** static void LED_Init(uint8_t port, uint8_t pin) {
  28:src/blink.c   **** 	Chip_GPIO_WriteDirBit(LPC_GPIO, port, pin, true);
  29:src/blink.c   **** 	Chip_GPIO_SetPinState(LPC_GPIO, port, pin, false);
  30:src/blink.c   **** 
  31:src/blink.c   **** }
  32:src/blink.c   **** 
  33:src/blink.c   **** static void LED_Write(uint8_t port, uint8_t pin, uint8_t val) {
  34:src/blink.c   **** 	Chip_GPIO_SetPinState(LPC_GPIO, port, pin, val);
  35:src/blink.c   **** }
  36:src/blink.c   **** 
  37:src/blink.c   **** int main (void) {
 101              		.loc 1 37 0
 102              		.cfi_startproc
 103 0000 F8B5     		push	{r3, r4, r5, r6, r7, lr}	@
 104              		.cfi_def_cfa_offset 24
 105              		.cfi_offset 3, -24
 106              		.cfi_offset 4, -20
 107              		.cfi_offset 5, -16
 108              		.cfi_offset 6, -12
 109              		.cfi_offset 7, -8
 110              		.cfi_offset 14, -4
 111 0002 5F46     		mov	r7, fp	@,
 112 0004 5646     		mov	r6, r10	@,
 113 0006 4D46     		mov	r5, r9	@,
 114 0008 4446     		mov	r4, r8	@,
 115 000a F0B4     		push	{r4, r5, r6, r7}	@
 116              		.cfi_def_cfa_offset 40
 117              		.cfi_offset 8, -40
 118              		.cfi_offset 9, -36
 119              		.cfi_offset 10, -32
 120              		.cfi_offset 11, -28
  38:src/blink.c   **** 
  39:src/blink.c   **** 	SystemCoreClockUpdate();
 121              		.loc 1 39 0
 122 000c FFF7FEFF 		bl	SystemCoreClockUpdate	@
 123              	.LVL0:
  40:src/blink.c   **** 
  41:src/blink.c   **** 
  42:src/blink.c   **** 	if (SysTick_Config (SystemCoreClock / 1000)) {
 124              		.loc 1 42 0
 125 0010 FA21     		mov	r1, #250	@,
 126 0012 3B4B     		ldr	r3, .L18	@ tmp131,
 127              	.LVL1:
 128 0014 8900     		lsl	r1, r1, #2	@,,
ARM GAS  /tmp/cc3uVotH.s 			page 4


 129 0016 1868     		ldr	r0, [r3]	@ SystemCoreClock, SystemCoreClock
 130 0018 FFF7FEFF 		bl	__aeabi_uidiv	@
 131              	.LVL2:
 132              	.LBB102:
 133              	.LBB103:
 134              		.file 2 "../../lpc_chip_11cxx_lib/inc/core_cm0.h"
   1:../../lpc_chip_11cxx_lib/inc/core_cm0.h **** /**************************************************************************//**
   2:../../lpc_chip_11cxx_lib/inc/core_cm0.h ****  * @file     core_cm0.h
   3:../../lpc_chip_11cxx_lib/inc/core_cm0.h ****  * @brief    CMSIS Cortex-M0 Core Peripheral Access Layer Header File
   4:../../lpc_chip_11cxx_lib/inc/core_cm0.h ****  * @version  V3.01
   5:../../lpc_chip_11cxx_lib/inc/core_cm0.h ****  * @date     13. March 2012
   6:../../lpc_chip_11cxx_lib/inc/core_cm0.h ****  *
   7:../../lpc_chip_11cxx_lib/inc/core_cm0.h ****  * @note
   8:../../lpc_chip_11cxx_lib/inc/core_cm0.h ****  * Copyright (C) 2009-2012 ARM Limited. All rights reserved.
   9:../../lpc_chip_11cxx_lib/inc/core_cm0.h ****  *
  10:../../lpc_chip_11cxx_lib/inc/core_cm0.h ****  * @par
  11:../../lpc_chip_11cxx_lib/inc/core_cm0.h ****  * ARM Limited (ARM) is supplying this software for use with Cortex-M
  12:../../lpc_chip_11cxx_lib/inc/core_cm0.h ****  * processor based microcontrollers.  This file can be freely distributed
  13:../../lpc_chip_11cxx_lib/inc/core_cm0.h ****  * within development tools that are supporting such ARM based processors.
  14:../../lpc_chip_11cxx_lib/inc/core_cm0.h ****  *
  15:../../lpc_chip_11cxx_lib/inc/core_cm0.h ****  * @par
  16:../../lpc_chip_11cxx_lib/inc/core_cm0.h ****  * THIS SOFTWARE IS PROVIDED "AS IS".  NO WARRANTIES, WHETHER EXPRESS, IMPLIED
  17:../../lpc_chip_11cxx_lib/inc/core_cm0.h ****  * OR STATUTORY, INCLUDING, BUT NOT LIMITED TO, IMPLIED WARRANTIES OF
  18:../../lpc_chip_11cxx_lib/inc/core_cm0.h ****  * MERCHANTABILITY AND FITNESS FOR A PARTICULAR PURPOSE APPLY TO THIS SOFTWARE.
  19:../../lpc_chip_11cxx_lib/inc/core_cm0.h ****  * ARM SHALL NOT, IN ANY CIRCUMSTANCES, BE LIABLE FOR SPECIAL, INCIDENTAL, OR
  20:../../lpc_chip_11cxx_lib/inc/core_cm0.h ****  * CONSEQUENTIAL DAMAGES, FOR ANY REASON WHATSOEVER.
  21:../../lpc_chip_11cxx_lib/inc/core_cm0.h ****  *
  22:../../lpc_chip_11cxx_lib/inc/core_cm0.h ****  ******************************************************************************/
  23:../../lpc_chip_11cxx_lib/inc/core_cm0.h **** #if defined ( __ICCARM__ )
  24:../../lpc_chip_11cxx_lib/inc/core_cm0.h ****  #pragma system_include  /* treat file as system include file for MISRA check */
  25:../../lpc_chip_11cxx_lib/inc/core_cm0.h **** #endif
  26:../../lpc_chip_11cxx_lib/inc/core_cm0.h **** 
  27:../../lpc_chip_11cxx_lib/inc/core_cm0.h **** #ifdef __cplusplus
  28:../../lpc_chip_11cxx_lib/inc/core_cm0.h ****  extern "C" {
  29:../../lpc_chip_11cxx_lib/inc/core_cm0.h **** #endif
  30:../../lpc_chip_11cxx_lib/inc/core_cm0.h **** 
  31:../../lpc_chip_11cxx_lib/inc/core_cm0.h **** #ifndef __CORE_CM0_H_GENERIC
  32:../../lpc_chip_11cxx_lib/inc/core_cm0.h **** #define __CORE_CM0_H_GENERIC
  33:../../lpc_chip_11cxx_lib/inc/core_cm0.h **** 
  34:../../lpc_chip_11cxx_lib/inc/core_cm0.h **** /** \page CMSIS_MISRA_Exceptions  MISRA-C:2004 Compliance Exceptions
  35:../../lpc_chip_11cxx_lib/inc/core_cm0.h ****   CMSIS violates the following MISRA-C:2004 rules:
  36:../../lpc_chip_11cxx_lib/inc/core_cm0.h **** 
  37:../../lpc_chip_11cxx_lib/inc/core_cm0.h ****    \li Required Rule 8.5, object/function definition in header file.<br>
  38:../../lpc_chip_11cxx_lib/inc/core_cm0.h ****      Function definitions in header files are used to allow 'inlining'.
  39:../../lpc_chip_11cxx_lib/inc/core_cm0.h **** 
  40:../../lpc_chip_11cxx_lib/inc/core_cm0.h ****    \li Required Rule 18.4, declaration of union type or object of union type: '{...}'.<br>
  41:../../lpc_chip_11cxx_lib/inc/core_cm0.h ****      Unions are used for effective representation of core registers.
  42:../../lpc_chip_11cxx_lib/inc/core_cm0.h **** 
  43:../../lpc_chip_11cxx_lib/inc/core_cm0.h ****    \li Advisory Rule 19.7, Function-like macro defined.<br>
  44:../../lpc_chip_11cxx_lib/inc/core_cm0.h ****      Function-like macros are used to allow more efficient code.
  45:../../lpc_chip_11cxx_lib/inc/core_cm0.h ****  */
  46:../../lpc_chip_11cxx_lib/inc/core_cm0.h **** 
  47:../../lpc_chip_11cxx_lib/inc/core_cm0.h **** 
  48:../../lpc_chip_11cxx_lib/inc/core_cm0.h **** /*******************************************************************************
  49:../../lpc_chip_11cxx_lib/inc/core_cm0.h ****  *                 CMSIS definitions
  50:../../lpc_chip_11cxx_lib/inc/core_cm0.h ****  ******************************************************************************/
  51:../../lpc_chip_11cxx_lib/inc/core_cm0.h **** /** \ingroup Cortex_M0
ARM GAS  /tmp/cc3uVotH.s 			page 5


  52:../../lpc_chip_11cxx_lib/inc/core_cm0.h ****   @{
  53:../../lpc_chip_11cxx_lib/inc/core_cm0.h ****  */
  54:../../lpc_chip_11cxx_lib/inc/core_cm0.h **** 
  55:../../lpc_chip_11cxx_lib/inc/core_cm0.h **** /*  CMSIS CM0 definitions */
  56:../../lpc_chip_11cxx_lib/inc/core_cm0.h **** #define __CM0_CMSIS_VERSION_MAIN  (0x03)                                   /*!< [31:16] CMSIS HAL m
  57:../../lpc_chip_11cxx_lib/inc/core_cm0.h **** #define __CM0_CMSIS_VERSION_SUB   (0x01)                                   /*!< [15:0]  CMSIS HAL s
  58:../../lpc_chip_11cxx_lib/inc/core_cm0.h **** #define __CM0_CMSIS_VERSION       ((__CM0_CMSIS_VERSION_MAIN << 16) | \
  59:../../lpc_chip_11cxx_lib/inc/core_cm0.h ****                                     __CM0_CMSIS_VERSION_SUB          )     /*!< CMSIS HAL version n
  60:../../lpc_chip_11cxx_lib/inc/core_cm0.h **** 
  61:../../lpc_chip_11cxx_lib/inc/core_cm0.h **** #define __CORTEX_M                (0x00)                                   /*!< Cortex-M Core      
  62:../../lpc_chip_11cxx_lib/inc/core_cm0.h **** 
  63:../../lpc_chip_11cxx_lib/inc/core_cm0.h **** 
  64:../../lpc_chip_11cxx_lib/inc/core_cm0.h **** #if   defined ( __CC_ARM )
  65:../../lpc_chip_11cxx_lib/inc/core_cm0.h ****   #define __ASM            __asm                                      /*!< asm keyword for ARM Comp
  66:../../lpc_chip_11cxx_lib/inc/core_cm0.h ****   #define __INLINE         __inline                                   /*!< inline keyword for ARM C
  67:../../lpc_chip_11cxx_lib/inc/core_cm0.h ****   #define __STATIC_INLINE  static __inline
  68:../../lpc_chip_11cxx_lib/inc/core_cm0.h **** 
  69:../../lpc_chip_11cxx_lib/inc/core_cm0.h **** #elif defined ( __ICCARM__ )
  70:../../lpc_chip_11cxx_lib/inc/core_cm0.h ****   #define __ASM            __asm                                      /*!< asm keyword for IAR Comp
  71:../../lpc_chip_11cxx_lib/inc/core_cm0.h ****   #define __INLINE         inline                                     /*!< inline keyword for IAR C
  72:../../lpc_chip_11cxx_lib/inc/core_cm0.h ****   #define __STATIC_INLINE  static inline
  73:../../lpc_chip_11cxx_lib/inc/core_cm0.h **** 
  74:../../lpc_chip_11cxx_lib/inc/core_cm0.h **** #elif defined ( __GNUC__ )
  75:../../lpc_chip_11cxx_lib/inc/core_cm0.h ****   #define __ASM            __asm                                      /*!< asm keyword for GNU Comp
  76:../../lpc_chip_11cxx_lib/inc/core_cm0.h ****   #define __INLINE         inline                                     /*!< inline keyword for GNU C
  77:../../lpc_chip_11cxx_lib/inc/core_cm0.h ****   #define __STATIC_INLINE  static inline
  78:../../lpc_chip_11cxx_lib/inc/core_cm0.h **** 
  79:../../lpc_chip_11cxx_lib/inc/core_cm0.h **** #elif defined ( __TASKING__ )
  80:../../lpc_chip_11cxx_lib/inc/core_cm0.h ****   #define __ASM            __asm                                      /*!< asm keyword for TASKING 
  81:../../lpc_chip_11cxx_lib/inc/core_cm0.h ****   #define __INLINE         inline                                     /*!< inline keyword for TASKI
  82:../../lpc_chip_11cxx_lib/inc/core_cm0.h ****   #define __STATIC_INLINE  static inline
  83:../../lpc_chip_11cxx_lib/inc/core_cm0.h **** 
  84:../../lpc_chip_11cxx_lib/inc/core_cm0.h **** #endif
  85:../../lpc_chip_11cxx_lib/inc/core_cm0.h **** 
  86:../../lpc_chip_11cxx_lib/inc/core_cm0.h **** /** __FPU_USED indicates whether an FPU is used or not. This core does not support an FPU at all
  87:../../lpc_chip_11cxx_lib/inc/core_cm0.h **** */
  88:../../lpc_chip_11cxx_lib/inc/core_cm0.h **** #define __FPU_USED       0
  89:../../lpc_chip_11cxx_lib/inc/core_cm0.h **** 
  90:../../lpc_chip_11cxx_lib/inc/core_cm0.h **** #if defined ( __CC_ARM )
  91:../../lpc_chip_11cxx_lib/inc/core_cm0.h ****   #if defined __TARGET_FPU_VFP
  92:../../lpc_chip_11cxx_lib/inc/core_cm0.h ****     #warning "Compiler generates FPU instructions for a device without an FPU (check __FPU_PRESENT)
  93:../../lpc_chip_11cxx_lib/inc/core_cm0.h ****   #endif
  94:../../lpc_chip_11cxx_lib/inc/core_cm0.h **** 
  95:../../lpc_chip_11cxx_lib/inc/core_cm0.h **** #elif defined ( __ICCARM__ )
  96:../../lpc_chip_11cxx_lib/inc/core_cm0.h ****   #if defined __ARMVFP__
  97:../../lpc_chip_11cxx_lib/inc/core_cm0.h ****     #warning "Compiler generates FPU instructions for a device without an FPU (check __FPU_PRESENT)
  98:../../lpc_chip_11cxx_lib/inc/core_cm0.h ****   #endif
  99:../../lpc_chip_11cxx_lib/inc/core_cm0.h **** 
 100:../../lpc_chip_11cxx_lib/inc/core_cm0.h **** #elif defined ( __GNUC__ )
 101:../../lpc_chip_11cxx_lib/inc/core_cm0.h ****   #if defined (__VFP_FP__) && !defined(__SOFTFP__)
 102:../../lpc_chip_11cxx_lib/inc/core_cm0.h ****     #warning "Compiler generates FPU instructions for a device without an FPU (check __FPU_PRESENT)
 103:../../lpc_chip_11cxx_lib/inc/core_cm0.h ****   #endif
 104:../../lpc_chip_11cxx_lib/inc/core_cm0.h **** 
 105:../../lpc_chip_11cxx_lib/inc/core_cm0.h **** #elif defined ( __TASKING__ )
 106:../../lpc_chip_11cxx_lib/inc/core_cm0.h ****   #if defined __FPU_VFP__
 107:../../lpc_chip_11cxx_lib/inc/core_cm0.h ****     #error "Compiler generates FPU instructions for a device without an FPU (check __FPU_PRESENT)"
 108:../../lpc_chip_11cxx_lib/inc/core_cm0.h ****   #endif
ARM GAS  /tmp/cc3uVotH.s 			page 6


 109:../../lpc_chip_11cxx_lib/inc/core_cm0.h **** #endif
 110:../../lpc_chip_11cxx_lib/inc/core_cm0.h **** 
 111:../../lpc_chip_11cxx_lib/inc/core_cm0.h **** #include <stdint.h>                      /* standard types definitions                      */
 112:../../lpc_chip_11cxx_lib/inc/core_cm0.h **** #include <core_cmInstr.h>                /* Core Instruction Access                         */
 113:../../lpc_chip_11cxx_lib/inc/core_cm0.h **** #include <core_cmFunc.h>                 /* Core Function Access                            */
 114:../../lpc_chip_11cxx_lib/inc/core_cm0.h **** 
 115:../../lpc_chip_11cxx_lib/inc/core_cm0.h **** #endif /* __CORE_CM0_H_GENERIC */
 116:../../lpc_chip_11cxx_lib/inc/core_cm0.h **** 
 117:../../lpc_chip_11cxx_lib/inc/core_cm0.h **** #ifndef __CMSIS_GENERIC
 118:../../lpc_chip_11cxx_lib/inc/core_cm0.h **** 
 119:../../lpc_chip_11cxx_lib/inc/core_cm0.h **** #ifndef __CORE_CM0_H_DEPENDANT
 120:../../lpc_chip_11cxx_lib/inc/core_cm0.h **** #define __CORE_CM0_H_DEPENDANT
 121:../../lpc_chip_11cxx_lib/inc/core_cm0.h **** 
 122:../../lpc_chip_11cxx_lib/inc/core_cm0.h **** /* check device defines and use defaults */
 123:../../lpc_chip_11cxx_lib/inc/core_cm0.h **** #if defined __CHECK_DEVICE_DEFINES
 124:../../lpc_chip_11cxx_lib/inc/core_cm0.h ****   #ifndef __CM0_REV
 125:../../lpc_chip_11cxx_lib/inc/core_cm0.h ****     #define __CM0_REV               0x0000
 126:../../lpc_chip_11cxx_lib/inc/core_cm0.h ****     #warning "__CM0_REV not defined in device header file; using default!"
 127:../../lpc_chip_11cxx_lib/inc/core_cm0.h ****   #endif
 128:../../lpc_chip_11cxx_lib/inc/core_cm0.h **** 
 129:../../lpc_chip_11cxx_lib/inc/core_cm0.h ****   #ifndef __NVIC_PRIO_BITS
 130:../../lpc_chip_11cxx_lib/inc/core_cm0.h ****     #define __NVIC_PRIO_BITS          2
 131:../../lpc_chip_11cxx_lib/inc/core_cm0.h ****     #warning "__NVIC_PRIO_BITS not defined in device header file; using default!"
 132:../../lpc_chip_11cxx_lib/inc/core_cm0.h ****   #endif
 133:../../lpc_chip_11cxx_lib/inc/core_cm0.h **** 
 134:../../lpc_chip_11cxx_lib/inc/core_cm0.h ****   #ifndef __Vendor_SysTickConfig
 135:../../lpc_chip_11cxx_lib/inc/core_cm0.h ****     #define __Vendor_SysTickConfig    0
 136:../../lpc_chip_11cxx_lib/inc/core_cm0.h ****     #warning "__Vendor_SysTickConfig not defined in device header file; using default!"
 137:../../lpc_chip_11cxx_lib/inc/core_cm0.h ****   #endif
 138:../../lpc_chip_11cxx_lib/inc/core_cm0.h **** #endif
 139:../../lpc_chip_11cxx_lib/inc/core_cm0.h **** 
 140:../../lpc_chip_11cxx_lib/inc/core_cm0.h **** /* IO definitions (access restrictions to peripheral registers) */
 141:../../lpc_chip_11cxx_lib/inc/core_cm0.h **** /**
 142:../../lpc_chip_11cxx_lib/inc/core_cm0.h ****     \defgroup CMSIS_glob_defs CMSIS Global Defines
 143:../../lpc_chip_11cxx_lib/inc/core_cm0.h **** 
 144:../../lpc_chip_11cxx_lib/inc/core_cm0.h ****     <strong>IO Type Qualifiers</strong> are used
 145:../../lpc_chip_11cxx_lib/inc/core_cm0.h ****     \li to specify the access to peripheral variables.
 146:../../lpc_chip_11cxx_lib/inc/core_cm0.h ****     \li for automatic generation of peripheral register debug information.
 147:../../lpc_chip_11cxx_lib/inc/core_cm0.h **** */
 148:../../lpc_chip_11cxx_lib/inc/core_cm0.h **** #ifdef __cplusplus
 149:../../lpc_chip_11cxx_lib/inc/core_cm0.h ****   #define   __I     volatile             /*!< Defines 'read only' permissions                 */
 150:../../lpc_chip_11cxx_lib/inc/core_cm0.h **** #else
 151:../../lpc_chip_11cxx_lib/inc/core_cm0.h ****   #define   __I     volatile const       /*!< Defines 'read only' permissions                 */
 152:../../lpc_chip_11cxx_lib/inc/core_cm0.h **** #endif
 153:../../lpc_chip_11cxx_lib/inc/core_cm0.h **** #define     __O     volatile             /*!< Defines 'write only' permissions                */
 154:../../lpc_chip_11cxx_lib/inc/core_cm0.h **** #define     __IO    volatile             /*!< Defines 'read / write' permissions              */
 155:../../lpc_chip_11cxx_lib/inc/core_cm0.h **** 
 156:../../lpc_chip_11cxx_lib/inc/core_cm0.h **** /*@} end of group Cortex_M0 */
 157:../../lpc_chip_11cxx_lib/inc/core_cm0.h **** 
 158:../../lpc_chip_11cxx_lib/inc/core_cm0.h **** 
 159:../../lpc_chip_11cxx_lib/inc/core_cm0.h **** 
 160:../../lpc_chip_11cxx_lib/inc/core_cm0.h **** /*******************************************************************************
 161:../../lpc_chip_11cxx_lib/inc/core_cm0.h ****  *                 Register Abstraction
 162:../../lpc_chip_11cxx_lib/inc/core_cm0.h ****   Core Register contain:
 163:../../lpc_chip_11cxx_lib/inc/core_cm0.h ****   - Core Register
 164:../../lpc_chip_11cxx_lib/inc/core_cm0.h ****   - Core NVIC Register
 165:../../lpc_chip_11cxx_lib/inc/core_cm0.h ****   - Core SCB Register
ARM GAS  /tmp/cc3uVotH.s 			page 7


 166:../../lpc_chip_11cxx_lib/inc/core_cm0.h ****   - Core SysTick Register
 167:../../lpc_chip_11cxx_lib/inc/core_cm0.h ****  ******************************************************************************/
 168:../../lpc_chip_11cxx_lib/inc/core_cm0.h **** /** \defgroup CMSIS_core_register Defines and Type Definitions
 169:../../lpc_chip_11cxx_lib/inc/core_cm0.h ****     \brief Type definitions and defines for Cortex-M processor based devices.
 170:../../lpc_chip_11cxx_lib/inc/core_cm0.h **** */
 171:../../lpc_chip_11cxx_lib/inc/core_cm0.h **** 
 172:../../lpc_chip_11cxx_lib/inc/core_cm0.h **** /** \ingroup    CMSIS_core_register
 173:../../lpc_chip_11cxx_lib/inc/core_cm0.h ****     \defgroup   CMSIS_CORE  Status and Control Registers
 174:../../lpc_chip_11cxx_lib/inc/core_cm0.h ****     \brief  Core Register type definitions.
 175:../../lpc_chip_11cxx_lib/inc/core_cm0.h ****   @{
 176:../../lpc_chip_11cxx_lib/inc/core_cm0.h ****  */
 177:../../lpc_chip_11cxx_lib/inc/core_cm0.h **** 
 178:../../lpc_chip_11cxx_lib/inc/core_cm0.h **** /** \brief  Union type to access the Application Program Status Register (APSR).
 179:../../lpc_chip_11cxx_lib/inc/core_cm0.h ****  */
 180:../../lpc_chip_11cxx_lib/inc/core_cm0.h **** typedef union
 181:../../lpc_chip_11cxx_lib/inc/core_cm0.h **** {
 182:../../lpc_chip_11cxx_lib/inc/core_cm0.h ****   struct
 183:../../lpc_chip_11cxx_lib/inc/core_cm0.h ****   {
 184:../../lpc_chip_11cxx_lib/inc/core_cm0.h **** #if (__CORTEX_M != 0x04)
 185:../../lpc_chip_11cxx_lib/inc/core_cm0.h ****     uint32_t _reserved0:27;              /*!< bit:  0..26  Reserved                           */
 186:../../lpc_chip_11cxx_lib/inc/core_cm0.h **** #else
 187:../../lpc_chip_11cxx_lib/inc/core_cm0.h ****     uint32_t _reserved0:16;              /*!< bit:  0..15  Reserved                           */
 188:../../lpc_chip_11cxx_lib/inc/core_cm0.h ****     uint32_t GE:4;                       /*!< bit: 16..19  Greater than or Equal flags        */
 189:../../lpc_chip_11cxx_lib/inc/core_cm0.h ****     uint32_t _reserved1:7;               /*!< bit: 20..26  Reserved                           */
 190:../../lpc_chip_11cxx_lib/inc/core_cm0.h **** #endif
 191:../../lpc_chip_11cxx_lib/inc/core_cm0.h ****     uint32_t Q:1;                        /*!< bit:     27  Saturation condition flag          */
 192:../../lpc_chip_11cxx_lib/inc/core_cm0.h ****     uint32_t V:1;                        /*!< bit:     28  Overflow condition code flag       */
 193:../../lpc_chip_11cxx_lib/inc/core_cm0.h ****     uint32_t C:1;                        /*!< bit:     29  Carry condition code flag          */
 194:../../lpc_chip_11cxx_lib/inc/core_cm0.h ****     uint32_t Z:1;                        /*!< bit:     30  Zero condition code flag           */
 195:../../lpc_chip_11cxx_lib/inc/core_cm0.h ****     uint32_t N:1;                        /*!< bit:     31  Negative condition code flag       */
 196:../../lpc_chip_11cxx_lib/inc/core_cm0.h ****   } b;                                   /*!< Structure used for bit  access                  */
 197:../../lpc_chip_11cxx_lib/inc/core_cm0.h ****   uint32_t w;                            /*!< Type      used for word access                  */
 198:../../lpc_chip_11cxx_lib/inc/core_cm0.h **** } APSR_Type;
 199:../../lpc_chip_11cxx_lib/inc/core_cm0.h **** 
 200:../../lpc_chip_11cxx_lib/inc/core_cm0.h **** 
 201:../../lpc_chip_11cxx_lib/inc/core_cm0.h **** /** \brief  Union type to access the Interrupt Program Status Register (IPSR).
 202:../../lpc_chip_11cxx_lib/inc/core_cm0.h ****  */
 203:../../lpc_chip_11cxx_lib/inc/core_cm0.h **** typedef union
 204:../../lpc_chip_11cxx_lib/inc/core_cm0.h **** {
 205:../../lpc_chip_11cxx_lib/inc/core_cm0.h ****   struct
 206:../../lpc_chip_11cxx_lib/inc/core_cm0.h ****   {
 207:../../lpc_chip_11cxx_lib/inc/core_cm0.h ****     uint32_t ISR:9;                      /*!< bit:  0.. 8  Exception number                   */
 208:../../lpc_chip_11cxx_lib/inc/core_cm0.h ****     uint32_t _reserved0:23;              /*!< bit:  9..31  Reserved                           */
 209:../../lpc_chip_11cxx_lib/inc/core_cm0.h ****   } b;                                   /*!< Structure used for bit  access                  */
 210:../../lpc_chip_11cxx_lib/inc/core_cm0.h ****   uint32_t w;                            /*!< Type      used for word access                  */
 211:../../lpc_chip_11cxx_lib/inc/core_cm0.h **** } IPSR_Type;
 212:../../lpc_chip_11cxx_lib/inc/core_cm0.h **** 
 213:../../lpc_chip_11cxx_lib/inc/core_cm0.h **** 
 214:../../lpc_chip_11cxx_lib/inc/core_cm0.h **** /** \brief  Union type to access the Special-Purpose Program Status Registers (xPSR).
 215:../../lpc_chip_11cxx_lib/inc/core_cm0.h ****  */
 216:../../lpc_chip_11cxx_lib/inc/core_cm0.h **** typedef union
 217:../../lpc_chip_11cxx_lib/inc/core_cm0.h **** {
 218:../../lpc_chip_11cxx_lib/inc/core_cm0.h ****   struct
 219:../../lpc_chip_11cxx_lib/inc/core_cm0.h ****   {
 220:../../lpc_chip_11cxx_lib/inc/core_cm0.h ****     uint32_t ISR:9;                      /*!< bit:  0.. 8  Exception number                   */
 221:../../lpc_chip_11cxx_lib/inc/core_cm0.h **** #if (__CORTEX_M != 0x04)
 222:../../lpc_chip_11cxx_lib/inc/core_cm0.h ****     uint32_t _reserved0:15;              /*!< bit:  9..23  Reserved                           */
ARM GAS  /tmp/cc3uVotH.s 			page 8


 223:../../lpc_chip_11cxx_lib/inc/core_cm0.h **** #else
 224:../../lpc_chip_11cxx_lib/inc/core_cm0.h ****     uint32_t _reserved0:7;               /*!< bit:  9..15  Reserved                           */
 225:../../lpc_chip_11cxx_lib/inc/core_cm0.h ****     uint32_t GE:4;                       /*!< bit: 16..19  Greater than or Equal flags        */
 226:../../lpc_chip_11cxx_lib/inc/core_cm0.h ****     uint32_t _reserved1:4;               /*!< bit: 20..23  Reserved                           */
 227:../../lpc_chip_11cxx_lib/inc/core_cm0.h **** #endif
 228:../../lpc_chip_11cxx_lib/inc/core_cm0.h ****     uint32_t T:1;                        /*!< bit:     24  Thumb bit        (read 0)          */
 229:../../lpc_chip_11cxx_lib/inc/core_cm0.h ****     uint32_t IT:2;                       /*!< bit: 25..26  saved IT state   (read 0)          */
 230:../../lpc_chip_11cxx_lib/inc/core_cm0.h ****     uint32_t Q:1;                        /*!< bit:     27  Saturation condition flag          */
 231:../../lpc_chip_11cxx_lib/inc/core_cm0.h ****     uint32_t V:1;                        /*!< bit:     28  Overflow condition code flag       */
 232:../../lpc_chip_11cxx_lib/inc/core_cm0.h ****     uint32_t C:1;                        /*!< bit:     29  Carry condition code flag          */
 233:../../lpc_chip_11cxx_lib/inc/core_cm0.h ****     uint32_t Z:1;                        /*!< bit:     30  Zero condition code flag           */
 234:../../lpc_chip_11cxx_lib/inc/core_cm0.h ****     uint32_t N:1;                        /*!< bit:     31  Negative condition code flag       */
 235:../../lpc_chip_11cxx_lib/inc/core_cm0.h ****   } b;                                   /*!< Structure used for bit  access                  */
 236:../../lpc_chip_11cxx_lib/inc/core_cm0.h ****   uint32_t w;                            /*!< Type      used for word access                  */
 237:../../lpc_chip_11cxx_lib/inc/core_cm0.h **** } xPSR_Type;
 238:../../lpc_chip_11cxx_lib/inc/core_cm0.h **** 
 239:../../lpc_chip_11cxx_lib/inc/core_cm0.h **** 
 240:../../lpc_chip_11cxx_lib/inc/core_cm0.h **** /** \brief  Union type to access the Control Registers (CONTROL).
 241:../../lpc_chip_11cxx_lib/inc/core_cm0.h ****  */
 242:../../lpc_chip_11cxx_lib/inc/core_cm0.h **** typedef union
 243:../../lpc_chip_11cxx_lib/inc/core_cm0.h **** {
 244:../../lpc_chip_11cxx_lib/inc/core_cm0.h ****   struct
 245:../../lpc_chip_11cxx_lib/inc/core_cm0.h ****   {
 246:../../lpc_chip_11cxx_lib/inc/core_cm0.h ****     uint32_t nPRIV:1;                    /*!< bit:      0  Execution privilege in Thread mode */
 247:../../lpc_chip_11cxx_lib/inc/core_cm0.h ****     uint32_t SPSEL:1;                    /*!< bit:      1  Stack to be used                   */
 248:../../lpc_chip_11cxx_lib/inc/core_cm0.h ****     uint32_t FPCA:1;                     /*!< bit:      2  FP extension active flag           */
 249:../../lpc_chip_11cxx_lib/inc/core_cm0.h ****     uint32_t _reserved0:29;              /*!< bit:  3..31  Reserved                           */
 250:../../lpc_chip_11cxx_lib/inc/core_cm0.h ****   } b;                                   /*!< Structure used for bit  access                  */
 251:../../lpc_chip_11cxx_lib/inc/core_cm0.h ****   uint32_t w;                            /*!< Type      used for word access                  */
 252:../../lpc_chip_11cxx_lib/inc/core_cm0.h **** } CONTROL_Type;
 253:../../lpc_chip_11cxx_lib/inc/core_cm0.h **** 
 254:../../lpc_chip_11cxx_lib/inc/core_cm0.h **** /*@} end of group CMSIS_CORE */
 255:../../lpc_chip_11cxx_lib/inc/core_cm0.h **** 
 256:../../lpc_chip_11cxx_lib/inc/core_cm0.h **** 
 257:../../lpc_chip_11cxx_lib/inc/core_cm0.h **** /** \ingroup    CMSIS_core_register
 258:../../lpc_chip_11cxx_lib/inc/core_cm0.h ****     \defgroup   CMSIS_NVIC  Nested Vectored Interrupt Controller (NVIC)
 259:../../lpc_chip_11cxx_lib/inc/core_cm0.h ****     \brief      Type definitions for the NVIC Registers
 260:../../lpc_chip_11cxx_lib/inc/core_cm0.h ****   @{
 261:../../lpc_chip_11cxx_lib/inc/core_cm0.h ****  */
 262:../../lpc_chip_11cxx_lib/inc/core_cm0.h **** 
 263:../../lpc_chip_11cxx_lib/inc/core_cm0.h **** /** \brief  Structure type to access the Nested Vectored Interrupt Controller (NVIC).
 264:../../lpc_chip_11cxx_lib/inc/core_cm0.h ****  */
 265:../../lpc_chip_11cxx_lib/inc/core_cm0.h **** typedef struct
 266:../../lpc_chip_11cxx_lib/inc/core_cm0.h **** {
 267:../../lpc_chip_11cxx_lib/inc/core_cm0.h ****   __IO uint32_t ISER[1];                 /*!< Offset: 0x000 (R/W)  Interrupt Set Enable Register   
 268:../../lpc_chip_11cxx_lib/inc/core_cm0.h ****        uint32_t RESERVED0[31];
 269:../../lpc_chip_11cxx_lib/inc/core_cm0.h ****   __IO uint32_t ICER[1];                 /*!< Offset: 0x080 (R/W)  Interrupt Clear Enable Register 
 270:../../lpc_chip_11cxx_lib/inc/core_cm0.h ****        uint32_t RSERVED1[31];
 271:../../lpc_chip_11cxx_lib/inc/core_cm0.h ****   __IO uint32_t ISPR[1];                 /*!< Offset: 0x100 (R/W)  Interrupt Set Pending Register  
 272:../../lpc_chip_11cxx_lib/inc/core_cm0.h ****        uint32_t RESERVED2[31];
 273:../../lpc_chip_11cxx_lib/inc/core_cm0.h ****   __IO uint32_t ICPR[1];                 /*!< Offset: 0x180 (R/W)  Interrupt Clear Pending Register
 274:../../lpc_chip_11cxx_lib/inc/core_cm0.h ****        uint32_t RESERVED3[31];
 275:../../lpc_chip_11cxx_lib/inc/core_cm0.h ****        uint32_t RESERVED4[64];
 276:../../lpc_chip_11cxx_lib/inc/core_cm0.h ****   __IO uint32_t IP[8];                   /*!< Offset: 0x300 (R/W)  Interrupt Priority Register     
 277:../../lpc_chip_11cxx_lib/inc/core_cm0.h **** }  NVIC_Type;
 278:../../lpc_chip_11cxx_lib/inc/core_cm0.h **** 
 279:../../lpc_chip_11cxx_lib/inc/core_cm0.h **** /*@} end of group CMSIS_NVIC */
ARM GAS  /tmp/cc3uVotH.s 			page 9


 280:../../lpc_chip_11cxx_lib/inc/core_cm0.h **** 
 281:../../lpc_chip_11cxx_lib/inc/core_cm0.h **** 
 282:../../lpc_chip_11cxx_lib/inc/core_cm0.h **** /** \ingroup  CMSIS_core_register
 283:../../lpc_chip_11cxx_lib/inc/core_cm0.h ****     \defgroup CMSIS_SCB     System Control Block (SCB)
 284:../../lpc_chip_11cxx_lib/inc/core_cm0.h ****     \brief      Type definitions for the System Control Block Registers
 285:../../lpc_chip_11cxx_lib/inc/core_cm0.h ****   @{
 286:../../lpc_chip_11cxx_lib/inc/core_cm0.h ****  */
 287:../../lpc_chip_11cxx_lib/inc/core_cm0.h **** 
 288:../../lpc_chip_11cxx_lib/inc/core_cm0.h **** /** \brief  Structure type to access the System Control Block (SCB).
 289:../../lpc_chip_11cxx_lib/inc/core_cm0.h ****  */
 290:../../lpc_chip_11cxx_lib/inc/core_cm0.h **** typedef struct
 291:../../lpc_chip_11cxx_lib/inc/core_cm0.h **** {
 292:../../lpc_chip_11cxx_lib/inc/core_cm0.h ****   __I  uint32_t CPUID;                   /*!< Offset: 0x000 (R/ )  CPUID Base Register             
 293:../../lpc_chip_11cxx_lib/inc/core_cm0.h ****   __IO uint32_t ICSR;                    /*!< Offset: 0x004 (R/W)  Interrupt Control and State Regi
 294:../../lpc_chip_11cxx_lib/inc/core_cm0.h ****        uint32_t RESERVED0;
 295:../../lpc_chip_11cxx_lib/inc/core_cm0.h ****   __IO uint32_t AIRCR;                   /*!< Offset: 0x00C (R/W)  Application Interrupt and Reset 
 296:../../lpc_chip_11cxx_lib/inc/core_cm0.h ****   __IO uint32_t SCR;                     /*!< Offset: 0x010 (R/W)  System Control Register         
 297:../../lpc_chip_11cxx_lib/inc/core_cm0.h ****   __IO uint32_t CCR;                     /*!< Offset: 0x014 (R/W)  Configuration Control Register  
 298:../../lpc_chip_11cxx_lib/inc/core_cm0.h ****        uint32_t RESERVED1;
 299:../../lpc_chip_11cxx_lib/inc/core_cm0.h ****   __IO uint32_t SHP[2];                  /*!< Offset: 0x01C (R/W)  System Handlers Priority Registe
 300:../../lpc_chip_11cxx_lib/inc/core_cm0.h ****   __IO uint32_t SHCSR;                   /*!< Offset: 0x024 (R/W)  System Handler Control and State
 301:../../lpc_chip_11cxx_lib/inc/core_cm0.h **** } SCB_Type;
 302:../../lpc_chip_11cxx_lib/inc/core_cm0.h **** 
 303:../../lpc_chip_11cxx_lib/inc/core_cm0.h **** /* SCB CPUID Register Definitions */
 304:../../lpc_chip_11cxx_lib/inc/core_cm0.h **** #define SCB_CPUID_IMPLEMENTER_Pos          24                                             /*!< SCB 
 305:../../lpc_chip_11cxx_lib/inc/core_cm0.h **** #define SCB_CPUID_IMPLEMENTER_Msk          (0xFFUL << SCB_CPUID_IMPLEMENTER_Pos)          /*!< SCB 
 306:../../lpc_chip_11cxx_lib/inc/core_cm0.h **** 
 307:../../lpc_chip_11cxx_lib/inc/core_cm0.h **** #define SCB_CPUID_VARIANT_Pos              20                                             /*!< SCB 
 308:../../lpc_chip_11cxx_lib/inc/core_cm0.h **** #define SCB_CPUID_VARIANT_Msk              (0xFUL << SCB_CPUID_VARIANT_Pos)               /*!< SCB 
 309:../../lpc_chip_11cxx_lib/inc/core_cm0.h **** 
 310:../../lpc_chip_11cxx_lib/inc/core_cm0.h **** #define SCB_CPUID_ARCHITECTURE_Pos         16                                             /*!< SCB 
 311:../../lpc_chip_11cxx_lib/inc/core_cm0.h **** #define SCB_CPUID_ARCHITECTURE_Msk         (0xFUL << SCB_CPUID_ARCHITECTURE_Pos)          /*!< SCB 
 312:../../lpc_chip_11cxx_lib/inc/core_cm0.h **** 
 313:../../lpc_chip_11cxx_lib/inc/core_cm0.h **** #define SCB_CPUID_PARTNO_Pos                4                                             /*!< SCB 
 314:../../lpc_chip_11cxx_lib/inc/core_cm0.h **** #define SCB_CPUID_PARTNO_Msk               (0xFFFUL << SCB_CPUID_PARTNO_Pos)              /*!< SCB 
 315:../../lpc_chip_11cxx_lib/inc/core_cm0.h **** 
 316:../../lpc_chip_11cxx_lib/inc/core_cm0.h **** #define SCB_CPUID_REVISION_Pos              0                                             /*!< SCB 
 317:../../lpc_chip_11cxx_lib/inc/core_cm0.h **** #define SCB_CPUID_REVISION_Msk             (0xFUL << SCB_CPUID_REVISION_Pos)              /*!< SCB 
 318:../../lpc_chip_11cxx_lib/inc/core_cm0.h **** 
 319:../../lpc_chip_11cxx_lib/inc/core_cm0.h **** /* SCB Interrupt Control State Register Definitions */
 320:../../lpc_chip_11cxx_lib/inc/core_cm0.h **** #define SCB_ICSR_NMIPENDSET_Pos            31                                             /*!< SCB 
 321:../../lpc_chip_11cxx_lib/inc/core_cm0.h **** #define SCB_ICSR_NMIPENDSET_Msk            (1UL << SCB_ICSR_NMIPENDSET_Pos)               /*!< SCB 
 322:../../lpc_chip_11cxx_lib/inc/core_cm0.h **** 
 323:../../lpc_chip_11cxx_lib/inc/core_cm0.h **** #define SCB_ICSR_PENDSVSET_Pos             28                                             /*!< SCB 
 324:../../lpc_chip_11cxx_lib/inc/core_cm0.h **** #define SCB_ICSR_PENDSVSET_Msk             (1UL << SCB_ICSR_PENDSVSET_Pos)                /*!< SCB 
 325:../../lpc_chip_11cxx_lib/inc/core_cm0.h **** 
 326:../../lpc_chip_11cxx_lib/inc/core_cm0.h **** #define SCB_ICSR_PENDSVCLR_Pos             27                                             /*!< SCB 
 327:../../lpc_chip_11cxx_lib/inc/core_cm0.h **** #define SCB_ICSR_PENDSVCLR_Msk             (1UL << SCB_ICSR_PENDSVCLR_Pos)                /*!< SCB 
 328:../../lpc_chip_11cxx_lib/inc/core_cm0.h **** 
 329:../../lpc_chip_11cxx_lib/inc/core_cm0.h **** #define SCB_ICSR_PENDSTSET_Pos             26                                             /*!< SCB 
 330:../../lpc_chip_11cxx_lib/inc/core_cm0.h **** #define SCB_ICSR_PENDSTSET_Msk             (1UL << SCB_ICSR_PENDSTSET_Pos)                /*!< SCB 
 331:../../lpc_chip_11cxx_lib/inc/core_cm0.h **** 
 332:../../lpc_chip_11cxx_lib/inc/core_cm0.h **** #define SCB_ICSR_PENDSTCLR_Pos             25                                             /*!< SCB 
 333:../../lpc_chip_11cxx_lib/inc/core_cm0.h **** #define SCB_ICSR_PENDSTCLR_Msk             (1UL << SCB_ICSR_PENDSTCLR_Pos)                /*!< SCB 
 334:../../lpc_chip_11cxx_lib/inc/core_cm0.h **** 
 335:../../lpc_chip_11cxx_lib/inc/core_cm0.h **** #define SCB_ICSR_ISRPREEMPT_Pos            23                                             /*!< SCB 
 336:../../lpc_chip_11cxx_lib/inc/core_cm0.h **** #define SCB_ICSR_ISRPREEMPT_Msk            (1UL << SCB_ICSR_ISRPREEMPT_Pos)               /*!< SCB 
ARM GAS  /tmp/cc3uVotH.s 			page 10


 337:../../lpc_chip_11cxx_lib/inc/core_cm0.h **** 
 338:../../lpc_chip_11cxx_lib/inc/core_cm0.h **** #define SCB_ICSR_ISRPENDING_Pos            22                                             /*!< SCB 
 339:../../lpc_chip_11cxx_lib/inc/core_cm0.h **** #define SCB_ICSR_ISRPENDING_Msk            (1UL << SCB_ICSR_ISRPENDING_Pos)               /*!< SCB 
 340:../../lpc_chip_11cxx_lib/inc/core_cm0.h **** 
 341:../../lpc_chip_11cxx_lib/inc/core_cm0.h **** #define SCB_ICSR_VECTPENDING_Pos           12                                             /*!< SCB 
 342:../../lpc_chip_11cxx_lib/inc/core_cm0.h **** #define SCB_ICSR_VECTPENDING_Msk           (0x1FFUL << SCB_ICSR_VECTPENDING_Pos)          /*!< SCB 
 343:../../lpc_chip_11cxx_lib/inc/core_cm0.h **** 
 344:../../lpc_chip_11cxx_lib/inc/core_cm0.h **** #define SCB_ICSR_VECTACTIVE_Pos             0                                             /*!< SCB 
 345:../../lpc_chip_11cxx_lib/inc/core_cm0.h **** #define SCB_ICSR_VECTACTIVE_Msk            (0x1FFUL << SCB_ICSR_VECTACTIVE_Pos)           /*!< SCB 
 346:../../lpc_chip_11cxx_lib/inc/core_cm0.h **** 
 347:../../lpc_chip_11cxx_lib/inc/core_cm0.h **** /* SCB Application Interrupt and Reset Control Register Definitions */
 348:../../lpc_chip_11cxx_lib/inc/core_cm0.h **** #define SCB_AIRCR_VECTKEY_Pos              16                                             /*!< SCB 
 349:../../lpc_chip_11cxx_lib/inc/core_cm0.h **** #define SCB_AIRCR_VECTKEY_Msk              (0xFFFFUL << SCB_AIRCR_VECTKEY_Pos)            /*!< SCB 
 350:../../lpc_chip_11cxx_lib/inc/core_cm0.h **** 
 351:../../lpc_chip_11cxx_lib/inc/core_cm0.h **** #define SCB_AIRCR_VECTKEYSTAT_Pos          16                                             /*!< SCB 
 352:../../lpc_chip_11cxx_lib/inc/core_cm0.h **** #define SCB_AIRCR_VECTKEYSTAT_Msk          (0xFFFFUL << SCB_AIRCR_VECTKEYSTAT_Pos)        /*!< SCB 
 353:../../lpc_chip_11cxx_lib/inc/core_cm0.h **** 
 354:../../lpc_chip_11cxx_lib/inc/core_cm0.h **** #define SCB_AIRCR_ENDIANESS_Pos            15                                             /*!< SCB 
 355:../../lpc_chip_11cxx_lib/inc/core_cm0.h **** #define SCB_AIRCR_ENDIANESS_Msk            (1UL << SCB_AIRCR_ENDIANESS_Pos)               /*!< SCB 
 356:../../lpc_chip_11cxx_lib/inc/core_cm0.h **** 
 357:../../lpc_chip_11cxx_lib/inc/core_cm0.h **** #define SCB_AIRCR_SYSRESETREQ_Pos           2                                             /*!< SCB 
 358:../../lpc_chip_11cxx_lib/inc/core_cm0.h **** #define SCB_AIRCR_SYSRESETREQ_Msk          (1UL << SCB_AIRCR_SYSRESETREQ_Pos)             /*!< SCB 
 359:../../lpc_chip_11cxx_lib/inc/core_cm0.h **** 
 360:../../lpc_chip_11cxx_lib/inc/core_cm0.h **** #define SCB_AIRCR_VECTCLRACTIVE_Pos         1                                             /*!< SCB 
 361:../../lpc_chip_11cxx_lib/inc/core_cm0.h **** #define SCB_AIRCR_VECTCLRACTIVE_Msk        (1UL << SCB_AIRCR_VECTCLRACTIVE_Pos)           /*!< SCB 
 362:../../lpc_chip_11cxx_lib/inc/core_cm0.h **** 
 363:../../lpc_chip_11cxx_lib/inc/core_cm0.h **** /* SCB System Control Register Definitions */
 364:../../lpc_chip_11cxx_lib/inc/core_cm0.h **** #define SCB_SCR_SEVONPEND_Pos               4                                             /*!< SCB 
 365:../../lpc_chip_11cxx_lib/inc/core_cm0.h **** #define SCB_SCR_SEVONPEND_Msk              (1UL << SCB_SCR_SEVONPEND_Pos)                 /*!< SCB 
 366:../../lpc_chip_11cxx_lib/inc/core_cm0.h **** 
 367:../../lpc_chip_11cxx_lib/inc/core_cm0.h **** #define SCB_SCR_SLEEPDEEP_Pos               2                                             /*!< SCB 
 368:../../lpc_chip_11cxx_lib/inc/core_cm0.h **** #define SCB_SCR_SLEEPDEEP_Msk              (1UL << SCB_SCR_SLEEPDEEP_Pos)                 /*!< SCB 
 369:../../lpc_chip_11cxx_lib/inc/core_cm0.h **** 
 370:../../lpc_chip_11cxx_lib/inc/core_cm0.h **** #define SCB_SCR_SLEEPONEXIT_Pos             1                                             /*!< SCB 
 371:../../lpc_chip_11cxx_lib/inc/core_cm0.h **** #define SCB_SCR_SLEEPONEXIT_Msk            (1UL << SCB_SCR_SLEEPONEXIT_Pos)               /*!< SCB 
 372:../../lpc_chip_11cxx_lib/inc/core_cm0.h **** 
 373:../../lpc_chip_11cxx_lib/inc/core_cm0.h **** /* SCB Configuration Control Register Definitions */
 374:../../lpc_chip_11cxx_lib/inc/core_cm0.h **** #define SCB_CCR_STKALIGN_Pos                9                                             /*!< SCB 
 375:../../lpc_chip_11cxx_lib/inc/core_cm0.h **** #define SCB_CCR_STKALIGN_Msk               (1UL << SCB_CCR_STKALIGN_Pos)                  /*!< SCB 
 376:../../lpc_chip_11cxx_lib/inc/core_cm0.h **** 
 377:../../lpc_chip_11cxx_lib/inc/core_cm0.h **** #define SCB_CCR_UNALIGN_TRP_Pos             3                                             /*!< SCB 
 378:../../lpc_chip_11cxx_lib/inc/core_cm0.h **** #define SCB_CCR_UNALIGN_TRP_Msk            (1UL << SCB_CCR_UNALIGN_TRP_Pos)               /*!< SCB 
 379:../../lpc_chip_11cxx_lib/inc/core_cm0.h **** 
 380:../../lpc_chip_11cxx_lib/inc/core_cm0.h **** /* SCB System Handler Control and State Register Definitions */
 381:../../lpc_chip_11cxx_lib/inc/core_cm0.h **** #define SCB_SHCSR_SVCALLPENDED_Pos         15                                             /*!< SCB 
 382:../../lpc_chip_11cxx_lib/inc/core_cm0.h **** #define SCB_SHCSR_SVCALLPENDED_Msk         (1UL << SCB_SHCSR_SVCALLPENDED_Pos)            /*!< SCB 
 383:../../lpc_chip_11cxx_lib/inc/core_cm0.h **** 
 384:../../lpc_chip_11cxx_lib/inc/core_cm0.h **** /*@} end of group CMSIS_SCB */
 385:../../lpc_chip_11cxx_lib/inc/core_cm0.h **** 
 386:../../lpc_chip_11cxx_lib/inc/core_cm0.h **** 
 387:../../lpc_chip_11cxx_lib/inc/core_cm0.h **** /** \ingroup  CMSIS_core_register
 388:../../lpc_chip_11cxx_lib/inc/core_cm0.h ****     \defgroup CMSIS_SysTick     System Tick Timer (SysTick)
 389:../../lpc_chip_11cxx_lib/inc/core_cm0.h ****     \brief      Type definitions for the System Timer Registers.
 390:../../lpc_chip_11cxx_lib/inc/core_cm0.h ****   @{
 391:../../lpc_chip_11cxx_lib/inc/core_cm0.h ****  */
 392:../../lpc_chip_11cxx_lib/inc/core_cm0.h **** 
 393:../../lpc_chip_11cxx_lib/inc/core_cm0.h **** /** \brief  Structure type to access the System Timer (SysTick).
ARM GAS  /tmp/cc3uVotH.s 			page 11


 394:../../lpc_chip_11cxx_lib/inc/core_cm0.h ****  */
 395:../../lpc_chip_11cxx_lib/inc/core_cm0.h **** typedef struct
 396:../../lpc_chip_11cxx_lib/inc/core_cm0.h **** {
 397:../../lpc_chip_11cxx_lib/inc/core_cm0.h ****   __IO uint32_t CTRL;                    /*!< Offset: 0x000 (R/W)  SysTick Control and Status Regis
 398:../../lpc_chip_11cxx_lib/inc/core_cm0.h ****   __IO uint32_t LOAD;                    /*!< Offset: 0x004 (R/W)  SysTick Reload Value Register   
 399:../../lpc_chip_11cxx_lib/inc/core_cm0.h ****   __IO uint32_t VAL;                     /*!< Offset: 0x008 (R/W)  SysTick Current Value Register  
 400:../../lpc_chip_11cxx_lib/inc/core_cm0.h ****   __I  uint32_t CALIB;                   /*!< Offset: 0x00C (R/ )  SysTick Calibration Register    
 401:../../lpc_chip_11cxx_lib/inc/core_cm0.h **** } SysTick_Type;
 402:../../lpc_chip_11cxx_lib/inc/core_cm0.h **** 
 403:../../lpc_chip_11cxx_lib/inc/core_cm0.h **** /* SysTick Control / Status Register Definitions */
 404:../../lpc_chip_11cxx_lib/inc/core_cm0.h **** #define SysTick_CTRL_COUNTFLAG_Pos         16                                             /*!< SysT
 405:../../lpc_chip_11cxx_lib/inc/core_cm0.h **** #define SysTick_CTRL_COUNTFLAG_Msk         (1UL << SysTick_CTRL_COUNTFLAG_Pos)            /*!< SysT
 406:../../lpc_chip_11cxx_lib/inc/core_cm0.h **** 
 407:../../lpc_chip_11cxx_lib/inc/core_cm0.h **** #define SysTick_CTRL_CLKSOURCE_Pos          2                                             /*!< SysT
 408:../../lpc_chip_11cxx_lib/inc/core_cm0.h **** #define SysTick_CTRL_CLKSOURCE_Msk         (1UL << SysTick_CTRL_CLKSOURCE_Pos)            /*!< SysT
 409:../../lpc_chip_11cxx_lib/inc/core_cm0.h **** 
 410:../../lpc_chip_11cxx_lib/inc/core_cm0.h **** #define SysTick_CTRL_TICKINT_Pos            1                                             /*!< SysT
 411:../../lpc_chip_11cxx_lib/inc/core_cm0.h **** #define SysTick_CTRL_TICKINT_Msk           (1UL << SysTick_CTRL_TICKINT_Pos)              /*!< SysT
 412:../../lpc_chip_11cxx_lib/inc/core_cm0.h **** 
 413:../../lpc_chip_11cxx_lib/inc/core_cm0.h **** #define SysTick_CTRL_ENABLE_Pos             0                                             /*!< SysT
 414:../../lpc_chip_11cxx_lib/inc/core_cm0.h **** #define SysTick_CTRL_ENABLE_Msk            (1UL << SysTick_CTRL_ENABLE_Pos)               /*!< SysT
 415:../../lpc_chip_11cxx_lib/inc/core_cm0.h **** 
 416:../../lpc_chip_11cxx_lib/inc/core_cm0.h **** /* SysTick Reload Register Definitions */
 417:../../lpc_chip_11cxx_lib/inc/core_cm0.h **** #define SysTick_LOAD_RELOAD_Pos             0                                             /*!< SysT
 418:../../lpc_chip_11cxx_lib/inc/core_cm0.h **** #define SysTick_LOAD_RELOAD_Msk            (0xFFFFFFUL << SysTick_LOAD_RELOAD_Pos)        /*!< SysT
 419:../../lpc_chip_11cxx_lib/inc/core_cm0.h **** 
 420:../../lpc_chip_11cxx_lib/inc/core_cm0.h **** /* SysTick Current Register Definitions */
 421:../../lpc_chip_11cxx_lib/inc/core_cm0.h **** #define SysTick_VAL_CURRENT_Pos             0                                             /*!< SysT
 422:../../lpc_chip_11cxx_lib/inc/core_cm0.h **** #define SysTick_VAL_CURRENT_Msk            (0xFFFFFFUL << SysTick_VAL_CURRENT_Pos)        /*!< SysT
 423:../../lpc_chip_11cxx_lib/inc/core_cm0.h **** 
 424:../../lpc_chip_11cxx_lib/inc/core_cm0.h **** /* SysTick Calibration Register Definitions */
 425:../../lpc_chip_11cxx_lib/inc/core_cm0.h **** #define SysTick_CALIB_NOREF_Pos            31                                             /*!< SysT
 426:../../lpc_chip_11cxx_lib/inc/core_cm0.h **** #define SysTick_CALIB_NOREF_Msk            (1UL << SysTick_CALIB_NOREF_Pos)               /*!< SysT
 427:../../lpc_chip_11cxx_lib/inc/core_cm0.h **** 
 428:../../lpc_chip_11cxx_lib/inc/core_cm0.h **** #define SysTick_CALIB_SKEW_Pos             30                                             /*!< SysT
 429:../../lpc_chip_11cxx_lib/inc/core_cm0.h **** #define SysTick_CALIB_SKEW_Msk             (1UL << SysTick_CALIB_SKEW_Pos)                /*!< SysT
 430:../../lpc_chip_11cxx_lib/inc/core_cm0.h **** 
 431:../../lpc_chip_11cxx_lib/inc/core_cm0.h **** #define SysTick_CALIB_TENMS_Pos             0                                             /*!< SysT
 432:../../lpc_chip_11cxx_lib/inc/core_cm0.h **** #define SysTick_CALIB_TENMS_Msk            (0xFFFFFFUL << SysTick_VAL_CURRENT_Pos)        /*!< SysT
 433:../../lpc_chip_11cxx_lib/inc/core_cm0.h **** 
 434:../../lpc_chip_11cxx_lib/inc/core_cm0.h **** /*@} end of group CMSIS_SysTick */
 435:../../lpc_chip_11cxx_lib/inc/core_cm0.h **** 
 436:../../lpc_chip_11cxx_lib/inc/core_cm0.h **** 
 437:../../lpc_chip_11cxx_lib/inc/core_cm0.h **** /** \ingroup  CMSIS_core_register
 438:../../lpc_chip_11cxx_lib/inc/core_cm0.h ****     \defgroup CMSIS_CoreDebug       Core Debug Registers (CoreDebug)
 439:../../lpc_chip_11cxx_lib/inc/core_cm0.h ****     \brief      Cortex-M0 Core Debug Registers (DCB registers, SHCSR, and DFSR)
 440:../../lpc_chip_11cxx_lib/inc/core_cm0.h ****                 are only accessible over DAP and not via processor. Therefore
 441:../../lpc_chip_11cxx_lib/inc/core_cm0.h ****                 they are not covered by the Cortex-M0 header file.
 442:../../lpc_chip_11cxx_lib/inc/core_cm0.h ****   @{
 443:../../lpc_chip_11cxx_lib/inc/core_cm0.h ****  */
 444:../../lpc_chip_11cxx_lib/inc/core_cm0.h **** /*@} end of group CMSIS_CoreDebug */
 445:../../lpc_chip_11cxx_lib/inc/core_cm0.h **** 
 446:../../lpc_chip_11cxx_lib/inc/core_cm0.h **** 
 447:../../lpc_chip_11cxx_lib/inc/core_cm0.h **** /** \ingroup    CMSIS_core_register
 448:../../lpc_chip_11cxx_lib/inc/core_cm0.h ****     \defgroup   CMSIS_core_base     Core Definitions
 449:../../lpc_chip_11cxx_lib/inc/core_cm0.h ****     \brief      Definitions for base addresses, unions, and structures.
 450:../../lpc_chip_11cxx_lib/inc/core_cm0.h ****   @{
ARM GAS  /tmp/cc3uVotH.s 			page 12


 451:../../lpc_chip_11cxx_lib/inc/core_cm0.h ****  */
 452:../../lpc_chip_11cxx_lib/inc/core_cm0.h **** 
 453:../../lpc_chip_11cxx_lib/inc/core_cm0.h **** /* Memory mapping of Cortex-M0 Hardware */
 454:../../lpc_chip_11cxx_lib/inc/core_cm0.h **** #define SCS_BASE            (0xE000E000UL)                            /*!< System Control Space Bas
 455:../../lpc_chip_11cxx_lib/inc/core_cm0.h **** #define SysTick_BASE        (SCS_BASE +  0x0010UL)                    /*!< SysTick Base Address    
 456:../../lpc_chip_11cxx_lib/inc/core_cm0.h **** #define NVIC_BASE           (SCS_BASE +  0x0100UL)                    /*!< NVIC Base Address       
 457:../../lpc_chip_11cxx_lib/inc/core_cm0.h **** #define SCB_BASE            (SCS_BASE +  0x0D00UL)                    /*!< System Control Block Bas
 458:../../lpc_chip_11cxx_lib/inc/core_cm0.h **** 
 459:../../lpc_chip_11cxx_lib/inc/core_cm0.h **** #define SCB                 ((SCB_Type       *)     SCB_BASE      )   /*!< SCB configuration struct
 460:../../lpc_chip_11cxx_lib/inc/core_cm0.h **** #define SysTick             ((SysTick_Type   *)     SysTick_BASE  )   /*!< SysTick configuration st
 461:../../lpc_chip_11cxx_lib/inc/core_cm0.h **** #define NVIC                ((NVIC_Type      *)     NVIC_BASE     )   /*!< NVIC configuration struc
 462:../../lpc_chip_11cxx_lib/inc/core_cm0.h **** 
 463:../../lpc_chip_11cxx_lib/inc/core_cm0.h **** 
 464:../../lpc_chip_11cxx_lib/inc/core_cm0.h **** /*@} */
 465:../../lpc_chip_11cxx_lib/inc/core_cm0.h **** 
 466:../../lpc_chip_11cxx_lib/inc/core_cm0.h **** 
 467:../../lpc_chip_11cxx_lib/inc/core_cm0.h **** 
 468:../../lpc_chip_11cxx_lib/inc/core_cm0.h **** /*******************************************************************************
 469:../../lpc_chip_11cxx_lib/inc/core_cm0.h ****  *                Hardware Abstraction Layer
 470:../../lpc_chip_11cxx_lib/inc/core_cm0.h ****   Core Function Interface contains:
 471:../../lpc_chip_11cxx_lib/inc/core_cm0.h ****   - Core NVIC Functions
 472:../../lpc_chip_11cxx_lib/inc/core_cm0.h ****   - Core SysTick Functions
 473:../../lpc_chip_11cxx_lib/inc/core_cm0.h ****   - Core Register Access Functions
 474:../../lpc_chip_11cxx_lib/inc/core_cm0.h ****  ******************************************************************************/
 475:../../lpc_chip_11cxx_lib/inc/core_cm0.h **** /** \defgroup CMSIS_Core_FunctionInterface Functions and Instructions Reference
 476:../../lpc_chip_11cxx_lib/inc/core_cm0.h **** */
 477:../../lpc_chip_11cxx_lib/inc/core_cm0.h **** 
 478:../../lpc_chip_11cxx_lib/inc/core_cm0.h **** 
 479:../../lpc_chip_11cxx_lib/inc/core_cm0.h **** 
 480:../../lpc_chip_11cxx_lib/inc/core_cm0.h **** /* ##########################   NVIC functions  #################################### */
 481:../../lpc_chip_11cxx_lib/inc/core_cm0.h **** /** \ingroup  CMSIS_Core_FunctionInterface
 482:../../lpc_chip_11cxx_lib/inc/core_cm0.h ****     \defgroup CMSIS_Core_NVICFunctions NVIC Functions
 483:../../lpc_chip_11cxx_lib/inc/core_cm0.h ****     \brief      Functions that manage interrupts and exceptions via the NVIC.
 484:../../lpc_chip_11cxx_lib/inc/core_cm0.h ****     @{
 485:../../lpc_chip_11cxx_lib/inc/core_cm0.h ****  */
 486:../../lpc_chip_11cxx_lib/inc/core_cm0.h **** 
 487:../../lpc_chip_11cxx_lib/inc/core_cm0.h **** /* Interrupt Priorities are WORD accessible only under ARMv6M                   */
 488:../../lpc_chip_11cxx_lib/inc/core_cm0.h **** /* The following MACROS handle generation of the register offset and byte masks */
 489:../../lpc_chip_11cxx_lib/inc/core_cm0.h **** #define _BIT_SHIFT(IRQn)         (  (((uint32_t)(IRQn)       )    &  0x03) * 8 )
 490:../../lpc_chip_11cxx_lib/inc/core_cm0.h **** #define _SHP_IDX(IRQn)           ( ((((uint32_t)(IRQn) & 0x0F)-8) >>    2)     )
 491:../../lpc_chip_11cxx_lib/inc/core_cm0.h **** #define _IP_IDX(IRQn)            (   ((uint32_t)(IRQn)            >>    2)     )
 492:../../lpc_chip_11cxx_lib/inc/core_cm0.h **** 
 493:../../lpc_chip_11cxx_lib/inc/core_cm0.h **** 
 494:../../lpc_chip_11cxx_lib/inc/core_cm0.h **** /** \brief  Enable External Interrupt
 495:../../lpc_chip_11cxx_lib/inc/core_cm0.h **** 
 496:../../lpc_chip_11cxx_lib/inc/core_cm0.h ****     The function enables a device-specific interrupt in the NVIC interrupt controller.
 497:../../lpc_chip_11cxx_lib/inc/core_cm0.h **** 
 498:../../lpc_chip_11cxx_lib/inc/core_cm0.h ****     \param [in]      IRQn  External interrupt number. Value cannot be negative.
 499:../../lpc_chip_11cxx_lib/inc/core_cm0.h ****  */
 500:../../lpc_chip_11cxx_lib/inc/core_cm0.h **** __STATIC_INLINE void NVIC_EnableIRQ(IRQn_Type IRQn)
 501:../../lpc_chip_11cxx_lib/inc/core_cm0.h **** {
 502:../../lpc_chip_11cxx_lib/inc/core_cm0.h ****   NVIC->ISER[0] = (1 << ((uint32_t)(IRQn) & 0x1F));
 503:../../lpc_chip_11cxx_lib/inc/core_cm0.h **** }
 504:../../lpc_chip_11cxx_lib/inc/core_cm0.h **** 
 505:../../lpc_chip_11cxx_lib/inc/core_cm0.h **** 
 506:../../lpc_chip_11cxx_lib/inc/core_cm0.h **** /** \brief  Disable External Interrupt
 507:../../lpc_chip_11cxx_lib/inc/core_cm0.h **** 
ARM GAS  /tmp/cc3uVotH.s 			page 13


 508:../../lpc_chip_11cxx_lib/inc/core_cm0.h ****     The function disables a device-specific interrupt in the NVIC interrupt controller.
 509:../../lpc_chip_11cxx_lib/inc/core_cm0.h **** 
 510:../../lpc_chip_11cxx_lib/inc/core_cm0.h ****     \param [in]      IRQn  External interrupt number. Value cannot be negative.
 511:../../lpc_chip_11cxx_lib/inc/core_cm0.h ****  */
 512:../../lpc_chip_11cxx_lib/inc/core_cm0.h **** __STATIC_INLINE void NVIC_DisableIRQ(IRQn_Type IRQn)
 513:../../lpc_chip_11cxx_lib/inc/core_cm0.h **** {
 514:../../lpc_chip_11cxx_lib/inc/core_cm0.h ****   NVIC->ICER[0] = (1 << ((uint32_t)(IRQn) & 0x1F));
 515:../../lpc_chip_11cxx_lib/inc/core_cm0.h **** }
 516:../../lpc_chip_11cxx_lib/inc/core_cm0.h **** 
 517:../../lpc_chip_11cxx_lib/inc/core_cm0.h **** 
 518:../../lpc_chip_11cxx_lib/inc/core_cm0.h **** /** \brief  Get Pending Interrupt
 519:../../lpc_chip_11cxx_lib/inc/core_cm0.h **** 
 520:../../lpc_chip_11cxx_lib/inc/core_cm0.h ****     The function reads the pending register in the NVIC and returns the pending bit
 521:../../lpc_chip_11cxx_lib/inc/core_cm0.h ****     for the specified interrupt.
 522:../../lpc_chip_11cxx_lib/inc/core_cm0.h **** 
 523:../../lpc_chip_11cxx_lib/inc/core_cm0.h ****     \param [in]      IRQn  Interrupt number.
 524:../../lpc_chip_11cxx_lib/inc/core_cm0.h **** 
 525:../../lpc_chip_11cxx_lib/inc/core_cm0.h ****     \return             0  Interrupt status is not pending.
 526:../../lpc_chip_11cxx_lib/inc/core_cm0.h ****     \return             1  Interrupt status is pending.
 527:../../lpc_chip_11cxx_lib/inc/core_cm0.h ****  */
 528:../../lpc_chip_11cxx_lib/inc/core_cm0.h **** __STATIC_INLINE uint32_t NVIC_GetPendingIRQ(IRQn_Type IRQn)
 529:../../lpc_chip_11cxx_lib/inc/core_cm0.h **** {
 530:../../lpc_chip_11cxx_lib/inc/core_cm0.h ****   return((uint32_t) ((NVIC->ISPR[0] & (1 << ((uint32_t)(IRQn) & 0x1F)))?1:0));
 531:../../lpc_chip_11cxx_lib/inc/core_cm0.h **** }
 532:../../lpc_chip_11cxx_lib/inc/core_cm0.h **** 
 533:../../lpc_chip_11cxx_lib/inc/core_cm0.h **** 
 534:../../lpc_chip_11cxx_lib/inc/core_cm0.h **** /** \brief  Set Pending Interrupt
 535:../../lpc_chip_11cxx_lib/inc/core_cm0.h **** 
 536:../../lpc_chip_11cxx_lib/inc/core_cm0.h ****     The function sets the pending bit of an external interrupt.
 537:../../lpc_chip_11cxx_lib/inc/core_cm0.h **** 
 538:../../lpc_chip_11cxx_lib/inc/core_cm0.h ****     \param [in]      IRQn  Interrupt number. Value cannot be negative.
 539:../../lpc_chip_11cxx_lib/inc/core_cm0.h ****  */
 540:../../lpc_chip_11cxx_lib/inc/core_cm0.h **** __STATIC_INLINE void NVIC_SetPendingIRQ(IRQn_Type IRQn)
 541:../../lpc_chip_11cxx_lib/inc/core_cm0.h **** {
 542:../../lpc_chip_11cxx_lib/inc/core_cm0.h ****   NVIC->ISPR[0] = (1 << ((uint32_t)(IRQn) & 0x1F));
 543:../../lpc_chip_11cxx_lib/inc/core_cm0.h **** }
 544:../../lpc_chip_11cxx_lib/inc/core_cm0.h **** 
 545:../../lpc_chip_11cxx_lib/inc/core_cm0.h **** 
 546:../../lpc_chip_11cxx_lib/inc/core_cm0.h **** /** \brief  Clear Pending Interrupt
 547:../../lpc_chip_11cxx_lib/inc/core_cm0.h **** 
 548:../../lpc_chip_11cxx_lib/inc/core_cm0.h ****     The function clears the pending bit of an external interrupt.
 549:../../lpc_chip_11cxx_lib/inc/core_cm0.h **** 
 550:../../lpc_chip_11cxx_lib/inc/core_cm0.h ****     \param [in]      IRQn  External interrupt number. Value cannot be negative.
 551:../../lpc_chip_11cxx_lib/inc/core_cm0.h ****  */
 552:../../lpc_chip_11cxx_lib/inc/core_cm0.h **** __STATIC_INLINE void NVIC_ClearPendingIRQ(IRQn_Type IRQn)
 553:../../lpc_chip_11cxx_lib/inc/core_cm0.h **** {
 554:../../lpc_chip_11cxx_lib/inc/core_cm0.h ****   NVIC->ICPR[0] = (1 << ((uint32_t)(IRQn) & 0x1F)); /* Clear pending interrupt */
 555:../../lpc_chip_11cxx_lib/inc/core_cm0.h **** }
 556:../../lpc_chip_11cxx_lib/inc/core_cm0.h **** 
 557:../../lpc_chip_11cxx_lib/inc/core_cm0.h **** 
 558:../../lpc_chip_11cxx_lib/inc/core_cm0.h **** /** \brief  Set Interrupt Priority
 559:../../lpc_chip_11cxx_lib/inc/core_cm0.h **** 
 560:../../lpc_chip_11cxx_lib/inc/core_cm0.h ****     The function sets the priority of an interrupt.
 561:../../lpc_chip_11cxx_lib/inc/core_cm0.h **** 
 562:../../lpc_chip_11cxx_lib/inc/core_cm0.h ****     \note The priority cannot be set for every core interrupt.
 563:../../lpc_chip_11cxx_lib/inc/core_cm0.h **** 
 564:../../lpc_chip_11cxx_lib/inc/core_cm0.h ****     \param [in]      IRQn  Interrupt number.
ARM GAS  /tmp/cc3uVotH.s 			page 14


 565:../../lpc_chip_11cxx_lib/inc/core_cm0.h ****     \param [in]  priority  Priority to set.
 566:../../lpc_chip_11cxx_lib/inc/core_cm0.h ****  */
 567:../../lpc_chip_11cxx_lib/inc/core_cm0.h **** __STATIC_INLINE void NVIC_SetPriority(IRQn_Type IRQn, uint32_t priority)
 568:../../lpc_chip_11cxx_lib/inc/core_cm0.h **** {
 569:../../lpc_chip_11cxx_lib/inc/core_cm0.h ****   if(IRQn < 0) {
 570:../../lpc_chip_11cxx_lib/inc/core_cm0.h ****     SCB->SHP[_SHP_IDX(IRQn)] = (SCB->SHP[_SHP_IDX(IRQn)] & ~(0xFF << _BIT_SHIFT(IRQn))) |
 571:../../lpc_chip_11cxx_lib/inc/core_cm0.h ****         (((priority << (8 - __NVIC_PRIO_BITS)) & 0xFF) << _BIT_SHIFT(IRQn)); }
 572:../../lpc_chip_11cxx_lib/inc/core_cm0.h ****   else {
 573:../../lpc_chip_11cxx_lib/inc/core_cm0.h ****     NVIC->IP[_IP_IDX(IRQn)] = (NVIC->IP[_IP_IDX(IRQn)] & ~(0xFF << _BIT_SHIFT(IRQn))) |
 574:../../lpc_chip_11cxx_lib/inc/core_cm0.h ****         (((priority << (8 - __NVIC_PRIO_BITS)) & 0xFF) << _BIT_SHIFT(IRQn)); }
 575:../../lpc_chip_11cxx_lib/inc/core_cm0.h **** }
 576:../../lpc_chip_11cxx_lib/inc/core_cm0.h **** 
 577:../../lpc_chip_11cxx_lib/inc/core_cm0.h **** 
 578:../../lpc_chip_11cxx_lib/inc/core_cm0.h **** /** \brief  Get Interrupt Priority
 579:../../lpc_chip_11cxx_lib/inc/core_cm0.h **** 
 580:../../lpc_chip_11cxx_lib/inc/core_cm0.h ****     The function reads the priority of an interrupt. The interrupt
 581:../../lpc_chip_11cxx_lib/inc/core_cm0.h ****     number can be positive to specify an external (device specific)
 582:../../lpc_chip_11cxx_lib/inc/core_cm0.h ****     interrupt, or negative to specify an internal (core) interrupt.
 583:../../lpc_chip_11cxx_lib/inc/core_cm0.h **** 
 584:../../lpc_chip_11cxx_lib/inc/core_cm0.h **** 
 585:../../lpc_chip_11cxx_lib/inc/core_cm0.h ****     \param [in]   IRQn  Interrupt number.
 586:../../lpc_chip_11cxx_lib/inc/core_cm0.h ****     \return             Interrupt Priority. Value is aligned automatically to the implemented
 587:../../lpc_chip_11cxx_lib/inc/core_cm0.h ****                         priority bits of the microcontroller.
 588:../../lpc_chip_11cxx_lib/inc/core_cm0.h ****  */
 589:../../lpc_chip_11cxx_lib/inc/core_cm0.h **** __STATIC_INLINE uint32_t NVIC_GetPriority(IRQn_Type IRQn)
 590:../../lpc_chip_11cxx_lib/inc/core_cm0.h **** {
 591:../../lpc_chip_11cxx_lib/inc/core_cm0.h **** 
 592:../../lpc_chip_11cxx_lib/inc/core_cm0.h ****   if(IRQn < 0) {
 593:../../lpc_chip_11cxx_lib/inc/core_cm0.h ****     return((uint32_t)((SCB->SHP[_SHP_IDX(IRQn)] >> _BIT_SHIFT(IRQn) ) >> (8 - __NVIC_PRIO_BITS))); 
 594:../../lpc_chip_11cxx_lib/inc/core_cm0.h ****   else {
 595:../../lpc_chip_11cxx_lib/inc/core_cm0.h ****     return((uint32_t)((NVIC->IP[ _IP_IDX(IRQn)] >> _BIT_SHIFT(IRQn) ) >> (8 - __NVIC_PRIO_BITS))); 
 596:../../lpc_chip_11cxx_lib/inc/core_cm0.h **** }
 597:../../lpc_chip_11cxx_lib/inc/core_cm0.h **** 
 598:../../lpc_chip_11cxx_lib/inc/core_cm0.h **** 
 599:../../lpc_chip_11cxx_lib/inc/core_cm0.h **** /** \brief  System Reset
 600:../../lpc_chip_11cxx_lib/inc/core_cm0.h **** 
 601:../../lpc_chip_11cxx_lib/inc/core_cm0.h ****     The function initiates a system reset request to reset the MCU.
 602:../../lpc_chip_11cxx_lib/inc/core_cm0.h ****  */
 603:../../lpc_chip_11cxx_lib/inc/core_cm0.h **** __STATIC_INLINE void NVIC_SystemReset(void)
 604:../../lpc_chip_11cxx_lib/inc/core_cm0.h **** {
 605:../../lpc_chip_11cxx_lib/inc/core_cm0.h ****   __DSB();                                                     /* Ensure all outstanding memory acc
 606:../../lpc_chip_11cxx_lib/inc/core_cm0.h ****                                                                   buffered write are completed befo
 607:../../lpc_chip_11cxx_lib/inc/core_cm0.h ****   SCB->AIRCR  = ((0x5FA << SCB_AIRCR_VECTKEY_Pos)      |
 608:../../lpc_chip_11cxx_lib/inc/core_cm0.h ****                  SCB_AIRCR_SYSRESETREQ_Msk);
 609:../../lpc_chip_11cxx_lib/inc/core_cm0.h ****   __DSB();                                                     /* Ensure completion of memory acces
 610:../../lpc_chip_11cxx_lib/inc/core_cm0.h ****   while(1);                                                    /* wait until reset */
 611:../../lpc_chip_11cxx_lib/inc/core_cm0.h **** }
 612:../../lpc_chip_11cxx_lib/inc/core_cm0.h **** 
 613:../../lpc_chip_11cxx_lib/inc/core_cm0.h **** /*@} end of CMSIS_Core_NVICFunctions */
 614:../../lpc_chip_11cxx_lib/inc/core_cm0.h **** 
 615:../../lpc_chip_11cxx_lib/inc/core_cm0.h **** 
 616:../../lpc_chip_11cxx_lib/inc/core_cm0.h **** 
 617:../../lpc_chip_11cxx_lib/inc/core_cm0.h **** /* ##################################    SysTick function  ########################################
 618:../../lpc_chip_11cxx_lib/inc/core_cm0.h **** /** \ingroup  CMSIS_Core_FunctionInterface
 619:../../lpc_chip_11cxx_lib/inc/core_cm0.h ****     \defgroup CMSIS_Core_SysTickFunctions SysTick Functions
 620:../../lpc_chip_11cxx_lib/inc/core_cm0.h ****     \brief      Functions that configure the System.
 621:../../lpc_chip_11cxx_lib/inc/core_cm0.h ****   @{
ARM GAS  /tmp/cc3uVotH.s 			page 15


 622:../../lpc_chip_11cxx_lib/inc/core_cm0.h ****  */
 623:../../lpc_chip_11cxx_lib/inc/core_cm0.h **** 
 624:../../lpc_chip_11cxx_lib/inc/core_cm0.h **** #if (__Vendor_SysTickConfig == 0)
 625:../../lpc_chip_11cxx_lib/inc/core_cm0.h **** 
 626:../../lpc_chip_11cxx_lib/inc/core_cm0.h **** /** \brief  System Tick Configuration
 627:../../lpc_chip_11cxx_lib/inc/core_cm0.h **** 
 628:../../lpc_chip_11cxx_lib/inc/core_cm0.h ****     The function initializes the System Timer and its interrupt, and starts the System Tick Timer.
 629:../../lpc_chip_11cxx_lib/inc/core_cm0.h ****     Counter is in free running mode to generate periodic interrupts.
 630:../../lpc_chip_11cxx_lib/inc/core_cm0.h **** 
 631:../../lpc_chip_11cxx_lib/inc/core_cm0.h ****     \param [in]  ticks  Number of ticks between two interrupts.
 632:../../lpc_chip_11cxx_lib/inc/core_cm0.h **** 
 633:../../lpc_chip_11cxx_lib/inc/core_cm0.h ****     \return          0  Function succeeded.
 634:../../lpc_chip_11cxx_lib/inc/core_cm0.h ****     \return          1  Function failed.
 635:../../lpc_chip_11cxx_lib/inc/core_cm0.h **** 
 636:../../lpc_chip_11cxx_lib/inc/core_cm0.h ****     \note     When the variable <b>__Vendor_SysTickConfig</b> is set to 1, then the
 637:../../lpc_chip_11cxx_lib/inc/core_cm0.h ****     function <b>SysTick_Config</b> is not included. In this case, the file <b><i>device</i>.h</b>
 638:../../lpc_chip_11cxx_lib/inc/core_cm0.h ****     must contain a vendor-specific implementation of this function.
 639:../../lpc_chip_11cxx_lib/inc/core_cm0.h **** 
 640:../../lpc_chip_11cxx_lib/inc/core_cm0.h ****  */
 641:../../lpc_chip_11cxx_lib/inc/core_cm0.h **** __STATIC_INLINE uint32_t SysTick_Config(uint32_t ticks)
 642:../../lpc_chip_11cxx_lib/inc/core_cm0.h **** {
 643:../../lpc_chip_11cxx_lib/inc/core_cm0.h ****   if (ticks > SysTick_LOAD_RELOAD_Msk)  return (1);            /* Reload value impossible */
 644:../../lpc_chip_11cxx_lib/inc/core_cm0.h **** 
 645:../../lpc_chip_11cxx_lib/inc/core_cm0.h ****   SysTick->LOAD  = (ticks & SysTick_LOAD_RELOAD_Msk) - 1;      /* set reload register */
 135              		.loc 2 645 0
 136 001c 394A     		ldr	r2, .L18+4	@ tmp137,
 137 001e 0138     		sub	r0, r0, #1	@ D.6277,
 138 0020 5060     		str	r0, [r2, #4]	@ D.6277, MEM[(struct SysTick_Type *)3758153744B].LOAD
 139              	.LVL3:
 140              	.LBB104:
 141              	.LBB105:
 570:../../lpc_chip_11cxx_lib/inc/core_cm0.h ****         (((priority << (8 - __NVIC_PRIO_BITS)) & 0xFF) << _BIT_SHIFT(IRQn)); }
 142              		.loc 2 570 0
 143 0022 C020     		mov	r0, #192	@ tmp141,
 144 0024 3849     		ldr	r1, .L18+8	@ tmp138,
 145 0026 0006     		lsl	r0, r0, #24	@ tmp141, tmp141,
 146 0028 0B6A     		ldr	r3, [r1, #32]	@ D.6277, MEM[(struct SCB_Type *)3758157056B].SHP
 147              	.LBE105:
 148              	.LBE104:
 149              	.LBE103:
 150              	.LBE102:
 151              	.LBB113:
 152              	.LBB114:
  28:src/blink.c   **** 	Chip_GPIO_SetPinState(LPC_GPIO, port, pin, false);
 153              		.loc 1 28 0
 154 002a A025     		mov	r5, #160	@ tmp147,
 155              	.LBE114:
 156              	.LBE113:
 157              	.LBB123:
 158              	.LBB110:
 159              	.LBB108:
 160              	.LBB106:
 570:../../lpc_chip_11cxx_lib/inc/core_cm0.h ****         (((priority << (8 - __NVIC_PRIO_BITS)) & 0xFF) << _BIT_SHIFT(IRQn)); }
 161              		.loc 2 570 0
 162 002c 1B02     		lsl	r3, r3, #8	@ tmp140, D.6277,
 163 002e 1B0A     		lsr	r3, r3, #8	@ D.6277, tmp140,
 164 0030 0343     		orr	r3, r0	@ D.6277, tmp141
ARM GAS  /tmp/cc3uVotH.s 			page 16


 165              	.LBE106:
 166              	.LBE108:
 646:../../lpc_chip_11cxx_lib/inc/core_cm0.h ****   NVIC_SetPriority (SysTick_IRQn, (1<<__NVIC_PRIO_BITS) - 1);  /* set Priority for Systick Interrup
 647:../../lpc_chip_11cxx_lib/inc/core_cm0.h ****   SysTick->VAL   = 0;                                          /* Load the SysTick Counter Value */
 167              		.loc 2 647 0
 168 0032 0024     		mov	r4, #0	@ tmp144,
 169              	.LBB109:
 170              	.LBB107:
 570:../../lpc_chip_11cxx_lib/inc/core_cm0.h ****         (((priority << (8 - __NVIC_PRIO_BITS)) & 0xFF) << _BIT_SHIFT(IRQn)); }
 171              		.loc 2 570 0
 172 0034 0B62     		str	r3, [r1, #32]	@ D.6277, MEM[(struct SCB_Type *)3758157056B].SHP
 173              	.LBE107:
 174              	.LBE109:
 648:../../lpc_chip_11cxx_lib/inc/core_cm0.h ****   SysTick->CTRL  = SysTick_CTRL_CLKSOURCE_Msk |
 175              		.loc 2 648 0
 176 0036 0723     		mov	r3, #7	@ tmp146,
 177              	.LBE110:
 178              	.LBE123:
 179              	.LBB124:
 180              	.LBB119:
  28:src/blink.c   **** 	Chip_GPIO_SetPinState(LPC_GPIO, port, pin, false);
 181              		.loc 1 28 0
 182 0038 ED05     		lsl	r5, r5, #23	@ tmp147, tmp147,
 183              	.LBE119:
 184              	.LBE124:
 185              	.LBB125:
 186              	.LBB111:
 647:../../lpc_chip_11cxx_lib/inc/core_cm0.h ****   SysTick->CTRL  = SysTick_CTRL_CLKSOURCE_Msk |
 187              		.loc 2 647 0
 188 003a 9460     		str	r4, [r2, #8]	@ tmp144, MEM[(struct SysTick_Type *)3758153744B].VAL
 189              	.LBE111:
 190              	.LBE125:
 191              	.LBB126:
 192              	.LBB120:
  28:src/blink.c   **** 	Chip_GPIO_SetPinState(LPC_GPIO, port, pin, false);
 193              		.loc 1 28 0
 194 003c 281C     		mov	r0, r5	@, tmp147
 195              	.LBE120:
 196              	.LBE126:
 197              	.LBB127:
 198              	.LBB112:
 199              		.loc 2 648 0
 200 003e 1360     		str	r3, [r2]	@ tmp146, MEM[(struct SysTick_Type *)3758153744B].CTRL
 201              	.LVL4:
 202              	.LBE112:
 203              	.LBE127:
 204              	.LBB128:
 205              	.LBB121:
  28:src/blink.c   **** 	Chip_GPIO_SetPinState(LPC_GPIO, port, pin, false);
 206              		.loc 1 28 0
 207 0040 0221     		mov	r1, #2	@,
 208 0042 0822     		mov	r2, #8	@,
 209 0044 063B     		sub	r3, r3, #6	@,
 210 0046 FFF7FEFF 		bl	Chip_GPIO_WriteDirBit	@
 211              	.LVL5:
 212              	.LBB115:
 213              	.LBB116:
ARM GAS  /tmp/cc3uVotH.s 			page 17


 214              		.file 3 "../../lpc_chip_11cxx_lib/inc/gpio_11xx_2.h"
   1:../../lpc_chip_11cxx_lib/inc/gpio_11xx_2.h **** /*
   2:../../lpc_chip_11cxx_lib/inc/gpio_11xx_2.h ****  * @brief LPC11xx GPIO driver for CHIP_LPC11CXX, CHIP_LPC110X, CHIP_LPC11XXLV,
   3:../../lpc_chip_11cxx_lib/inc/gpio_11xx_2.h ****  * and CHIP_LPC1125 families only.
   4:../../lpc_chip_11cxx_lib/inc/gpio_11xx_2.h ****  *
   5:../../lpc_chip_11cxx_lib/inc/gpio_11xx_2.h ****  * @note
   6:../../lpc_chip_11cxx_lib/inc/gpio_11xx_2.h ****  * Copyright(C) NXP Semiconductors, 2013
   7:../../lpc_chip_11cxx_lib/inc/gpio_11xx_2.h ****  * All rights reserved.
   8:../../lpc_chip_11cxx_lib/inc/gpio_11xx_2.h ****  *
   9:../../lpc_chip_11cxx_lib/inc/gpio_11xx_2.h ****  * @par
  10:../../lpc_chip_11cxx_lib/inc/gpio_11xx_2.h ****  * Software that is described herein is for illustrative purposes only
  11:../../lpc_chip_11cxx_lib/inc/gpio_11xx_2.h ****  * which provides customers with programming information regarding the
  12:../../lpc_chip_11cxx_lib/inc/gpio_11xx_2.h ****  * LPC products.  This software is supplied "AS IS" without any warranties of
  13:../../lpc_chip_11cxx_lib/inc/gpio_11xx_2.h ****  * any kind, and NXP Semiconductors and its licensor disclaim any and
  14:../../lpc_chip_11cxx_lib/inc/gpio_11xx_2.h ****  * all warranties, express or implied, including all implied warranties of
  15:../../lpc_chip_11cxx_lib/inc/gpio_11xx_2.h ****  * merchantability, fitness for a particular purpose and non-infringement of
  16:../../lpc_chip_11cxx_lib/inc/gpio_11xx_2.h ****  * intellectual property rights.  NXP Semiconductors assumes no responsibility
  17:../../lpc_chip_11cxx_lib/inc/gpio_11xx_2.h ****  * or liability for the use of the software, conveys no license or rights under any
  18:../../lpc_chip_11cxx_lib/inc/gpio_11xx_2.h ****  * patent, copyright, mask work right, or any other intellectual property rights in
  19:../../lpc_chip_11cxx_lib/inc/gpio_11xx_2.h ****  * or to any products. NXP Semiconductors reserves the right to make changes
  20:../../lpc_chip_11cxx_lib/inc/gpio_11xx_2.h ****  * in the software without notification. NXP Semiconductors also makes no
  21:../../lpc_chip_11cxx_lib/inc/gpio_11xx_2.h ****  * representation or warranty that such application will be suitable for the
  22:../../lpc_chip_11cxx_lib/inc/gpio_11xx_2.h ****  * specified use without further testing or modification.
  23:../../lpc_chip_11cxx_lib/inc/gpio_11xx_2.h ****  *
  24:../../lpc_chip_11cxx_lib/inc/gpio_11xx_2.h ****  * @par
  25:../../lpc_chip_11cxx_lib/inc/gpio_11xx_2.h ****  * Permission to use, copy, modify, and distribute this software and its
  26:../../lpc_chip_11cxx_lib/inc/gpio_11xx_2.h ****  * documentation is hereby granted, under NXP Semiconductors' and its
  27:../../lpc_chip_11cxx_lib/inc/gpio_11xx_2.h ****  * licensor's relevant copyrights in the software, without fee, provided that it
  28:../../lpc_chip_11cxx_lib/inc/gpio_11xx_2.h ****  * is used in conjunction with NXP Semiconductors microcontrollers.  This
  29:../../lpc_chip_11cxx_lib/inc/gpio_11xx_2.h ****  * copyright, permission, and disclaimer notice must appear in all copies of
  30:../../lpc_chip_11cxx_lib/inc/gpio_11xx_2.h ****  * this code.
  31:../../lpc_chip_11cxx_lib/inc/gpio_11xx_2.h ****  */
  32:../../lpc_chip_11cxx_lib/inc/gpio_11xx_2.h **** 
  33:../../lpc_chip_11cxx_lib/inc/gpio_11xx_2.h **** #ifndef __GPIO_11XX_2_H_
  34:../../lpc_chip_11cxx_lib/inc/gpio_11xx_2.h **** #define __GPIO_11XX_2_H_
  35:../../lpc_chip_11cxx_lib/inc/gpio_11xx_2.h **** 
  36:../../lpc_chip_11cxx_lib/inc/gpio_11xx_2.h **** #ifdef __cplusplus
  37:../../lpc_chip_11cxx_lib/inc/gpio_11xx_2.h **** extern "C" {
  38:../../lpc_chip_11cxx_lib/inc/gpio_11xx_2.h **** #endif
  39:../../lpc_chip_11cxx_lib/inc/gpio_11xx_2.h **** 
  40:../../lpc_chip_11cxx_lib/inc/gpio_11xx_2.h **** /** @defgroup GPIO_11XX_2 CHIP: LPC11xx GPIO driver for CHIP_LPC11CXX, CHIP_LPC110X, and CHIP_LPC11
  41:../../lpc_chip_11cxx_lib/inc/gpio_11xx_2.h ****  * @ingroup CHIP_11XX_Drivers
  42:../../lpc_chip_11cxx_lib/inc/gpio_11xx_2.h ****  * For device familes identified with CHIP definitions CHIP_LPC11CXX,
  43:../../lpc_chip_11cxx_lib/inc/gpio_11xx_2.h ****  * CHIP_LPC110X, and CHIP_LPC11XXLV only.
  44:../../lpc_chip_11cxx_lib/inc/gpio_11xx_2.h ****  * @{
  45:../../lpc_chip_11cxx_lib/inc/gpio_11xx_2.h ****  */
  46:../../lpc_chip_11cxx_lib/inc/gpio_11xx_2.h **** 
  47:../../lpc_chip_11cxx_lib/inc/gpio_11xx_2.h **** #if defined(CHIP_LPC11CXX) || defined(CHIP_LPC110X) || defined(CHIP_LPC11XXLV) || defined(CHIP_LPC1
  48:../../lpc_chip_11cxx_lib/inc/gpio_11xx_2.h **** 
  49:../../lpc_chip_11cxx_lib/inc/gpio_11xx_2.h **** /**
  50:../../lpc_chip_11cxx_lib/inc/gpio_11xx_2.h ****  * @brief  GPIO port register block structure
  51:../../lpc_chip_11cxx_lib/inc/gpio_11xx_2.h ****  */
  52:../../lpc_chip_11cxx_lib/inc/gpio_11xx_2.h **** typedef struct {				/*!< GPIO_PORT Structure */
  53:../../lpc_chip_11cxx_lib/inc/gpio_11xx_2.h **** 	__IO uint32_t DATA[4096];			/*!< Offset: 0x0000 to 0x3FFC Data address masking register (R/W) */
  54:../../lpc_chip_11cxx_lib/inc/gpio_11xx_2.h **** 	uint32_t RESERVED1[4096];
  55:../../lpc_chip_11cxx_lib/inc/gpio_11xx_2.h **** 	__IO uint32_t DIR;					/*!< Offset: 0x8000 Data direction register (R/W) */
  56:../../lpc_chip_11cxx_lib/inc/gpio_11xx_2.h **** 	__IO uint32_t IS;					/*!< Offset: 0x8004 Interrupt sense register (R/W) */
ARM GAS  /tmp/cc3uVotH.s 			page 18


  57:../../lpc_chip_11cxx_lib/inc/gpio_11xx_2.h **** 	__IO uint32_t IBE;					/*!< Offset: 0x8008 Interrupt both edges register (R/W) */
  58:../../lpc_chip_11cxx_lib/inc/gpio_11xx_2.h **** 	__IO uint32_t IEV;					/*!< Offset: 0x800C Interrupt event register  (R/W) */
  59:../../lpc_chip_11cxx_lib/inc/gpio_11xx_2.h **** 	__IO uint32_t IE;					/*!< Offset: 0x8010 Interrupt mask register (R/W) */
  60:../../lpc_chip_11cxx_lib/inc/gpio_11xx_2.h **** 	__I  uint32_t RIS;					/*!< Offset: 0x8014 Raw interrupt status register (R/ ) */
  61:../../lpc_chip_11cxx_lib/inc/gpio_11xx_2.h **** 	__I  uint32_t MIS;					/*!< Offset: 0x8018 Masked interrupt status register (R/ ) */
  62:../../lpc_chip_11cxx_lib/inc/gpio_11xx_2.h **** 	__O  uint32_t IC;					/*!< Offset: 0x801C Interrupt clear register (W) */
  63:../../lpc_chip_11cxx_lib/inc/gpio_11xx_2.h **** 	uint32_t RESERVED2[8184];			/* Padding added for aligning contiguous GPIO blocks */
  64:../../lpc_chip_11cxx_lib/inc/gpio_11xx_2.h **** } LPC_GPIO_T;
  65:../../lpc_chip_11cxx_lib/inc/gpio_11xx_2.h **** 
  66:../../lpc_chip_11cxx_lib/inc/gpio_11xx_2.h **** /**
  67:../../lpc_chip_11cxx_lib/inc/gpio_11xx_2.h ****  * @brief	Initialize GPIO block
  68:../../lpc_chip_11cxx_lib/inc/gpio_11xx_2.h ****  * @param	pGPIO	: The base of GPIO peripheral on the chip
  69:../../lpc_chip_11cxx_lib/inc/gpio_11xx_2.h ****  * @return	Nothing
  70:../../lpc_chip_11cxx_lib/inc/gpio_11xx_2.h ****  */
  71:../../lpc_chip_11cxx_lib/inc/gpio_11xx_2.h **** void Chip_GPIO_Init(LPC_GPIO_T *pGPIO);
  72:../../lpc_chip_11cxx_lib/inc/gpio_11xx_2.h **** 
  73:../../lpc_chip_11cxx_lib/inc/gpio_11xx_2.h **** /**
  74:../../lpc_chip_11cxx_lib/inc/gpio_11xx_2.h ****  * @brief	De-Initialize GPIO block
  75:../../lpc_chip_11cxx_lib/inc/gpio_11xx_2.h ****  * @param	pGPIO	: The base of GPIO peripheral on the chip
  76:../../lpc_chip_11cxx_lib/inc/gpio_11xx_2.h ****  * @return	Nothing
  77:../../lpc_chip_11cxx_lib/inc/gpio_11xx_2.h ****  */
  78:../../lpc_chip_11cxx_lib/inc/gpio_11xx_2.h **** void Chip_GPIO_DeInit(LPC_GPIO_T *pGPIO);
  79:../../lpc_chip_11cxx_lib/inc/gpio_11xx_2.h **** 
  80:../../lpc_chip_11cxx_lib/inc/gpio_11xx_2.h **** /**
  81:../../lpc_chip_11cxx_lib/inc/gpio_11xx_2.h ****  * @brief	Set a GPIO port/bit state
  82:../../lpc_chip_11cxx_lib/inc/gpio_11xx_2.h ****  * @param	pGPIO	: The base of GPIO peripheral on the chip
  83:../../lpc_chip_11cxx_lib/inc/gpio_11xx_2.h ****  * @param	port	: GPIO port to set
  84:../../lpc_chip_11cxx_lib/inc/gpio_11xx_2.h ****  * @param	bit		: GPIO bit to set
  85:../../lpc_chip_11cxx_lib/inc/gpio_11xx_2.h ****  * @param	setting	: true for high, false for low
  86:../../lpc_chip_11cxx_lib/inc/gpio_11xx_2.h ****  * @return	Nothing
  87:../../lpc_chip_11cxx_lib/inc/gpio_11xx_2.h ****  */
  88:../../lpc_chip_11cxx_lib/inc/gpio_11xx_2.h **** STATIC INLINE void Chip_GPIO_WritePortBit(LPC_GPIO_T *pGPIO, uint32_t port, uint8_t bit, bool setti
  89:../../lpc_chip_11cxx_lib/inc/gpio_11xx_2.h **** {
  90:../../lpc_chip_11cxx_lib/inc/gpio_11xx_2.h **** 	pGPIO[port].DATA[1 << bit] = setting << bit;
  91:../../lpc_chip_11cxx_lib/inc/gpio_11xx_2.h **** }
  92:../../lpc_chip_11cxx_lib/inc/gpio_11xx_2.h **** 
  93:../../lpc_chip_11cxx_lib/inc/gpio_11xx_2.h **** /**
  94:../../lpc_chip_11cxx_lib/inc/gpio_11xx_2.h ****  * @brief	Set a GPIO pin state via the GPIO byte register
  95:../../lpc_chip_11cxx_lib/inc/gpio_11xx_2.h ****  * @param	pGPIO	: The base of GPIO peripheral on the chip
  96:../../lpc_chip_11cxx_lib/inc/gpio_11xx_2.h ****  * @param	port	: Port number
  97:../../lpc_chip_11cxx_lib/inc/gpio_11xx_2.h ****  * @param	pin		: GPIO pin to set
  98:../../lpc_chip_11cxx_lib/inc/gpio_11xx_2.h ****  * @param	setting	: true for high, false for low
  99:../../lpc_chip_11cxx_lib/inc/gpio_11xx_2.h ****  * @return	Nothing
 100:../../lpc_chip_11cxx_lib/inc/gpio_11xx_2.h ****  * @note	This function replaces Chip_GPIO_WritePortBit()
 101:../../lpc_chip_11cxx_lib/inc/gpio_11xx_2.h ****  */
 102:../../lpc_chip_11cxx_lib/inc/gpio_11xx_2.h **** STATIC INLINE void Chip_GPIO_SetPinState(LPC_GPIO_T *pGPIO, uint8_t port, uint8_t pin, bool setting
 103:../../lpc_chip_11cxx_lib/inc/gpio_11xx_2.h **** {
 104:../../lpc_chip_11cxx_lib/inc/gpio_11xx_2.h **** 	pGPIO[port].DATA[1 << pin] = setting << pin;
 215              		.loc 3 104 0
 216 004a 8023     		mov	r3, #128	@ tmp149,
 217 004c 2F4E     		ldr	r6, .L18+12	@ tmp148,
 218 004e DB00     		lsl	r3, r3, #3	@ tmp149, tmp149,
 219 0050 F450     		str	r4, [r6, r3]	@ tmp144, MEM[(struct LPC_GPIO_T *)1342308352B].DATA
 220              	.LVL6:
 221              	.LBE116:
 222              	.LBE115:
 223              	.LBE121:
ARM GAS  /tmp/cc3uVotH.s 			page 19


 224              	.LBE128:
 225              	.LBB129:
 226              	.LBB130:
  28:src/blink.c   **** 	Chip_GPIO_SetPinState(LPC_GPIO, port, pin, false);
 227              		.loc 1 28 0
 228 0052 281C     		mov	r0, r5	@, tmp147
 229 0054 0021     		mov	r1, #0	@,
 230 0056 0622     		mov	r2, #6	@,
 231              	.LBE130:
 232              	.LBE129:
 233              	.LBB137:
 234              	.LBB122:
 235              	.LBB118:
 236              	.LBB117:
 237              		.loc 3 104 0
 238 0058 9A46     		mov	r10, r3	@ tmp149, tmp149
 239              	.LBE117:
 240              	.LBE118:
 241              	.LBE122:
 242              	.LBE137:
 243              	.LBB138:
 244              	.LBB135:
  28:src/blink.c   **** 	Chip_GPIO_SetPinState(LPC_GPIO, port, pin, false);
 245              		.loc 1 28 0
 246 005a 0123     		mov	r3, #1	@,
 247 005c FFF7FEFF 		bl	Chip_GPIO_WriteDirBit	@
 248              	.LVL7:
 249              	.LBB131:
 250              	.LBB132:
 251              		.loc 3 104 0
 252 0060 8023     		mov	r3, #128	@ tmp153,
 253 0062 5B00     		lsl	r3, r3, #1	@ tmp153, tmp153,
 254 0064 EC50     		str	r4, [r5, r3]	@ tmp144, MEM[(struct LPC_GPIO_T *)1342177280B].DATA
 255              	.LVL8:
 256              	.LBE132:
 257              	.LBE131:
 258              	.LBE135:
 259              	.LBE138:
 260              	.LBB139:
 261              	.LBB140:
  28:src/blink.c   **** 	Chip_GPIO_SetPinState(LPC_GPIO, port, pin, false);
 262              		.loc 1 28 0
 263 0066 281C     		mov	r0, r5	@, tmp147
 264 0068 0021     		mov	r1, #0	@,
 265 006a 0722     		mov	r2, #7	@,
 266              	.LBE140:
 267              	.LBE139:
 268              	.LBB150:
 269              	.LBB136:
 270              	.LBB134:
 271              	.LBB133:
 272              		.loc 3 104 0
 273 006c 9946     		mov	r9, r3	@ tmp153, tmp153
 274              	.LBE133:
 275              	.LBE134:
 276              	.LBE136:
 277              	.LBE150:
ARM GAS  /tmp/cc3uVotH.s 			page 20


 278              	.LBB151:
 279              	.LBB147:
  28:src/blink.c   **** 	Chip_GPIO_SetPinState(LPC_GPIO, port, pin, false);
 280              		.loc 1 28 0
 281 006e FF3B     		sub	r3, r3, #255	@,
 282 0070 FFF7FEFF 		bl	Chip_GPIO_WriteDirBit	@
 283              	.LVL9:
 284              	.LBB141:
 285              	.LBB142:
 286              		.loc 3 104 0
 287 0074 8023     		mov	r3, #128	@ tmp157,
 288              	.LBE142:
 289              	.LBE141:
 290              	.LBE147:
 291              	.LBE151:
 292              	.LBB152:
 293              	.LBB153:
 294              	.LBB154:
 295              	.LBB155:
 296 0076 8027     		mov	r7, #128	@ tmp161,
 297              	.LBE155:
 298              	.LBE154:
 299              	.LBE153:
 300              	.LBE152:
 301              	.LBB162:
 302              	.LBB148:
 303              	.LBB145:
 304              	.LBB143:
 305 0078 9B00     		lsl	r3, r3, #2	@ tmp157, tmp157,
 306 007a EC50     		str	r4, [r5, r3]	@ tmp144, MEM[(struct LPC_GPIO_T *)1342177280B].DATA
 307              	.LVL10:
 308              	.LBE143:
 309              	.LBE145:
 310              	.LBE148:
 311              	.LBE162:
 312              	.LBB163:
 313              	.LBB160:
  28:src/blink.c   **** 	Chip_GPIO_SetPinState(LPC_GPIO, port, pin, false);
 314              		.loc 1 28 0
 315 007c 0922     		mov	r2, #9	@,
 316              	.LBB158:
 317              	.LBB156:
 318              		.loc 3 104 0
 319 007e 3F01     		lsl	r7, r7, #4	@ tmp161, tmp161,
 320              	.LBE156:
 321              	.LBE158:
  28:src/blink.c   **** 	Chip_GPIO_SetPinState(LPC_GPIO, port, pin, false);
 322              		.loc 1 28 0
 323 0080 281C     		mov	r0, r5	@, tmp147
 324 0082 0221     		mov	r1, #2	@,
 325              	.LBE160:
 326              	.LBE163:
 327              	.LBB164:
 328              	.LBB149:
 329              	.LBB146:
 330              	.LBB144:
 331              		.loc 3 104 0
ARM GAS  /tmp/cc3uVotH.s 			page 21


 332 0084 9846     		mov	r8, r3	@ tmp157, tmp157
 333              	.LBE144:
 334              	.LBE146:
 335              	.LBE149:
 336              	.LBE164:
 337              	.LBB165:
 338              	.LBB161:
  28:src/blink.c   **** 	Chip_GPIO_SetPinState(LPC_GPIO, port, pin, false);
 339              		.loc 1 28 0
 340 0086 0123     		mov	r3, #1	@,
 341 0088 FFF7FEFF 		bl	Chip_GPIO_WriteDirBit	@
 342              	.LVL11:
 343              	.LBB159:
 344              	.LBB157:
 345              		.loc 3 104 0
 346 008c F451     		str	r4, [r6, r7]	@ tmp144, MEM[(struct LPC_GPIO_T *)1342308352B].DATA
 347              	.LBE157:
 348              	.LBE159:
 349              	.LBE161:
 350              	.LBE165:
 351              	.LBB166:
 352              	.LBB167:
  23:src/blink.c   **** 
 353              		.loc 1 23 0
 354 008e 281C     		mov	r0, r5	@, tmp147
 355 0090 FFF7FEFF 		bl	Chip_GPIO_Init	@
 356              	.LVL12:
 357              	.LBE167:
 358              	.LBE166:
  43:src/blink.c   **** 		//Error
  44:src/blink.c   **** 		while(1);
  45:src/blink.c   **** 	}
  46:src/blink.c   **** 
  47:src/blink.c   **** 	
  48:src/blink.c   **** 
  49:src/blink.c   **** 	LED_Init(LED0);
  50:src/blink.c   **** 	LED_Init(LED1);
  51:src/blink.c   **** 	LED_Init(LED2);
  52:src/blink.c   **** 	LED_Init(LED3);
  53:src/blink.c   **** 
  54:src/blink.c   **** 	GPIO_Config();
  55:src/blink.c   **** 
  56:src/blink.c   **** 	uint8_t i = 1;
  57:src/blink.c   **** 	uint16_t delay = 500;
  58:src/blink.c   **** 
  59:src/blink.c   **** 	while(1) {
  60:src/blink.c   **** 		i = 1 - i;
 359              		.loc 1 60 0
 360 0094 0123     		mov	r3, #1	@ tmp204,
 361              	.LBB168:
 362              	.LBB169:
 363              	.LBB170:
 364              		.loc 3 104 0
 365 0096 BB46     		mov	fp, r7	@ tmp208, tmp161
 366              	.LBE170:
 367              	.LBE169:
 368              	.LBE168:
ARM GAS  /tmp/cc3uVotH.s 			page 22


 369              		.loc 1 60 0
 370 0098 9C46     		mov	ip, r3	@ tmp204, tmp204
 371              	.LBB177:
 372              	.LBB174:
 373              	.LBB171:
 374              		.loc 3 104 0
 375 009a 0027     		mov	r7, #0	@ MEM[(struct LPC_GPIO_T *)1342308352B].DATA,
 376 009c 1C4A     		ldr	r2, .L18+16	@ tmp203,
 377              	.LBE171:
 378              	.LBE174:
 379              	.LBE177:
  56:src/blink.c   **** 	uint16_t delay = 500;
 380              		.loc 1 56 0
 381 009e 0134     		add	r4, r4, #1	@ i,
 382              	.LVL13:
 383              	.L10:
 384              		.loc 1 60 0
 385 00a0 6346     		mov	r3, ip	@ tmp247, tmp204
 386 00a2 1C1B     		sub	r4, r3, r4	@ tmp166, tmp247, i
 387              	.LVL14:
 388 00a4 E4B2     		uxtb	r4, r4	@ i, tmp166
 389              	.LVL15:
 390 00a6 FA21     		mov	r1, #250	@ D.6277,
  61:src/blink.c   **** 		delay = (i) ? 500 : 250;
 391              		.loc 1 61 0
 392 00a8 002C     		cmp	r4, #0	@ i,
 393 00aa 00D0     		beq	.L5	@,
 394 00ac FA31     		add	r1, r1, #250	@ D.6277,
 395              	.L5:
 396              	.LVL16:
 397              	.LBB178:
 398              	.LBB175:
 399              	.LBB172:
 400              		.loc 3 104 0 discriminator 4
 401 00ae 5B46     		mov	r3, fp	@ tmp208, tmp208
 402              	.LBE172:
 403              	.LBE175:
 404              	.LBE178:
 405              	.LBB179:
 406              	.LBB180:
 407              	.LBB181:
 408 00b0 4846     		mov	r0, r9	@ tmp212, tmp212
 409              	.LBE181:
 410              	.LBE180:
 411              	.LBE179:
 412              	.LBB184:
 413              	.LBB176:
 414              	.LBB173:
 415 00b2 F750     		str	r7, [r6, r3]	@ MEM[(struct LPC_GPIO_T *)1342308352B].DATA, MEM[(struct LPC_GPIO_T *)1342308352
 416              	.LVL17:
 417              	.LBE173:
 418              	.LBE176:
 419              	.LBE184:
 420              	.LBB185:
 421              	.LBB183:
 422              	.LBB182:
 423 00b4 5346     		mov	r3, r10	@ tmp211, tmp211
ARM GAS  /tmp/cc3uVotH.s 			page 23


 424 00b6 F050     		str	r0, [r6, r3]	@ tmp212, MEM[(struct LPC_GPIO_T *)1342308352B].DATA
 425              	.LVL18:
 426              	.LBE182:
 427              	.LBE183:
 428              	.LBE185:
 429              	.LBB186:
 430              	.LBB187:
  18:src/blink.c   **** 	while ((msTicks - curTicks) < dlyTicks);
 431              		.loc 1 18 0 discriminator 4
 432 00b8 1068     		ldr	r0, [r2]	@ curTicks, msTicks
 433              	.LVL19:
 434              	.L6:
  19:src/blink.c   **** }
 435              		.loc 1 19 0
 436 00ba 1368     		ldr	r3, [r2]	@ D.6277, msTicks
 437 00bc 1B1A     		sub	r3, r3, r0	@ D.6277, D.6277, curTicks
 438 00be 8B42     		cmp	r3, r1	@ D.6277, D.6277
 439 00c0 FBD3     		bcc	.L6	@,
 440              	.LVL20:
 441              	.LBE187:
 442              	.LBE186:
 443              	.LBB188:
 444              	.LBB189:
 445              	.LBB190:
 446              		.loc 3 104 0
 447 00c2 5346     		mov	r3, r10	@ tmp211, tmp211
 448              	.LBE190:
 449              	.LBE189:
 450              	.LBE188:
 451              	.LBB193:
 452              	.LBB194:
 453              	.LBB195:
 454 00c4 4020     		mov	r0, #64	@ tmp253,
 455              	.LVL21:
 456              	.LBE195:
 457              	.LBE194:
 458              	.LBE193:
 459              	.LBB198:
 460              	.LBB192:
 461              	.LBB191:
 462 00c6 F750     		str	r7, [r6, r3]	@ MEM[(struct LPC_GPIO_T *)1342308352B].DATA, MEM[(struct LPC_GPIO_T *)1342308352
 463              	.LVL22:
 464              	.LBE191:
 465              	.LBE192:
 466              	.LBE198:
 467              	.LBB199:
 468              	.LBB197:
 469              	.LBB196:
 470 00c8 4B46     		mov	r3, r9	@ tmp212, tmp212
 471 00ca E850     		str	r0, [r5, r3]	@ tmp253, MEM[(struct LPC_GPIO_T *)1342177280B].DATA
 472              	.LVL23:
 473              	.LBE196:
 474              	.LBE197:
 475              	.LBE199:
 476              	.LBB200:
 477              	.LBB201:
  18:src/blink.c   **** 	while ((msTicks - curTicks) < dlyTicks);
ARM GAS  /tmp/cc3uVotH.s 			page 24


 478              		.loc 1 18 0
 479 00cc 1068     		ldr	r0, [r2]	@ curTicks, msTicks
 480              	.LVL24:
 481              	.L7:
  19:src/blink.c   **** }
 482              		.loc 1 19 0
 483 00ce 1368     		ldr	r3, [r2]	@ D.6277, msTicks
 484 00d0 1B1A     		sub	r3, r3, r0	@ D.6277, D.6277, curTicks
 485 00d2 8B42     		cmp	r3, r1	@ D.6277, D.6277
 486 00d4 FBD3     		bcc	.L7	@,
 487              	.LVL25:
 488              	.LBE201:
 489              	.LBE200:
 490              	.LBB202:
 491              	.LBB203:
 492              	.LBB204:
 493              		.loc 3 104 0
 494 00d6 4B46     		mov	r3, r9	@ tmp212, tmp212
 495              	.LBE204:
 496              	.LBE203:
 497              	.LBE202:
 498              	.LBB207:
 499              	.LBB208:
 500              	.LBB209:
 501 00d8 8020     		mov	r0, #128	@ tmp256,
 502              	.LVL26:
 503              	.LBE209:
 504              	.LBE208:
 505              	.LBE207:
 506              	.LBB212:
 507              	.LBB206:
 508              	.LBB205:
 509 00da EF50     		str	r7, [r5, r3]	@ MEM[(struct LPC_GPIO_T *)1342308352B].DATA, MEM[(struct LPC_GPIO_T *)1342177280
 510              	.LVL27:
 511              	.LBE205:
 512              	.LBE206:
 513              	.LBE212:
 514              	.LBB213:
 515              	.LBB211:
 516              	.LBB210:
 517 00dc 4346     		mov	r3, r8	@ tmp216, tmp216
 518 00de E850     		str	r0, [r5, r3]	@ tmp256, MEM[(struct LPC_GPIO_T *)1342177280B].DATA
 519              	.LVL28:
 520              	.LBE210:
 521              	.LBE211:
 522              	.LBE213:
 523              	.LBB214:
 524              	.LBB215:
  18:src/blink.c   **** 	while ((msTicks - curTicks) < dlyTicks);
 525              		.loc 1 18 0
 526 00e0 1068     		ldr	r0, [r2]	@ curTicks, msTicks
 527              	.LVL29:
 528              	.L8:
  19:src/blink.c   **** }
 529              		.loc 1 19 0
 530 00e2 1368     		ldr	r3, [r2]	@ D.6277, msTicks
 531 00e4 1B1A     		sub	r3, r3, r0	@ D.6277, D.6277, curTicks
ARM GAS  /tmp/cc3uVotH.s 			page 25


 532 00e6 8B42     		cmp	r3, r1	@ D.6277, D.6277
 533 00e8 FBD3     		bcc	.L8	@,
 534              	.LVL30:
 535              	.LBE215:
 536              	.LBE214:
 537              	.LBB216:
 538              	.LBB217:
 539              	.LBB218:
 540              		.loc 3 104 0
 541 00ea 4346     		mov	r3, r8	@ tmp216, tmp216
 542              	.LBE218:
 543              	.LBE217:
 544              	.LBE216:
 545              	.LBB221:
 546              	.LBB222:
 547              	.LBB223:
 548 00ec 4046     		mov	r0, r8	@ tmp216, tmp216
 549              	.LVL31:
 550              	.LBE223:
 551              	.LBE222:
 552              	.LBE221:
 553              	.LBB226:
 554              	.LBB220:
 555              	.LBB219:
 556 00ee EF50     		str	r7, [r5, r3]	@ MEM[(struct LPC_GPIO_T *)1342308352B].DATA, MEM[(struct LPC_GPIO_T *)1342177280
 557              	.LVL32:
 558              	.LBE219:
 559              	.LBE220:
 560              	.LBE226:
 561              	.LBB227:
 562              	.LBB225:
 563              	.LBB224:
 564 00f0 5B46     		mov	r3, fp	@ tmp208, tmp208
 565 00f2 F050     		str	r0, [r6, r3]	@ tmp216, MEM[(struct LPC_GPIO_T *)1342308352B].DATA
 566              	.LVL33:
 567              	.LBE224:
 568              	.LBE225:
 569              	.LBE227:
 570              	.LBB228:
 571              	.LBB229:
  18:src/blink.c   **** 	while ((msTicks - curTicks) < dlyTicks);
 572              		.loc 1 18 0
 573 00f4 1068     		ldr	r0, [r2]	@ curTicks, msTicks
 574              	.LVL34:
 575              	.L9:
  19:src/blink.c   **** }
 576              		.loc 1 19 0
 577 00f6 1368     		ldr	r3, [r2]	@ D.6277, msTicks
 578 00f8 1B1A     		sub	r3, r3, r0	@ D.6277, D.6277, curTicks
 579 00fa 8B42     		cmp	r3, r1	@ D.6277, D.6277
 580 00fc FBD3     		bcc	.L9	@,
 581 00fe CFE7     		b	.L10	@
 582              	.L19:
 583              		.align	2
 584              	.L18:
 585 0100 00000000 		.word	SystemCoreClock
 586 0104 10E000E0 		.word	-536813552
ARM GAS  /tmp/cc3uVotH.s 			page 26


 587 0108 00ED00E0 		.word	-536810240
 588 010c 00000250 		.word	1342308352
 589 0110 00000000 		.word	msTicks
 590              	.LBE229:
 591              	.LBE228:
 592              		.cfi_endproc
 593              	.LFE203:
 594              		.size	main, .-main
 595              		.comm	msTicks,4,4
 596              		.global	OscRateIn
 597              		.section	.rodata.OscRateIn,"a",%progbits
 598              		.align	2
 599              		.type	OscRateIn, %object
 600              		.size	OscRateIn, 4
 601              	OscRateIn:
 602 0000 001BB700 		.word	12000000
 603              		.text
 604              	.Letext0:
 605              		.file 4 "/usr/include/newlib/machine/_default_types.h"
 606              		.file 5 "/usr/include/newlib/sys/_stdint.h"
 607              		.file 6 "../../lpc_chip_11cxx_lib/inc/cmsis_11cxx.h"
 608              		.file 7 "../../lpc_chip_11cxx_lib/inc/cmsis.h"
 609              		.file 8 "../../lpc_chip_11cxx_lib/inc/chip.h"