ARM GAS  /tmp/ccqV7XwW.s 			page 1


   1              		.cpu cortex-m0
   2              		.fpu softvfp
   3              		.eabi_attribute 20, 1	@ Tag_ABI_FP_denormal
   4              		.eabi_attribute 21, 1	@ Tag_ABI_FP_exceptions
   5              		.eabi_attribute 23, 3	@ Tag_ABI_FP_number_model
   6              		.eabi_attribute 24, 1	@ Tag_ABI_align8_needed
   7              		.eabi_attribute 25, 1	@ Tag_ABI_align8_preserved
   8              		.eabi_attribute 26, 1	@ Tag_ABI_enum_size
   9              		.eabi_attribute 30, 2	@ Tag_ABI_optimization_goals
  10              		.eabi_attribute 34, 0	@ Tag_CPU_unaligned_access
  11              		.eabi_attribute 18, 4	@ Tag_ABI_PCS_wchar_t
  12              		.file	"clock_11xx.c"
  13              	@ GNU C (GNU Tools for ARM Embedded Processors) version 4.9.3 20150529 (release) [ARM/embedded-4_9-
  14              	@	compiled by GNU C version 4.8.4, GMP version 5.1.3, MPFR version 3.1.2-p3, MPC version 1.0.1
  15              	@ GGC heuristics: --param ggc-min-expand=100 --param ggc-min-heapsize=131072
  16              	@ options passed:  -I . -I ../../lpc_chip_11cxx_lib/inc -imultilib armv6-m
  17              	@ -iprefix /usr/bin/../lib/gcc/arm-none-eabi/4.9.3/
  18              	@ -isysroot /usr/bin/../arm-none-eabi -MD bin/clock_11xx.d
  19              	@ -MF bin/clock_11xx.d -MP -MQ bin/clock_11xx.o -D__USES_INITFINI__
  20              	@ -D CORE_M0 ../../lpc_chip_11cxx_lib/src/clock_11xx.c -mcpu=cortex-m0
  21              	@ -mthumb -auxbase-strip bin/clock_11xx.o -g -ggdb3 -O2 -Wall
  22              	@ -Wstrict-prototypes -Wextra -std=gnu90 -ffunction-sections
  23              	@ -fdata-sections -fverbose-asm
  24              	@ options enabled:  -faggressive-loop-optimizations -fauto-inc-dec
  25              	@ -fbranch-count-reg -fcaller-saves -fcombine-stack-adjustments -fcommon
  26              	@ -fcompare-elim -fcprop-registers -fcrossjumping -fcse-follow-jumps
  27              	@ -fdata-sections -fdefer-pop -fdelete-null-pointer-checks -fdevirtualize
  28              	@ -fdevirtualize-speculatively -fdwarf2-cfi-asm -fearly-inlining
  29              	@ -feliminate-unused-debug-types -fexpensive-optimizations
  30              	@ -fforward-propagate -ffunction-cse -ffunction-sections -fgcse -fgcse-lm
  31              	@ -fgnu-runtime -fgnu-unique -fguess-branch-probability
  32              	@ -fhoist-adjacent-loads -fident -fif-conversion -fif-conversion2
  33              	@ -findirect-inlining -finline -finline-atomics
  34              	@ -finline-functions-called-once -finline-small-functions -fipa-cp
  35              	@ -fipa-profile -fipa-pure-const -fipa-reference -fipa-sra
  36              	@ -fira-hoist-pressure -fira-share-save-slots -fira-share-spill-slots
  37              	@ -fisolate-erroneous-paths-dereference -fivopts -fkeep-static-consts
  38              	@ -fleading-underscore -flifetime-dse -fmath-errno -fmerge-constants
  39              	@ -fmerge-debug-strings -fmove-loop-invariants -fomit-frame-pointer
  40              	@ -foptimize-sibling-calls -foptimize-strlen -fpartial-inlining -fpeephole
  41              	@ -fpeephole2 -fprefetch-loop-arrays -freg-struct-return -freorder-blocks
  42              	@ -freorder-functions -frerun-cse-after-loop
  43              	@ -fsched-critical-path-heuristic -fsched-dep-count-heuristic
  44              	@ -fsched-group-heuristic -fsched-interblock -fsched-last-insn-heuristic
  45              	@ -fsched-pressure -fsched-rank-heuristic -fsched-spec
  46              	@ -fsched-spec-insn-heuristic -fsched-stalled-insns-dep -fschedule-insns2
  47              	@ -fsection-anchors -fshow-column -fshrink-wrap -fsigned-zeros
  48              	@ -fsplit-ivs-in-unroller -fsplit-wide-types -fstrict-aliasing
  49              	@ -fstrict-overflow -fstrict-volatile-bitfields -fsync-libcalls
  50              	@ -fthread-jumps -ftoplevel-reorder -ftrapping-math -ftree-bit-ccp
  51              	@ -ftree-builtin-call-dce -ftree-ccp -ftree-ch -ftree-coalesce-vars
  52              	@ -ftree-copy-prop -ftree-copyrename -ftree-cselim -ftree-dce
  53              	@ -ftree-dominator-opts -ftree-dse -ftree-forwprop -ftree-fre
  54              	@ -ftree-loop-if-convert -ftree-loop-im -ftree-loop-ivcanon
  55              	@ -ftree-loop-optimize -ftree-parallelize-loops= -ftree-phiprop -ftree-pre
  56              	@ -ftree-pta -ftree-reassoc -ftree-scev-cprop -ftree-sink -ftree-slsr
  57              	@ -ftree-sra -ftree-switch-conversion -ftree-tail-merge -ftree-ter
ARM GAS  /tmp/ccqV7XwW.s 			page 2


  58              	@ -ftree-vrp -funit-at-a-time -fvar-tracking -fvar-tracking-assignments
  59              	@ -fverbose-asm -fzero-initialized-in-bss -mlittle-endian -mlra
  60              	@ -mpic-data-is-text-relative -msched-prolog -mthumb
  61              	@ -mvectorize-with-neon-quad
  62              	
  63              		.text
  64              	.Ltext0:
  65              		.cfi_sections	.debug_frame
  66              		.section	.text.Chip_Clock_SetSystemPLLSource,"ax",%progbits
  67              		.align	2
  68              		.global	Chip_Clock_SetSystemPLLSource
  69              		.code	16
  70              		.thumb_func
  71              		.type	Chip_Clock_SetSystemPLLSource, %function
  72              	Chip_Clock_SetSystemPLLSource:
  73              	.LFB200:
  74              		.file 1 "../../lpc_chip_11cxx_lib/src/clock_11xx.c"
   1:../../lpc_chip_11cxx_lib/src/clock_11xx.c **** /*
   2:../../lpc_chip_11cxx_lib/src/clock_11xx.c ****  * @brief LPC11XX System clock control functions
   3:../../lpc_chip_11cxx_lib/src/clock_11xx.c ****  *
   4:../../lpc_chip_11cxx_lib/src/clock_11xx.c ****  * Copyright(C) NXP Semiconductors, 2012
   5:../../lpc_chip_11cxx_lib/src/clock_11xx.c ****  * All rights reserved.
   6:../../lpc_chip_11cxx_lib/src/clock_11xx.c ****  *
   7:../../lpc_chip_11cxx_lib/src/clock_11xx.c ****  * Software that is described herein is for illustrative purposes only
   8:../../lpc_chip_11cxx_lib/src/clock_11xx.c ****  * which provides customers with programming information regarding the
   9:../../lpc_chip_11cxx_lib/src/clock_11xx.c ****  * LPC products.  This software is supplied "AS IS" without any warranties of
  10:../../lpc_chip_11cxx_lib/src/clock_11xx.c ****  * any kind, and NXP Semiconductors and its licensor disclaim any and
  11:../../lpc_chip_11cxx_lib/src/clock_11xx.c ****  * all warranties, express or implied, including all implied warranties of
  12:../../lpc_chip_11cxx_lib/src/clock_11xx.c ****  * merchantability, fitness for a particular purpose and non-infringement of
  13:../../lpc_chip_11cxx_lib/src/clock_11xx.c ****  * intellectual property rights.  NXP Semiconductors assumes no responsibility
  14:../../lpc_chip_11cxx_lib/src/clock_11xx.c ****  * or liability for the use of the software, conveys no license or rights under any
  15:../../lpc_chip_11cxx_lib/src/clock_11xx.c ****  * patent, copyright, mask work right, or any other intellectual property rights in
  16:../../lpc_chip_11cxx_lib/src/clock_11xx.c ****  * or to any products. NXP Semiconductors reserves the right to make changes
  17:../../lpc_chip_11cxx_lib/src/clock_11xx.c ****  * in the software without notification. NXP Semiconductors also makes no
  18:../../lpc_chip_11cxx_lib/src/clock_11xx.c ****  * representation or warranty that such application will be suitable for the
  19:../../lpc_chip_11cxx_lib/src/clock_11xx.c ****  * specified use without further testing or modification.
  20:../../lpc_chip_11cxx_lib/src/clock_11xx.c ****  *
  21:../../lpc_chip_11cxx_lib/src/clock_11xx.c ****  * Permission to use, copy, modify, and distribute this software and its
  22:../../lpc_chip_11cxx_lib/src/clock_11xx.c ****  * documentation is hereby granted, under NXP Semiconductors' and its
  23:../../lpc_chip_11cxx_lib/src/clock_11xx.c ****  * licensor's relevant copyrights in the software, without fee, provided that it
  24:../../lpc_chip_11cxx_lib/src/clock_11xx.c ****  * is used in conjunction with NXP Semiconductors microcontrollers.  This
  25:../../lpc_chip_11cxx_lib/src/clock_11xx.c ****  * copyright, permission, and disclaimer notice must appear in all copies of
  26:../../lpc_chip_11cxx_lib/src/clock_11xx.c ****  * this code.
  27:../../lpc_chip_11cxx_lib/src/clock_11xx.c ****  */
  28:../../lpc_chip_11cxx_lib/src/clock_11xx.c **** 
  29:../../lpc_chip_11cxx_lib/src/clock_11xx.c **** #include "chip.h"
  30:../../lpc_chip_11cxx_lib/src/clock_11xx.c **** 
  31:../../lpc_chip_11cxx_lib/src/clock_11xx.c **** /*****************************************************************************
  32:../../lpc_chip_11cxx_lib/src/clock_11xx.c ****  * Private types/enumerations/variables
  33:../../lpc_chip_11cxx_lib/src/clock_11xx.c ****  ****************************************************************************/
  34:../../lpc_chip_11cxx_lib/src/clock_11xx.c **** 
  35:../../lpc_chip_11cxx_lib/src/clock_11xx.c **** /* Inprecise clock rates for the watchdog oscillator */
  36:../../lpc_chip_11cxx_lib/src/clock_11xx.c **** STATIC const uint32_t wdtOSCRate[WDTLFO_OSC_4_60 + 1] = {
  37:../../lpc_chip_11cxx_lib/src/clock_11xx.c **** 	0,					/* WDT_OSC_ILLEGAL */
  38:../../lpc_chip_11cxx_lib/src/clock_11xx.c **** 	600000,				/* WDT_OSC_0_60 */
  39:../../lpc_chip_11cxx_lib/src/clock_11xx.c **** 	1050000,			/* WDT_OSC_1_05 */
  40:../../lpc_chip_11cxx_lib/src/clock_11xx.c **** 	1400000,			/* WDT_OSC_1_40 */
ARM GAS  /tmp/ccqV7XwW.s 			page 3


  41:../../lpc_chip_11cxx_lib/src/clock_11xx.c **** 	1750000,			/* WDT_OSC_1_75 */
  42:../../lpc_chip_11cxx_lib/src/clock_11xx.c **** 	2100000,			/* WDT_OSC_2_10 */
  43:../../lpc_chip_11cxx_lib/src/clock_11xx.c **** 	2400000,			/* WDT_OSC_2_40 */
  44:../../lpc_chip_11cxx_lib/src/clock_11xx.c **** 	2700000,			/* WDT_OSC_2_70 */
  45:../../lpc_chip_11cxx_lib/src/clock_11xx.c **** 	3000000,			/* WDT_OSC_3_00 */
  46:../../lpc_chip_11cxx_lib/src/clock_11xx.c **** 	3250000,			/* WDT_OSC_3_25 */
  47:../../lpc_chip_11cxx_lib/src/clock_11xx.c **** 	3500000,			/* WDT_OSC_3_50 */
  48:../../lpc_chip_11cxx_lib/src/clock_11xx.c **** 	3750000,			/* WDT_OSC_3_75 */
  49:../../lpc_chip_11cxx_lib/src/clock_11xx.c **** 	4000000,			/* WDT_OSC_4_00 */
  50:../../lpc_chip_11cxx_lib/src/clock_11xx.c **** 	4200000,			/* WDT_OSC_4_20 */
  51:../../lpc_chip_11cxx_lib/src/clock_11xx.c **** 	4400000,			/* WDT_OSC_4_40 */
  52:../../lpc_chip_11cxx_lib/src/clock_11xx.c **** 	4600000				/* WDT_OSC_4_60 */
  53:../../lpc_chip_11cxx_lib/src/clock_11xx.c **** };
  54:../../lpc_chip_11cxx_lib/src/clock_11xx.c **** 
  55:../../lpc_chip_11cxx_lib/src/clock_11xx.c **** /*****************************************************************************
  56:../../lpc_chip_11cxx_lib/src/clock_11xx.c ****  * Public types/enumerations/variables
  57:../../lpc_chip_11cxx_lib/src/clock_11xx.c ****  ****************************************************************************/
  58:../../lpc_chip_11cxx_lib/src/clock_11xx.c **** 
  59:../../lpc_chip_11cxx_lib/src/clock_11xx.c **** /*****************************************************************************
  60:../../lpc_chip_11cxx_lib/src/clock_11xx.c ****  * Private functions
  61:../../lpc_chip_11cxx_lib/src/clock_11xx.c ****  ****************************************************************************/
  62:../../lpc_chip_11cxx_lib/src/clock_11xx.c **** 
  63:../../lpc_chip_11cxx_lib/src/clock_11xx.c **** /* Compute a WDT or LFO rate */
  64:../../lpc_chip_11cxx_lib/src/clock_11xx.c **** STATIC uint32_t Chip_Clock_GetWDTLFORate(uint32_t reg)
  65:../../lpc_chip_11cxx_lib/src/clock_11xx.c **** {
  66:../../lpc_chip_11cxx_lib/src/clock_11xx.c **** 	uint32_t div;
  67:../../lpc_chip_11cxx_lib/src/clock_11xx.c **** 	CHIP_WDTLFO_OSC_T clk;
  68:../../lpc_chip_11cxx_lib/src/clock_11xx.c **** 
  69:../../lpc_chip_11cxx_lib/src/clock_11xx.c **** 	/* Get WDT oscillator settings */
  70:../../lpc_chip_11cxx_lib/src/clock_11xx.c **** 	clk = (CHIP_WDTLFO_OSC_T) ((reg >> 5) & 0xF);
  71:../../lpc_chip_11cxx_lib/src/clock_11xx.c **** 	div = reg & 0x1F;
  72:../../lpc_chip_11cxx_lib/src/clock_11xx.c **** 
  73:../../lpc_chip_11cxx_lib/src/clock_11xx.c **** 	/* Compute clock rate and divided by divde value */
  74:../../lpc_chip_11cxx_lib/src/clock_11xx.c **** 	return wdtOSCRate[clk] / ((div + 1) << 1);
  75:../../lpc_chip_11cxx_lib/src/clock_11xx.c **** }
  76:../../lpc_chip_11cxx_lib/src/clock_11xx.c **** 
  77:../../lpc_chip_11cxx_lib/src/clock_11xx.c **** /* Compute a PLL frequency */
  78:../../lpc_chip_11cxx_lib/src/clock_11xx.c **** STATIC uint32_t Chip_Clock_GetPLLFreq(uint32_t PLLReg, uint32_t inputRate)
  79:../../lpc_chip_11cxx_lib/src/clock_11xx.c **** {
  80:../../lpc_chip_11cxx_lib/src/clock_11xx.c **** 	uint32_t msel = ((PLLReg & 0x1F) + 1);
  81:../../lpc_chip_11cxx_lib/src/clock_11xx.c **** 
  82:../../lpc_chip_11cxx_lib/src/clock_11xx.c **** 	return inputRate * msel;
  83:../../lpc_chip_11cxx_lib/src/clock_11xx.c **** }
  84:../../lpc_chip_11cxx_lib/src/clock_11xx.c **** 
  85:../../lpc_chip_11cxx_lib/src/clock_11xx.c **** /*****************************************************************************
  86:../../lpc_chip_11cxx_lib/src/clock_11xx.c ****  * Public functions
  87:../../lpc_chip_11cxx_lib/src/clock_11xx.c ****  ****************************************************************************/
  88:../../lpc_chip_11cxx_lib/src/clock_11xx.c **** 
  89:../../lpc_chip_11cxx_lib/src/clock_11xx.c **** /* Set System PLL clock source */
  90:../../lpc_chip_11cxx_lib/src/clock_11xx.c **** void Chip_Clock_SetSystemPLLSource(CHIP_SYSCTL_PLLCLKSRC_T src)
  91:../../lpc_chip_11cxx_lib/src/clock_11xx.c **** {
  75              		.loc 1 91 0
  76              		.cfi_startproc
  77              	.LVL0:
  92:../../lpc_chip_11cxx_lib/src/clock_11xx.c **** 	LPC_SYSCTL->SYSPLLCLKSEL  = (uint32_t) src;
  93:../../lpc_chip_11cxx_lib/src/clock_11xx.c **** 	LPC_SYSCTL->SYSPLLCLKUEN  = 0;
  78              		.loc 1 93 0
ARM GAS  /tmp/ccqV7XwW.s 			page 4


  79 0000 0022     		mov	r2, #0	@ tmp114,
  92:../../lpc_chip_11cxx_lib/src/clock_11xx.c **** 	LPC_SYSCTL->SYSPLLCLKSEL  = (uint32_t) src;
  80              		.loc 1 92 0
  81 0002 034B     		ldr	r3, .L2	@ tmp112,
  94:../../lpc_chip_11cxx_lib/src/clock_11xx.c **** 	LPC_SYSCTL->SYSPLLCLKUEN  = 1;
  95:../../lpc_chip_11cxx_lib/src/clock_11xx.c **** }
  82              		.loc 1 95 0
  83              		@ sp needed	@
  92:../../lpc_chip_11cxx_lib/src/clock_11xx.c **** 	LPC_SYSCTL->SYSPLLCLKSEL  = (uint32_t) src;
  84              		.loc 1 92 0
  85 0004 1864     		str	r0, [r3, #64]	@ src, MEM[(struct LPC_SYSCTL_T *)1074036736B].SYSPLLCLKSEL
  93:../../lpc_chip_11cxx_lib/src/clock_11xx.c **** 	LPC_SYSCTL->SYSPLLCLKUEN  = 1;
  86              		.loc 1 93 0
  87 0006 5A64     		str	r2, [r3, #68]	@ tmp114, MEM[(struct LPC_SYSCTL_T *)1074036736B].SYSPLLCLKUEN
  94:../../lpc_chip_11cxx_lib/src/clock_11xx.c **** 	LPC_SYSCTL->SYSPLLCLKUEN  = 1;
  88              		.loc 1 94 0
  89 0008 0132     		add	r2, r2, #1	@ tmp116,
  90 000a 5A64     		str	r2, [r3, #68]	@ tmp116, MEM[(struct LPC_SYSCTL_T *)1074036736B].SYSPLLCLKUEN
  91              		.loc 1 95 0
  92 000c 7047     		bx	lr
  93              	.L3:
  94 000e C046     		.align	2
  95              	.L2:
  96 0010 00800440 		.word	1074036736
  97              		.cfi_endproc
  98              	.LFE200:
  99              		.size	Chip_Clock_SetSystemPLLSource, .-Chip_Clock_SetSystemPLLSource
 100              		.section	.text.Chip_Clock_SetPLLBypass,"ax",%progbits
 101              		.align	2
 102              		.global	Chip_Clock_SetPLLBypass
 103              		.code	16
 104              		.thumb_func
 105              		.type	Chip_Clock_SetPLLBypass, %function
 106              	Chip_Clock_SetPLLBypass:
 107              	.LFB201:
  96:../../lpc_chip_11cxx_lib/src/clock_11xx.c **** 
  97:../../lpc_chip_11cxx_lib/src/clock_11xx.c **** /* Bypass System Oscillator and set oscillator frequency range */
  98:../../lpc_chip_11cxx_lib/src/clock_11xx.c **** void Chip_Clock_SetPLLBypass(bool bypass, bool highfr)
  99:../../lpc_chip_11cxx_lib/src/clock_11xx.c **** {
 108              		.loc 1 99 0
 109              		.cfi_startproc
 110              	.LVL1:
 100:../../lpc_chip_11cxx_lib/src/clock_11xx.c **** 	uint32_t ctrl = 0;
 101:../../lpc_chip_11cxx_lib/src/clock_11xx.c **** 
 102:../../lpc_chip_11cxx_lib/src/clock_11xx.c **** 	if (bypass) {
 103:../../lpc_chip_11cxx_lib/src/clock_11xx.c **** 		ctrl |= (1 << 0);
 104:../../lpc_chip_11cxx_lib/src/clock_11xx.c **** 	}
 105:../../lpc_chip_11cxx_lib/src/clock_11xx.c **** 	if (highfr) {
 111              		.loc 1 105 0
 112 0000 0029     		cmp	r1, #0	@ highfr,
 113 0002 01D0     		beq	.L5	@,
 106:../../lpc_chip_11cxx_lib/src/clock_11xx.c **** 		ctrl |= (1 << 1);
 114              		.loc 1 106 0
 115 0004 0223     		mov	r3, #2	@ tmp113,
 116 0006 1843     		orr	r0, r3	@ ctrl, tmp113
 117              	.LVL2:
 118              	.L5:
ARM GAS  /tmp/ccqV7XwW.s 			page 5


 107:../../lpc_chip_11cxx_lib/src/clock_11xx.c **** 	}
 108:../../lpc_chip_11cxx_lib/src/clock_11xx.c **** 
 109:../../lpc_chip_11cxx_lib/src/clock_11xx.c **** 	LPC_SYSCTL->SYSOSCCTRL = ctrl;
 119              		.loc 1 109 0
 120 0008 014B     		ldr	r3, .L10	@ tmp114,
 110:../../lpc_chip_11cxx_lib/src/clock_11xx.c **** }
 121              		.loc 1 110 0
 122              		@ sp needed	@
 109:../../lpc_chip_11cxx_lib/src/clock_11xx.c **** }
 123              		.loc 1 109 0
 124 000a 1862     		str	r0, [r3, #32]	@ ctrl, MEM[(struct LPC_SYSCTL_T *)1074036736B].SYSOSCCTRL
 125              		.loc 1 110 0
 126 000c 7047     		bx	lr
 127              	.L11:
 128 000e C046     		.align	2
 129              	.L10:
 130 0010 00800440 		.word	1074036736
 131              		.cfi_endproc
 132              	.LFE201:
 133              		.size	Chip_Clock_SetPLLBypass, .-Chip_Clock_SetPLLBypass
 134              		.section	.text.Chip_Clock_SetMainClockSource,"ax",%progbits
 135              		.align	2
 136              		.global	Chip_Clock_SetMainClockSource
 137              		.code	16
 138              		.thumb_func
 139              		.type	Chip_Clock_SetMainClockSource, %function
 140              	Chip_Clock_SetMainClockSource:
 141              	.LFB202:
 111:../../lpc_chip_11cxx_lib/src/clock_11xx.c **** 
 112:../../lpc_chip_11cxx_lib/src/clock_11xx.c **** #if defined(CHIP_LPC11UXX)
 113:../../lpc_chip_11cxx_lib/src/clock_11xx.c **** /* Set USB PLL clock source */
 114:../../lpc_chip_11cxx_lib/src/clock_11xx.c **** void Chip_Clock_SetUSBPLLSource(CHIP_SYSCTL_PLLCLKSRC_T src)
 115:../../lpc_chip_11cxx_lib/src/clock_11xx.c **** {
 116:../../lpc_chip_11cxx_lib/src/clock_11xx.c **** 	LPC_SYSCTL->USBPLLCLKSEL  = (uint32_t) src;
 117:../../lpc_chip_11cxx_lib/src/clock_11xx.c **** 	LPC_SYSCTL->USBPLLCLKUEN  = 0;
 118:../../lpc_chip_11cxx_lib/src/clock_11xx.c **** 	LPC_SYSCTL->USBPLLCLKUEN  = 1;
 119:../../lpc_chip_11cxx_lib/src/clock_11xx.c **** }
 120:../../lpc_chip_11cxx_lib/src/clock_11xx.c **** 
 121:../../lpc_chip_11cxx_lib/src/clock_11xx.c **** #endif
 122:../../lpc_chip_11cxx_lib/src/clock_11xx.c **** 
 123:../../lpc_chip_11cxx_lib/src/clock_11xx.c **** /* Set main system clock source */
 124:../../lpc_chip_11cxx_lib/src/clock_11xx.c **** void Chip_Clock_SetMainClockSource(CHIP_SYSCTL_MAINCLKSRC_T src)
 125:../../lpc_chip_11cxx_lib/src/clock_11xx.c **** {
 142              		.loc 1 125 0
 143              		.cfi_startproc
 144              	.LVL3:
 126:../../lpc_chip_11cxx_lib/src/clock_11xx.c **** 	LPC_SYSCTL->MAINCLKSEL  = (uint32_t) src;
 127:../../lpc_chip_11cxx_lib/src/clock_11xx.c **** 	LPC_SYSCTL->MAINCLKUEN  = 0;
 145              		.loc 1 127 0
 146 0000 0022     		mov	r2, #0	@ tmp114,
 126:../../lpc_chip_11cxx_lib/src/clock_11xx.c **** 	LPC_SYSCTL->MAINCLKSEL  = (uint32_t) src;
 147              		.loc 1 126 0
 148 0002 034B     		ldr	r3, .L13	@ tmp112,
 128:../../lpc_chip_11cxx_lib/src/clock_11xx.c **** 	LPC_SYSCTL->MAINCLKUEN  = 1;
 129:../../lpc_chip_11cxx_lib/src/clock_11xx.c **** }
 149              		.loc 1 129 0
 150              		@ sp needed	@
ARM GAS  /tmp/ccqV7XwW.s 			page 6


 126:../../lpc_chip_11cxx_lib/src/clock_11xx.c **** 	LPC_SYSCTL->MAINCLKSEL  = (uint32_t) src;
 151              		.loc 1 126 0
 152 0004 1867     		str	r0, [r3, #112]	@ src, MEM[(struct LPC_SYSCTL_T *)1074036736B].MAINCLKSEL
 127:../../lpc_chip_11cxx_lib/src/clock_11xx.c **** 	LPC_SYSCTL->MAINCLKUEN  = 1;
 153              		.loc 1 127 0
 154 0006 5A67     		str	r2, [r3, #116]	@ tmp114, MEM[(struct LPC_SYSCTL_T *)1074036736B].MAINCLKUEN
 128:../../lpc_chip_11cxx_lib/src/clock_11xx.c **** 	LPC_SYSCTL->MAINCLKUEN  = 1;
 155              		.loc 1 128 0
 156 0008 0132     		add	r2, r2, #1	@ tmp116,
 157 000a 5A67     		str	r2, [r3, #116]	@ tmp116, MEM[(struct LPC_SYSCTL_T *)1074036736B].MAINCLKUEN
 158              		.loc 1 129 0
 159 000c 7047     		bx	lr
 160              	.L14:
 161 000e C046     		.align	2
 162              	.L13:
 163 0010 00800440 		.word	1074036736
 164              		.cfi_endproc
 165              	.LFE202:
 166              		.size	Chip_Clock_SetMainClockSource, .-Chip_Clock_SetMainClockSource
 167              		.section	.text.Chip_Clock_SetWDTClockSource,"ax",%progbits
 168              		.align	2
 169              		.global	Chip_Clock_SetWDTClockSource
 170              		.code	16
 171              		.thumb_func
 172              		.type	Chip_Clock_SetWDTClockSource, %function
 173              	Chip_Clock_SetWDTClockSource:
 174              	.LFB203:
 130:../../lpc_chip_11cxx_lib/src/clock_11xx.c **** 
 131:../../lpc_chip_11cxx_lib/src/clock_11xx.c **** #if defined(CHIP_LPC11UXX)
 132:../../lpc_chip_11cxx_lib/src/clock_11xx.c **** /* Set USB clock source and divider */
 133:../../lpc_chip_11cxx_lib/src/clock_11xx.c **** void Chip_Clock_SetUSBClockSource(CHIP_SYSCTL_USBCLKSRC_T src, uint32_t div)
 134:../../lpc_chip_11cxx_lib/src/clock_11xx.c **** {
 135:../../lpc_chip_11cxx_lib/src/clock_11xx.c **** 	LPC_SYSCTL->USBCLKSEL = (uint32_t) src;
 136:../../lpc_chip_11cxx_lib/src/clock_11xx.c **** 	LPC_SYSCTL->USBCLKUEN = 0;
 137:../../lpc_chip_11cxx_lib/src/clock_11xx.c **** 	LPC_SYSCTL->USBCLKUEN = 1;
 138:../../lpc_chip_11cxx_lib/src/clock_11xx.c **** 	LPC_SYSCTL->USBCLKDIV = div;
 139:../../lpc_chip_11cxx_lib/src/clock_11xx.c **** }
 140:../../lpc_chip_11cxx_lib/src/clock_11xx.c **** 
 141:../../lpc_chip_11cxx_lib/src/clock_11xx.c **** #endif /*CHIP_LPC11UXX*/
 142:../../lpc_chip_11cxx_lib/src/clock_11xx.c **** 
 143:../../lpc_chip_11cxx_lib/src/clock_11xx.c **** #if defined(CHIP_LPC110X) || defined(CHIP_LPC11XXLV) || defined(CHIP_LPC11CXX) || defined(CHIP_LPC1
 144:../../lpc_chip_11cxx_lib/src/clock_11xx.c **** /* Set WDT clock source and divider */
 145:../../lpc_chip_11cxx_lib/src/clock_11xx.c **** void Chip_Clock_SetWDTClockSource(CHIP_SYSCTL_WDTCLKSRC_T src, uint32_t div)
 146:../../lpc_chip_11cxx_lib/src/clock_11xx.c **** {
 175              		.loc 1 146 0
 176              		.cfi_startproc
 177              	.LVL4:
 147:../../lpc_chip_11cxx_lib/src/clock_11xx.c **** 	LPC_SYSCTL->WDTCLKSEL = (uint32_t) src;
 178              		.loc 1 147 0
 179 0000 D022     		mov	r2, #208	@ tmp114,
 180 0002 054B     		ldr	r3, .L16	@ tmp113,
 148:../../lpc_chip_11cxx_lib/src/clock_11xx.c **** 	LPC_SYSCTL->WDTCLKUEN = 0;
 149:../../lpc_chip_11cxx_lib/src/clock_11xx.c **** 	LPC_SYSCTL->WDTCLKUEN = 1;
 150:../../lpc_chip_11cxx_lib/src/clock_11xx.c **** 	LPC_SYSCTL->WDTCLKDIV = div;
 151:../../lpc_chip_11cxx_lib/src/clock_11xx.c **** }
 181              		.loc 1 151 0
 182              		@ sp needed	@
ARM GAS  /tmp/ccqV7XwW.s 			page 7


 147:../../lpc_chip_11cxx_lib/src/clock_11xx.c **** 	LPC_SYSCTL->WDTCLKSEL = (uint32_t) src;
 183              		.loc 1 147 0
 184 0004 9850     		str	r0, [r3, r2]	@ src, MEM[(struct LPC_SYSCTL_T *)1074036736B].WDTCLKSEL
 148:../../lpc_chip_11cxx_lib/src/clock_11xx.c **** 	LPC_SYSCTL->WDTCLKUEN = 0;
 185              		.loc 1 148 0
 186 0006 0020     		mov	r0, #0	@ tmp117,
 187              	.LVL5:
 188 0008 0432     		add	r2, r2, #4	@ tmp116,
 189 000a 9850     		str	r0, [r3, r2]	@ tmp117, MEM[(struct LPC_SYSCTL_T *)1074036736B].WDTCLKUEN
 149:../../lpc_chip_11cxx_lib/src/clock_11xx.c **** 	LPC_SYSCTL->WDTCLKDIV = div;
 190              		.loc 1 149 0
 191 000c 0130     		add	r0, r0, #1	@ tmp120,
 192 000e 9850     		str	r0, [r3, r2]	@ tmp120, MEM[(struct LPC_SYSCTL_T *)1074036736B].WDTCLKUEN
 150:../../lpc_chip_11cxx_lib/src/clock_11xx.c **** }
 193              		.loc 1 150 0
 194 0010 0432     		add	r2, r2, #4	@ tmp122,
 195 0012 9950     		str	r1, [r3, r2]	@ div, MEM[(struct LPC_SYSCTL_T *)1074036736B].WDTCLKDIV
 196              		.loc 1 151 0
 197 0014 7047     		bx	lr
 198              	.L17:
 199 0016 C046     		.align	2
 200              	.L16:
 201 0018 00800440 		.word	1074036736
 202              		.cfi_endproc
 203              	.LFE203:
 204              		.size	Chip_Clock_SetWDTClockSource, .-Chip_Clock_SetWDTClockSource
 205              		.section	.text.Chip_Clock_SetCLKOUTSource,"ax",%progbits
 206              		.align	2
 207              		.global	Chip_Clock_SetCLKOUTSource
 208              		.code	16
 209              		.thumb_func
 210              		.type	Chip_Clock_SetCLKOUTSource, %function
 211              	Chip_Clock_SetCLKOUTSource:
 212              	.LFB204:
 152:../../lpc_chip_11cxx_lib/src/clock_11xx.c **** 
 153:../../lpc_chip_11cxx_lib/src/clock_11xx.c **** #endif
 154:../../lpc_chip_11cxx_lib/src/clock_11xx.c **** 
 155:../../lpc_chip_11cxx_lib/src/clock_11xx.c **** #if !defined(CHIP_LPC110X)
 156:../../lpc_chip_11cxx_lib/src/clock_11xx.c **** /* Set CLKOUT clock source and divider */
 157:../../lpc_chip_11cxx_lib/src/clock_11xx.c **** void Chip_Clock_SetCLKOUTSource(CHIP_SYSCTL_CLKOUTSRC_T src, uint32_t div)
 158:../../lpc_chip_11cxx_lib/src/clock_11xx.c **** {
 213              		.loc 1 158 0
 214              		.cfi_startproc
 215              	.LVL6:
 159:../../lpc_chip_11cxx_lib/src/clock_11xx.c **** 	LPC_SYSCTL->CLKOUTSEL = (uint32_t) src;
 216              		.loc 1 159 0
 217 0000 E022     		mov	r2, #224	@ tmp114,
 218 0002 054B     		ldr	r3, .L19	@ tmp113,
 160:../../lpc_chip_11cxx_lib/src/clock_11xx.c **** 	LPC_SYSCTL->CLKOUTUEN = 0;
 161:../../lpc_chip_11cxx_lib/src/clock_11xx.c **** 	LPC_SYSCTL->CLKOUTUEN = 1;
 162:../../lpc_chip_11cxx_lib/src/clock_11xx.c **** 	LPC_SYSCTL->CLKOUTDIV = div;
 163:../../lpc_chip_11cxx_lib/src/clock_11xx.c **** }
 219              		.loc 1 163 0
 220              		@ sp needed	@
 159:../../lpc_chip_11cxx_lib/src/clock_11xx.c **** 	LPC_SYSCTL->CLKOUTSEL = (uint32_t) src;
 221              		.loc 1 159 0
 222 0004 9850     		str	r0, [r3, r2]	@ src, MEM[(struct LPC_SYSCTL_T *)1074036736B].CLKOUTSEL
ARM GAS  /tmp/ccqV7XwW.s 			page 8


 160:../../lpc_chip_11cxx_lib/src/clock_11xx.c **** 	LPC_SYSCTL->CLKOUTUEN = 0;
 223              		.loc 1 160 0
 224 0006 0020     		mov	r0, #0	@ tmp117,
 225              	.LVL7:
 226 0008 0432     		add	r2, r2, #4	@ tmp116,
 227 000a 9850     		str	r0, [r3, r2]	@ tmp117, MEM[(struct LPC_SYSCTL_T *)1074036736B].CLKOUTUEN
 161:../../lpc_chip_11cxx_lib/src/clock_11xx.c **** 	LPC_SYSCTL->CLKOUTDIV = div;
 228              		.loc 1 161 0
 229 000c 0130     		add	r0, r0, #1	@ tmp120,
 230 000e 9850     		str	r0, [r3, r2]	@ tmp120, MEM[(struct LPC_SYSCTL_T *)1074036736B].CLKOUTUEN
 162:../../lpc_chip_11cxx_lib/src/clock_11xx.c **** }
 231              		.loc 1 162 0
 232 0010 0432     		add	r2, r2, #4	@ tmp122,
 233 0012 9950     		str	r1, [r3, r2]	@ div, MEM[(struct LPC_SYSCTL_T *)1074036736B].CLKOUTDIV
 234              		.loc 1 163 0
 235 0014 7047     		bx	lr
 236              	.L20:
 237 0016 C046     		.align	2
 238              	.L19:
 239 0018 00800440 		.word	1074036736
 240              		.cfi_endproc
 241              	.LFE204:
 242              		.size	Chip_Clock_SetCLKOUTSource, .-Chip_Clock_SetCLKOUTSource
 243              		.global	__aeabi_uidiv
 244              		.section	.text.Chip_Clock_GetWDTOSCRate,"ax",%progbits
 245              		.align	2
 246              		.global	Chip_Clock_GetWDTOSCRate
 247              		.code	16
 248              		.thumb_func
 249              		.type	Chip_Clock_GetWDTOSCRate, %function
 250              	Chip_Clock_GetWDTOSCRate:
 251              	.LFB205:
 164:../../lpc_chip_11cxx_lib/src/clock_11xx.c **** 
 165:../../lpc_chip_11cxx_lib/src/clock_11xx.c **** #endif
 166:../../lpc_chip_11cxx_lib/src/clock_11xx.c **** 
 167:../../lpc_chip_11cxx_lib/src/clock_11xx.c **** /* Return estimated watchdog oscillator rate */
 168:../../lpc_chip_11cxx_lib/src/clock_11xx.c **** uint32_t Chip_Clock_GetWDTOSCRate(void)
 169:../../lpc_chip_11cxx_lib/src/clock_11xx.c **** {
 252              		.loc 1 169 0
 253              		.cfi_startproc
 254              	.LBB32:
 255              	.LBB33:
  71:../../lpc_chip_11cxx_lib/src/clock_11xx.c **** 
 256              		.loc 1 71 0
 257 0000 1F21     		mov	r1, #31	@ tmp132,
 258              	.LBE33:
 259              	.LBE32:
 260              		.loc 1 169 0
 261 0002 08B5     		push	{r3, lr}	@
 262              		.cfi_def_cfa_offset 8
 263              		.cfi_offset 3, -8
 264              		.cfi_offset 14, -4
 170:../../lpc_chip_11cxx_lib/src/clock_11xx.c **** 	return Chip_Clock_GetWDTLFORate(LPC_SYSCTL->WDTOSCCTRL);
 265              		.loc 1 170 0
 266 0004 064B     		ldr	r3, .L22	@ tmp121,
 171:../../lpc_chip_11cxx_lib/src/clock_11xx.c **** }
 267              		.loc 1 171 0
ARM GAS  /tmp/ccqV7XwW.s 			page 9


 268              		@ sp needed	@
 170:../../lpc_chip_11cxx_lib/src/clock_11xx.c **** 	return Chip_Clock_GetWDTLFORate(LPC_SYSCTL->WDTOSCCTRL);
 269              		.loc 1 170 0
 270 0006 5B6A     		ldr	r3, [r3, #36]	@ D.6264, MEM[(struct LPC_SYSCTL_T *)1074036736B].WDTOSCCTRL
 271              	.LVL8:
 272              	.LBB35:
 273              	.LBB34:
  70:../../lpc_chip_11cxx_lib/src/clock_11xx.c **** 	div = reg & 0x1F;
 274              		.loc 1 70 0
 275 0008 DA05     		lsl	r2, r3, #23	@ tmp129, D.6264,
  71:../../lpc_chip_11cxx_lib/src/clock_11xx.c **** 
 276              		.loc 1 71 0
 277 000a 1940     		and	r1, r3	@ div, D.6264
 278              	.LVL9:
  74:../../lpc_chip_11cxx_lib/src/clock_11xx.c **** }
 279              		.loc 1 74 0
 280 000c 120F     		lsr	r2, r2, #28	@ D.6266, tmp129,
 281 000e 054B     		ldr	r3, .L22+4	@ tmp123,
 282              	.LVL10:
 283 0010 9200     		lsl	r2, r2, #2	@ tmp131, D.6266,
 284 0012 0131     		add	r1, r1, #1	@ D.6264,
 285              	.LVL11:
 286 0014 4900     		lsl	r1, r1, #1	@ D.6264, D.6264,
 287              	.LVL12:
 288 0016 D058     		ldr	r0, [r2, r3]	@, wdtOSCRate
 289 0018 FFF7FEFF 		bl	__aeabi_uidiv	@
 290              	.LVL13:
 291              	.LBE34:
 292              	.LBE35:
 293              		.loc 1 171 0
 294 001c 08BD     		pop	{r3, pc}
 295              	.L23:
 296 001e C046     		.align	2
 297              	.L22:
 298 0020 00800440 		.word	1074036736
 299 0024 00000000 		.word	.LANCHOR0
 300              		.cfi_endproc
 301              	.LFE205:
 302              		.size	Chip_Clock_GetWDTOSCRate, .-Chip_Clock_GetWDTOSCRate
 303              		.section	.text.Chip_Clock_GetSystemPLLInClockRate,"ax",%progbits
 304              		.align	2
 305              		.global	Chip_Clock_GetSystemPLLInClockRate
 306              		.code	16
 307              		.thumb_func
 308              		.type	Chip_Clock_GetSystemPLLInClockRate, %function
 309              	Chip_Clock_GetSystemPLLInClockRate:
 310              	.LFB206:
 172:../../lpc_chip_11cxx_lib/src/clock_11xx.c **** 
 173:../../lpc_chip_11cxx_lib/src/clock_11xx.c **** #if defined(CHIP_LPC11AXX)
 174:../../lpc_chip_11cxx_lib/src/clock_11xx.c **** /* Return estimated low frequency oscillator rate */
 175:../../lpc_chip_11cxx_lib/src/clock_11xx.c **** uint32_t Chip_Clock_GetLFOOSCRate(void)
 176:../../lpc_chip_11cxx_lib/src/clock_11xx.c **** {
 177:../../lpc_chip_11cxx_lib/src/clock_11xx.c **** 	return Chip_Clock_GetWDTLFORate(LPC_SYSCTL->LFOSCCTRL);
 178:../../lpc_chip_11cxx_lib/src/clock_11xx.c **** }
 179:../../lpc_chip_11cxx_lib/src/clock_11xx.c **** 
 180:../../lpc_chip_11cxx_lib/src/clock_11xx.c **** #endif
 181:../../lpc_chip_11cxx_lib/src/clock_11xx.c **** 
ARM GAS  /tmp/ccqV7XwW.s 			page 10


 182:../../lpc_chip_11cxx_lib/src/clock_11xx.c **** /* Return System PLL input clock rate */
 183:../../lpc_chip_11cxx_lib/src/clock_11xx.c **** uint32_t Chip_Clock_GetSystemPLLInClockRate(void)
 184:../../lpc_chip_11cxx_lib/src/clock_11xx.c **** {
 311              		.loc 1 184 0
 312              		.cfi_startproc
 185:../../lpc_chip_11cxx_lib/src/clock_11xx.c **** 	uint32_t clkRate;
 186:../../lpc_chip_11cxx_lib/src/clock_11xx.c **** 
 187:../../lpc_chip_11cxx_lib/src/clock_11xx.c **** 	switch ((CHIP_SYSCTL_PLLCLKSRC_T) (LPC_SYSCTL->SYSPLLCLKSEL & 0x3)) {
 313              		.loc 1 187 0
 314 0000 064B     		ldr	r3, .L30	@ tmp116,
 315 0002 1A6C     		ldr	r2, [r3, #64]	@ D.6273, MEM[(struct LPC_SYSCTL_T *)1074036736B].SYSPLLCLKSEL
 316 0004 0323     		mov	r3, #3	@ tmp119,
 317 0006 1340     		and	r3, r2	@ D.6274, D.6273
 318 0008 06D0     		beq	.L28	@,
 188:../../lpc_chip_11cxx_lib/src/clock_11xx.c **** 	case SYSCTL_PLLCLKSRC_IRC:
 189:../../lpc_chip_11cxx_lib/src/clock_11xx.c **** 		clkRate = Chip_Clock_GetIntOscRate();
 190:../../lpc_chip_11cxx_lib/src/clock_11xx.c **** 		break;
 191:../../lpc_chip_11cxx_lib/src/clock_11xx.c **** 
 192:../../lpc_chip_11cxx_lib/src/clock_11xx.c **** 	case SYSCTL_PLLCLKSRC_MAINOSC:
 193:../../lpc_chip_11cxx_lib/src/clock_11xx.c **** 		clkRate = Chip_Clock_GetMainOscRate();
 194:../../lpc_chip_11cxx_lib/src/clock_11xx.c **** 		break;
 195:../../lpc_chip_11cxx_lib/src/clock_11xx.c **** 
 196:../../lpc_chip_11cxx_lib/src/clock_11xx.c **** #if defined(CHIP_LPC11AXX)
 197:../../lpc_chip_11cxx_lib/src/clock_11xx.c **** 	case SYSCTL_PLLCLKSRC_EXT_CLKIN:
 198:../../lpc_chip_11cxx_lib/src/clock_11xx.c **** 		clkRate = Chip_Clock_GetExtClockInRate();
 199:../../lpc_chip_11cxx_lib/src/clock_11xx.c **** 		break;
 200:../../lpc_chip_11cxx_lib/src/clock_11xx.c **** #endif
 201:../../lpc_chip_11cxx_lib/src/clock_11xx.c **** 
 202:../../lpc_chip_11cxx_lib/src/clock_11xx.c **** 	default:
 203:../../lpc_chip_11cxx_lib/src/clock_11xx.c **** 		clkRate = 0;
 319              		.loc 1 203 0
 320 000a 0020     		mov	r0, #0	@ clkRate,
 187:../../lpc_chip_11cxx_lib/src/clock_11xx.c **** 	case SYSCTL_PLLCLKSRC_IRC:
 321              		.loc 1 187 0
 322 000c 012B     		cmp	r3, #1	@ D.6274,
 323 000e 00D0     		beq	.L29	@,
 324              	.L26:
 325              	.LVL14:
 204:../../lpc_chip_11cxx_lib/src/clock_11xx.c **** 	}
 205:../../lpc_chip_11cxx_lib/src/clock_11xx.c **** 
 206:../../lpc_chip_11cxx_lib/src/clock_11xx.c **** 	return clkRate;
 207:../../lpc_chip_11cxx_lib/src/clock_11xx.c **** }
 326              		.loc 1 207 0
 327              		@ sp needed	@
 328 0010 7047     		bx	lr
 329              	.LVL15:
 330              	.L29:
 331              	.LBB36:
 332              	.LBB37:
 333              		.file 2 "../../lpc_chip_11cxx_lib/inc/clock_11xx.h"
   1:../../lpc_chip_11cxx_lib/inc/clock_11xx.h **** /*
   2:../../lpc_chip_11cxx_lib/inc/clock_11xx.h ****  * @brief LPC11XX Clock control functions
   3:../../lpc_chip_11cxx_lib/inc/clock_11xx.h ****  *
   4:../../lpc_chip_11cxx_lib/inc/clock_11xx.h ****  * @note
   5:../../lpc_chip_11cxx_lib/inc/clock_11xx.h ****  * Copyright(C) NXP Semiconductors, 2012
   6:../../lpc_chip_11cxx_lib/inc/clock_11xx.h ****  * All rights reserved.
   7:../../lpc_chip_11cxx_lib/inc/clock_11xx.h ****  *
ARM GAS  /tmp/ccqV7XwW.s 			page 11


   8:../../lpc_chip_11cxx_lib/inc/clock_11xx.h ****  * @par
   9:../../lpc_chip_11cxx_lib/inc/clock_11xx.h ****  * Software that is described herein is for illustrative purposes only
  10:../../lpc_chip_11cxx_lib/inc/clock_11xx.h ****  * which provides customers with programming information regarding the
  11:../../lpc_chip_11cxx_lib/inc/clock_11xx.h ****  * LPC products.  This software is supplied "AS IS" without any warranties of
  12:../../lpc_chip_11cxx_lib/inc/clock_11xx.h ****  * any kind, and NXP Semiconductors and its licensor disclaim any and
  13:../../lpc_chip_11cxx_lib/inc/clock_11xx.h ****  * all warranties, express or implied, including all implied warranties of
  14:../../lpc_chip_11cxx_lib/inc/clock_11xx.h ****  * merchantability, fitness for a particular purpose and non-infringement of
  15:../../lpc_chip_11cxx_lib/inc/clock_11xx.h ****  * intellectual property rights.  NXP Semiconductors assumes no responsibility
  16:../../lpc_chip_11cxx_lib/inc/clock_11xx.h ****  * or liability for the use of the software, conveys no license or rights under any
  17:../../lpc_chip_11cxx_lib/inc/clock_11xx.h ****  * patent, copyright, mask work right, or any other intellectual property rights in
  18:../../lpc_chip_11cxx_lib/inc/clock_11xx.h ****  * or to any products. NXP Semiconductors reserves the right to make changes
  19:../../lpc_chip_11cxx_lib/inc/clock_11xx.h ****  * in the software without notification. NXP Semiconductors also makes no
  20:../../lpc_chip_11cxx_lib/inc/clock_11xx.h ****  * representation or warranty that such application will be suitable for the
  21:../../lpc_chip_11cxx_lib/inc/clock_11xx.h ****  * specified use without further testing or modification.
  22:../../lpc_chip_11cxx_lib/inc/clock_11xx.h ****  *
  23:../../lpc_chip_11cxx_lib/inc/clock_11xx.h ****  * @par
  24:../../lpc_chip_11cxx_lib/inc/clock_11xx.h ****  * Permission to use, copy, modify, and distribute this software and its
  25:../../lpc_chip_11cxx_lib/inc/clock_11xx.h ****  * documentation is hereby granted, under NXP Semiconductors' and its
  26:../../lpc_chip_11cxx_lib/inc/clock_11xx.h ****  * licensor's relevant copyrights in the software, without fee, provided that it
  27:../../lpc_chip_11cxx_lib/inc/clock_11xx.h ****  * is used in conjunction with NXP Semiconductors microcontrollers.  This
  28:../../lpc_chip_11cxx_lib/inc/clock_11xx.h ****  * copyright, permission, and disclaimer notice must appear in all copies of
  29:../../lpc_chip_11cxx_lib/inc/clock_11xx.h ****  * this code.
  30:../../lpc_chip_11cxx_lib/inc/clock_11xx.h ****  */
  31:../../lpc_chip_11cxx_lib/inc/clock_11xx.h **** 
  32:../../lpc_chip_11cxx_lib/inc/clock_11xx.h **** #ifndef __CLOCK_11XX_H_
  33:../../lpc_chip_11cxx_lib/inc/clock_11xx.h **** #define __CLOCK_11XX_H_
  34:../../lpc_chip_11cxx_lib/inc/clock_11xx.h **** 
  35:../../lpc_chip_11cxx_lib/inc/clock_11xx.h **** #ifdef __cplusplus
  36:../../lpc_chip_11cxx_lib/inc/clock_11xx.h **** extern "C" {
  37:../../lpc_chip_11cxx_lib/inc/clock_11xx.h **** #endif
  38:../../lpc_chip_11cxx_lib/inc/clock_11xx.h **** 
  39:../../lpc_chip_11cxx_lib/inc/clock_11xx.h **** /** @defgroup CLOCK_11XX CHIP: LPC11xx Clock Control block driver
  40:../../lpc_chip_11cxx_lib/inc/clock_11xx.h ****  * @ingroup CHIP_11XX_Drivers
  41:../../lpc_chip_11cxx_lib/inc/clock_11xx.h ****  * @{
  42:../../lpc_chip_11cxx_lib/inc/clock_11xx.h ****  */
  43:../../lpc_chip_11cxx_lib/inc/clock_11xx.h **** 
  44:../../lpc_chip_11cxx_lib/inc/clock_11xx.h **** /** Internal oscillator frequency */
  45:../../lpc_chip_11cxx_lib/inc/clock_11xx.h **** #define SYSCTL_IRC_FREQ (12000000)
  46:../../lpc_chip_11cxx_lib/inc/clock_11xx.h **** 
  47:../../lpc_chip_11cxx_lib/inc/clock_11xx.h **** /**
  48:../../lpc_chip_11cxx_lib/inc/clock_11xx.h ****  * @brief	Set System PLL divider values
  49:../../lpc_chip_11cxx_lib/inc/clock_11xx.h ****  * @param	msel    : PLL feedback divider value. M = msel + 1.
  50:../../lpc_chip_11cxx_lib/inc/clock_11xx.h ****  * @param	psel    : PLL post divider value. P =  (1<<psel).
  51:../../lpc_chip_11cxx_lib/inc/clock_11xx.h ****  * @return	Nothing
  52:../../lpc_chip_11cxx_lib/inc/clock_11xx.h ****  * @note	See the user manual for how to setup the PLL.
  53:../../lpc_chip_11cxx_lib/inc/clock_11xx.h ****  */
  54:../../lpc_chip_11cxx_lib/inc/clock_11xx.h **** STATIC INLINE void Chip_Clock_SetupSystemPLL(uint8_t msel, uint8_t psel)
  55:../../lpc_chip_11cxx_lib/inc/clock_11xx.h **** {
  56:../../lpc_chip_11cxx_lib/inc/clock_11xx.h **** 	LPC_SYSCTL->SYSPLLCTRL = (msel & 0x1F) | ((psel & 0x3) << 5);
  57:../../lpc_chip_11cxx_lib/inc/clock_11xx.h **** }
  58:../../lpc_chip_11cxx_lib/inc/clock_11xx.h **** 
  59:../../lpc_chip_11cxx_lib/inc/clock_11xx.h **** /**
  60:../../lpc_chip_11cxx_lib/inc/clock_11xx.h ****  * @brief	Read System PLL lock status
  61:../../lpc_chip_11cxx_lib/inc/clock_11xx.h ****  * @return	true of the PLL is locked. false if not locked
  62:../../lpc_chip_11cxx_lib/inc/clock_11xx.h ****  */
  63:../../lpc_chip_11cxx_lib/inc/clock_11xx.h **** STATIC INLINE bool Chip_Clock_IsSystemPLLLocked(void)
  64:../../lpc_chip_11cxx_lib/inc/clock_11xx.h **** {
ARM GAS  /tmp/ccqV7XwW.s 			page 12


  65:../../lpc_chip_11cxx_lib/inc/clock_11xx.h **** 	return (bool) ((LPC_SYSCTL->SYSPLLSTAT & 1) != 0);
  66:../../lpc_chip_11cxx_lib/inc/clock_11xx.h **** }
  67:../../lpc_chip_11cxx_lib/inc/clock_11xx.h **** 
  68:../../lpc_chip_11cxx_lib/inc/clock_11xx.h **** /**
  69:../../lpc_chip_11cxx_lib/inc/clock_11xx.h ****  * Clock sources for system and USB PLLs
  70:../../lpc_chip_11cxx_lib/inc/clock_11xx.h ****  */
  71:../../lpc_chip_11cxx_lib/inc/clock_11xx.h **** typedef enum CHIP_SYSCTL_PLLCLKSRC {
  72:../../lpc_chip_11cxx_lib/inc/clock_11xx.h **** 	SYSCTL_PLLCLKSRC_IRC = 0,		/*!< Internal oscillator in */
  73:../../lpc_chip_11cxx_lib/inc/clock_11xx.h **** 	SYSCTL_PLLCLKSRC_MAINOSC,		/*!< Crystal (main) oscillator in */
  74:../../lpc_chip_11cxx_lib/inc/clock_11xx.h **** #if defined(CHIP_LPC11AXX)
  75:../../lpc_chip_11cxx_lib/inc/clock_11xx.h **** 	SYSCTL_PLLCLKSRC_EXT_CLKIN,	/*!< External clock in (11Axx only) */
  76:../../lpc_chip_11cxx_lib/inc/clock_11xx.h **** #else
  77:../../lpc_chip_11cxx_lib/inc/clock_11xx.h **** 	SYSCTL_PLLCLKSRC_RESERVED1,	/*!< Reserved */
  78:../../lpc_chip_11cxx_lib/inc/clock_11xx.h **** #endif
  79:../../lpc_chip_11cxx_lib/inc/clock_11xx.h **** 	SYSCTL_PLLCLKSRC_RESERVED2,	/*!< Reserved */
  80:../../lpc_chip_11cxx_lib/inc/clock_11xx.h **** } CHIP_SYSCTL_PLLCLKSRC_T;
  81:../../lpc_chip_11cxx_lib/inc/clock_11xx.h **** 
  82:../../lpc_chip_11cxx_lib/inc/clock_11xx.h **** /**
  83:../../lpc_chip_11cxx_lib/inc/clock_11xx.h ****  * @brief	Set System PLL clock source
  84:../../lpc_chip_11cxx_lib/inc/clock_11xx.h ****  * @param	src	: Clock source for system PLL
  85:../../lpc_chip_11cxx_lib/inc/clock_11xx.h ****  * @return	Nothing
  86:../../lpc_chip_11cxx_lib/inc/clock_11xx.h ****  * @note	This function will also toggle the clock source update register
  87:../../lpc_chip_11cxx_lib/inc/clock_11xx.h ****  * to update the clock source.
  88:../../lpc_chip_11cxx_lib/inc/clock_11xx.h ****  */
  89:../../lpc_chip_11cxx_lib/inc/clock_11xx.h **** void Chip_Clock_SetSystemPLLSource(CHIP_SYSCTL_PLLCLKSRC_T src);
  90:../../lpc_chip_11cxx_lib/inc/clock_11xx.h **** 
  91:../../lpc_chip_11cxx_lib/inc/clock_11xx.h **** #if defined(CHIP_LPC11UXX)
  92:../../lpc_chip_11cxx_lib/inc/clock_11xx.h **** /**
  93:../../lpc_chip_11cxx_lib/inc/clock_11xx.h ****  * @brief	Set USB PLL divider values
  94:../../lpc_chip_11cxx_lib/inc/clock_11xx.h ****  * @param	msel    : PLL feedback divider value. M = msel + 1.
  95:../../lpc_chip_11cxx_lib/inc/clock_11xx.h ****  * @param	psel    : PLL post divider value. P = (1<<psel).
  96:../../lpc_chip_11cxx_lib/inc/clock_11xx.h ****  * @return	Nothing
  97:../../lpc_chip_11cxx_lib/inc/clock_11xx.h ****  * @note	See the user manual for how to setup the PLL.
  98:../../lpc_chip_11cxx_lib/inc/clock_11xx.h ****  */
  99:../../lpc_chip_11cxx_lib/inc/clock_11xx.h **** STATIC INLINE void Chip_Clock_SetupUSBPLL(uint8_t msel, uint8_t psel)
 100:../../lpc_chip_11cxx_lib/inc/clock_11xx.h **** {
 101:../../lpc_chip_11cxx_lib/inc/clock_11xx.h **** 	LPC_SYSCTL->USBPLLCTRL = (msel & 0x1F) | ((psel & 0x3) << 5);
 102:../../lpc_chip_11cxx_lib/inc/clock_11xx.h **** }
 103:../../lpc_chip_11cxx_lib/inc/clock_11xx.h **** 
 104:../../lpc_chip_11cxx_lib/inc/clock_11xx.h **** /**
 105:../../lpc_chip_11cxx_lib/inc/clock_11xx.h ****  * @brief	Read USB PLL lock status
 106:../../lpc_chip_11cxx_lib/inc/clock_11xx.h ****  * @return	true of the PLL is locked. false if not locked
 107:../../lpc_chip_11cxx_lib/inc/clock_11xx.h ****  */
 108:../../lpc_chip_11cxx_lib/inc/clock_11xx.h **** STATIC INLINE bool Chip_Clock_IsUSBPLLLocked(void)
 109:../../lpc_chip_11cxx_lib/inc/clock_11xx.h **** {
 110:../../lpc_chip_11cxx_lib/inc/clock_11xx.h **** 	return (bool) ((LPC_SYSCTL->USBPLLSTAT & 1) != 0);
 111:../../lpc_chip_11cxx_lib/inc/clock_11xx.h **** }
 112:../../lpc_chip_11cxx_lib/inc/clock_11xx.h **** 
 113:../../lpc_chip_11cxx_lib/inc/clock_11xx.h **** /**
 114:../../lpc_chip_11cxx_lib/inc/clock_11xx.h ****  * @brief	Set USB PLL clock source
 115:../../lpc_chip_11cxx_lib/inc/clock_11xx.h ****  * @param	src	: Clock source for USB PLL
 116:../../lpc_chip_11cxx_lib/inc/clock_11xx.h ****  * @return	Nothing
 117:../../lpc_chip_11cxx_lib/inc/clock_11xx.h ****  * @note	This function will also toggle the clock source update register
 118:../../lpc_chip_11cxx_lib/inc/clock_11xx.h ****  * to update the clock source.
 119:../../lpc_chip_11cxx_lib/inc/clock_11xx.h ****  */
 120:../../lpc_chip_11cxx_lib/inc/clock_11xx.h **** void Chip_Clock_SetUSBPLLSource(CHIP_SYSCTL_PLLCLKSRC_T src);
 121:../../lpc_chip_11cxx_lib/inc/clock_11xx.h **** 
ARM GAS  /tmp/ccqV7XwW.s 			page 13


 122:../../lpc_chip_11cxx_lib/inc/clock_11xx.h **** #endif /*defined(CHIP_LPC11UXX)*/
 123:../../lpc_chip_11cxx_lib/inc/clock_11xx.h **** 
 124:../../lpc_chip_11cxx_lib/inc/clock_11xx.h **** /**
 125:../../lpc_chip_11cxx_lib/inc/clock_11xx.h ****  * @brief	Bypass System Oscillator and set oscillator frequency range
 126:../../lpc_chip_11cxx_lib/inc/clock_11xx.h ****  * @param	bypass	: Flag to bypass oscillator
 127:../../lpc_chip_11cxx_lib/inc/clock_11xx.h ****  * @param	highfr	: Flag to set oscillator range from 15-25 MHz
 128:../../lpc_chip_11cxx_lib/inc/clock_11xx.h ****  * @return	Nothing
 129:../../lpc_chip_11cxx_lib/inc/clock_11xx.h ****  * @note	Sets the PLL input to bypass the oscillator. This would be
 130:../../lpc_chip_11cxx_lib/inc/clock_11xx.h ****  * used if an external clock that is not an oscillator is attached
 131:../../lpc_chip_11cxx_lib/inc/clock_11xx.h ****  * to the XTALIN pin.
 132:../../lpc_chip_11cxx_lib/inc/clock_11xx.h ****  */
 133:../../lpc_chip_11cxx_lib/inc/clock_11xx.h **** void Chip_Clock_SetPLLBypass(bool bypass, bool highfr);
 134:../../lpc_chip_11cxx_lib/inc/clock_11xx.h **** 
 135:../../lpc_chip_11cxx_lib/inc/clock_11xx.h **** /**
 136:../../lpc_chip_11cxx_lib/inc/clock_11xx.h ****  * Watchdog and low frequency oscillator frequencies plus or minus 40%
 137:../../lpc_chip_11cxx_lib/inc/clock_11xx.h ****  */
 138:../../lpc_chip_11cxx_lib/inc/clock_11xx.h **** typedef enum CHIP_WDTLFO_OSC {
 139:../../lpc_chip_11cxx_lib/inc/clock_11xx.h **** 	WDTLFO_OSC_ILLEGAL,
 140:../../lpc_chip_11cxx_lib/inc/clock_11xx.h **** 	WDTLFO_OSC_0_60,	/*!< 0.6 MHz watchdog/LFO rate */
 141:../../lpc_chip_11cxx_lib/inc/clock_11xx.h **** 	WDTLFO_OSC_1_05,	/*!< 1.05 MHz watchdog/LFO rate */
 142:../../lpc_chip_11cxx_lib/inc/clock_11xx.h **** 	WDTLFO_OSC_1_40,	/*!< 1.4 MHz watchdog/LFO rate */
 143:../../lpc_chip_11cxx_lib/inc/clock_11xx.h **** 	WDTLFO_OSC_1_75,	/*!< 1.75 MHz watchdog/LFO rate */
 144:../../lpc_chip_11cxx_lib/inc/clock_11xx.h **** 	WDTLFO_OSC_2_10,	/*!< 2.1 MHz watchdog/LFO rate */
 145:../../lpc_chip_11cxx_lib/inc/clock_11xx.h **** 	WDTLFO_OSC_2_40,	/*!< 2.4 MHz watchdog/LFO rate */
 146:../../lpc_chip_11cxx_lib/inc/clock_11xx.h **** 	WDTLFO_OSC_2_70,	/*!< 2.7 MHz watchdog/LFO rate */
 147:../../lpc_chip_11cxx_lib/inc/clock_11xx.h **** 	WDTLFO_OSC_3_00,	/*!< 3.0 MHz watchdog/LFO rate */
 148:../../lpc_chip_11cxx_lib/inc/clock_11xx.h **** 	WDTLFO_OSC_3_25,	/*!< 3.25 MHz watchdog/LFO rate */
 149:../../lpc_chip_11cxx_lib/inc/clock_11xx.h **** 	WDTLFO_OSC_3_50,	/*!< 3.5 MHz watchdog/LFO rate */
 150:../../lpc_chip_11cxx_lib/inc/clock_11xx.h **** 	WDTLFO_OSC_3_75,	/*!< 3.75 MHz watchdog/LFO rate */
 151:../../lpc_chip_11cxx_lib/inc/clock_11xx.h **** 	WDTLFO_OSC_4_00,	/*!< 4.0 MHz watchdog/LFO rate */
 152:../../lpc_chip_11cxx_lib/inc/clock_11xx.h **** 	WDTLFO_OSC_4_20,	/*!< 4.2 MHz watchdog/LFO rate */
 153:../../lpc_chip_11cxx_lib/inc/clock_11xx.h **** 	WDTLFO_OSC_4_40,	/*!< 4.4 MHz watchdog/LFO rate */
 154:../../lpc_chip_11cxx_lib/inc/clock_11xx.h **** 	WDTLFO_OSC_4_60		/*!< 4.6 MHz watchdog/LFO rate */
 155:../../lpc_chip_11cxx_lib/inc/clock_11xx.h **** } CHIP_WDTLFO_OSC_T;
 156:../../lpc_chip_11cxx_lib/inc/clock_11xx.h **** 
 157:../../lpc_chip_11cxx_lib/inc/clock_11xx.h **** /**
 158:../../lpc_chip_11cxx_lib/inc/clock_11xx.h ****  * @brief	Setup Watchdog oscillator rate and divider
 159:../../lpc_chip_11cxx_lib/inc/clock_11xx.h ****  * @param	wdtclk	: Selected watchdog clock rate
 160:../../lpc_chip_11cxx_lib/inc/clock_11xx.h ****  * @param	div		: Watchdog divider value, even value between 2 and 64
 161:../../lpc_chip_11cxx_lib/inc/clock_11xx.h ****  * @return	Nothing
 162:../../lpc_chip_11cxx_lib/inc/clock_11xx.h ****  * @note	Watchdog rate = selected rate divided by divider rate
 163:../../lpc_chip_11cxx_lib/inc/clock_11xx.h ****  */
 164:../../lpc_chip_11cxx_lib/inc/clock_11xx.h **** STATIC INLINE void Chip_Clock_SetWDTOSC(CHIP_WDTLFO_OSC_T wdtclk, uint8_t div)
 165:../../lpc_chip_11cxx_lib/inc/clock_11xx.h **** {
 166:../../lpc_chip_11cxx_lib/inc/clock_11xx.h **** 	LPC_SYSCTL->WDTOSCCTRL  = (((uint32_t) wdtclk) << 5) | ((div >> 1) - 1);
 167:../../lpc_chip_11cxx_lib/inc/clock_11xx.h **** }
 168:../../lpc_chip_11cxx_lib/inc/clock_11xx.h **** 
 169:../../lpc_chip_11cxx_lib/inc/clock_11xx.h **** #if defined(CHIP_LPC11AXX)
 170:../../lpc_chip_11cxx_lib/inc/clock_11xx.h **** /**
 171:../../lpc_chip_11cxx_lib/inc/clock_11xx.h ****  * @brief	Setup low frequency oscillator rate and divider
 172:../../lpc_chip_11cxx_lib/inc/clock_11xx.h ****  * @param	lfoclk	: Selected low frequency clock rate
 173:../../lpc_chip_11cxx_lib/inc/clock_11xx.h ****  * @param	div		: Low frequency divider value, even value between 2 and 64
 174:../../lpc_chip_11cxx_lib/inc/clock_11xx.h ****  * @return	Nothing
 175:../../lpc_chip_11cxx_lib/inc/clock_11xx.h ****  * @note	Low frequency oscillator rate = selected rate divided by divider rate
 176:../../lpc_chip_11cxx_lib/inc/clock_11xx.h ****  */
 177:../../lpc_chip_11cxx_lib/inc/clock_11xx.h **** STATIC INLINE void Chip_Clock_SetLFOSC(CHIP_WDTLFO_OSC_T lfoclk, uint8_t div)
 178:../../lpc_chip_11cxx_lib/inc/clock_11xx.h **** {
ARM GAS  /tmp/ccqV7XwW.s 			page 14


 179:../../lpc_chip_11cxx_lib/inc/clock_11xx.h **** 	LPC_SYSCTL->LFOSCCTRL  = (((uint32_t) lfoclk) << 5) | ((div >> 1) - 1);
 180:../../lpc_chip_11cxx_lib/inc/clock_11xx.h **** }
 181:../../lpc_chip_11cxx_lib/inc/clock_11xx.h **** 
 182:../../lpc_chip_11cxx_lib/inc/clock_11xx.h **** #endif /*CHIP_LPC11AXX*/
 183:../../lpc_chip_11cxx_lib/inc/clock_11xx.h **** 
 184:../../lpc_chip_11cxx_lib/inc/clock_11xx.h **** /**
 185:../../lpc_chip_11cxx_lib/inc/clock_11xx.h ****  * Clock sources for main system clock
 186:../../lpc_chip_11cxx_lib/inc/clock_11xx.h ****  */
 187:../../lpc_chip_11cxx_lib/inc/clock_11xx.h **** typedef enum CHIP_SYSCTL_MAINCLKSRC {
 188:../../lpc_chip_11cxx_lib/inc/clock_11xx.h **** 	SYSCTL_MAINCLKSRC_IRC = 0,		/*!< Internal oscillator */
 189:../../lpc_chip_11cxx_lib/inc/clock_11xx.h **** 	SYSCTL_MAINCLKSRC_PLLIN,		/*!< System PLL input */
 190:../../lpc_chip_11cxx_lib/inc/clock_11xx.h **** 	SYSCTL_MAINCLKSRC_LFOSC,		/*!< LF oscillator rate (11Axx only) */
 191:../../lpc_chip_11cxx_lib/inc/clock_11xx.h **** 	SYSCTL_MAINCLKSRC_WDTOSC = SYSCTL_MAINCLKSRC_LFOSC,	/*!< Watchdog oscillator rate */
 192:../../lpc_chip_11cxx_lib/inc/clock_11xx.h **** 	SYSCTL_MAINCLKSRC_PLLOUT,		/*!< System PLL output */
 193:../../lpc_chip_11cxx_lib/inc/clock_11xx.h **** } CHIP_SYSCTL_MAINCLKSRC_T;
 194:../../lpc_chip_11cxx_lib/inc/clock_11xx.h **** 
 195:../../lpc_chip_11cxx_lib/inc/clock_11xx.h **** /**
 196:../../lpc_chip_11cxx_lib/inc/clock_11xx.h ****  * @brief	Set main system clock source
 197:../../lpc_chip_11cxx_lib/inc/clock_11xx.h ****  * @param	src	: Clock source for main system
 198:../../lpc_chip_11cxx_lib/inc/clock_11xx.h ****  * @return	Nothing
 199:../../lpc_chip_11cxx_lib/inc/clock_11xx.h ****  * @note	This function will also toggle the clock source update register
 200:../../lpc_chip_11cxx_lib/inc/clock_11xx.h ****  * to update the clock source.
 201:../../lpc_chip_11cxx_lib/inc/clock_11xx.h ****  */
 202:../../lpc_chip_11cxx_lib/inc/clock_11xx.h **** void Chip_Clock_SetMainClockSource(CHIP_SYSCTL_MAINCLKSRC_T src);
 203:../../lpc_chip_11cxx_lib/inc/clock_11xx.h **** 
 204:../../lpc_chip_11cxx_lib/inc/clock_11xx.h **** /**
 205:../../lpc_chip_11cxx_lib/inc/clock_11xx.h ****  * @brief   Returns the main clock source
 206:../../lpc_chip_11cxx_lib/inc/clock_11xx.h ****  * @return	Which clock is used for the core clock source?
 207:../../lpc_chip_11cxx_lib/inc/clock_11xx.h ****  */
 208:../../lpc_chip_11cxx_lib/inc/clock_11xx.h **** STATIC INLINE CHIP_SYSCTL_MAINCLKSRC_T Chip_Clock_GetMainClockSource(void)
 209:../../lpc_chip_11cxx_lib/inc/clock_11xx.h **** {
 210:../../lpc_chip_11cxx_lib/inc/clock_11xx.h **** 	return (CHIP_SYSCTL_MAINCLKSRC_T) (LPC_SYSCTL->MAINCLKSEL);
 211:../../lpc_chip_11cxx_lib/inc/clock_11xx.h **** }
 212:../../lpc_chip_11cxx_lib/inc/clock_11xx.h **** 
 213:../../lpc_chip_11cxx_lib/inc/clock_11xx.h **** /**
 214:../../lpc_chip_11cxx_lib/inc/clock_11xx.h ****  * @brief	Set system clock divider
 215:../../lpc_chip_11cxx_lib/inc/clock_11xx.h ****  * @param	div	: divider for system clock
 216:../../lpc_chip_11cxx_lib/inc/clock_11xx.h ****  * @return	Nothing
 217:../../lpc_chip_11cxx_lib/inc/clock_11xx.h ****  * @note	Use 0 to disable, or a divider value of 1 to 255. The system clock
 218:../../lpc_chip_11cxx_lib/inc/clock_11xx.h ****  * rate is the main system clock divided by this value.
 219:../../lpc_chip_11cxx_lib/inc/clock_11xx.h ****  */
 220:../../lpc_chip_11cxx_lib/inc/clock_11xx.h **** STATIC INLINE void Chip_Clock_SetSysClockDiv(uint32_t div)
 221:../../lpc_chip_11cxx_lib/inc/clock_11xx.h **** {
 222:../../lpc_chip_11cxx_lib/inc/clock_11xx.h **** 	LPC_SYSCTL->SYSAHBCLKDIV  = div;
 223:../../lpc_chip_11cxx_lib/inc/clock_11xx.h **** }
 224:../../lpc_chip_11cxx_lib/inc/clock_11xx.h **** 
 225:../../lpc_chip_11cxx_lib/inc/clock_11xx.h **** /**
 226:../../lpc_chip_11cxx_lib/inc/clock_11xx.h ****  * System and peripheral clocks
 227:../../lpc_chip_11cxx_lib/inc/clock_11xx.h ****  */
 228:../../lpc_chip_11cxx_lib/inc/clock_11xx.h **** typedef enum CHIP_SYSCTL_CLOCK {
 229:../../lpc_chip_11cxx_lib/inc/clock_11xx.h **** 	SYSCTL_CLOCK_SYS = 0,				/*!< 0: System clock */
 230:../../lpc_chip_11cxx_lib/inc/clock_11xx.h **** 	SYSCTL_CLOCK_ROM,					/*!<1:  ROM clock */
 231:../../lpc_chip_11cxx_lib/inc/clock_11xx.h **** 	SYSCTL_CLOCK_RAM,					/*!< 2: RAM clock */
 232:../../lpc_chip_11cxx_lib/inc/clock_11xx.h **** 	SYSCTL_CLOCK_FLASHREG,				/*!< 3: FLASH register interface clock */
 233:../../lpc_chip_11cxx_lib/inc/clock_11xx.h **** 	SYSCTL_CLOCK_FLASHARRAY,			/*!< 4: FLASH array access clock */
 234:../../lpc_chip_11cxx_lib/inc/clock_11xx.h **** #if defined(CHIP_LPC110X)
 235:../../lpc_chip_11cxx_lib/inc/clock_11xx.h **** 	SYSCTL_CLOCK_RESERVED5,				/*!< 5: Reserved */
ARM GAS  /tmp/ccqV7XwW.s 			page 15


 236:../../lpc_chip_11cxx_lib/inc/clock_11xx.h **** #else
 237:../../lpc_chip_11cxx_lib/inc/clock_11xx.h **** 	SYSCTL_CLOCK_I2C,					/*!< 5: I2C clock, not on LPC110x */
 238:../../lpc_chip_11cxx_lib/inc/clock_11xx.h **** #endif
 239:../../lpc_chip_11cxx_lib/inc/clock_11xx.h **** 	SYSCTL_CLOCK_GPIO,					/*!< 6: GPIO clock */
 240:../../lpc_chip_11cxx_lib/inc/clock_11xx.h **** 	SYSCTL_CLOCK_CT16B0,				/*!< 7: 16-bit Counter/timer 0 clock */
 241:../../lpc_chip_11cxx_lib/inc/clock_11xx.h **** 	SYSCTL_CLOCK_CT16B1,				/*!< 8: 16-bit Counter/timer 1 clock */
 242:../../lpc_chip_11cxx_lib/inc/clock_11xx.h **** 	SYSCTL_CLOCK_CT32B0,				/*!< 9: 32-bit Counter/timer 0 clock */
 243:../../lpc_chip_11cxx_lib/inc/clock_11xx.h **** 	SYSCTL_CLOCK_CT32B1,				/*!< 10: 32-bit Counter/timer 1 clock */
 244:../../lpc_chip_11cxx_lib/inc/clock_11xx.h **** 	SYSCTL_CLOCK_SSP0,					/*!< 11: SSP0 clock */
 245:../../lpc_chip_11cxx_lib/inc/clock_11xx.h **** 	SYSCTL_CLOCK_UART0,					/*!< 12: UART0 clock */
 246:../../lpc_chip_11cxx_lib/inc/clock_11xx.h **** 	SYSCTL_CLOCK_ADC,					/*!< 13: ADC clock */
 247:../../lpc_chip_11cxx_lib/inc/clock_11xx.h **** #if defined(CHIP_LPC11UXX)
 248:../../lpc_chip_11cxx_lib/inc/clock_11xx.h **** 	SYSCTL_CLOCK_USB,					/*!< 14: USB clock, LPC11Uxx only */
 249:../../lpc_chip_11cxx_lib/inc/clock_11xx.h **** #else
 250:../../lpc_chip_11cxx_lib/inc/clock_11xx.h **** 	SYSCTL_CLOCK_RESERVED14,			/*!< 14: Reserved */
 251:../../lpc_chip_11cxx_lib/inc/clock_11xx.h **** #endif
 252:../../lpc_chip_11cxx_lib/inc/clock_11xx.h **** 	SYSCTL_CLOCK_WDT,					/*!< 15: Watchdog timer clock */
 253:../../lpc_chip_11cxx_lib/inc/clock_11xx.h **** 	SYSCTL_CLOCK_IOCON,					/*!< 16: IOCON block clock */
 254:../../lpc_chip_11cxx_lib/inc/clock_11xx.h **** #if defined(CHIP_LPC11CXX)
 255:../../lpc_chip_11cxx_lib/inc/clock_11xx.h **** 	SYSCTL_CLOCK_CAN,					/*!< 17: CAN clock, LPC11Cxx only */
 256:../../lpc_chip_11cxx_lib/inc/clock_11xx.h **** #else
 257:../../lpc_chip_11cxx_lib/inc/clock_11xx.h **** 	SYSCTL_CLOCK_RESERVED17,			/*!< 17: Reserved */
 258:../../lpc_chip_11cxx_lib/inc/clock_11xx.h **** #endif
 259:../../lpc_chip_11cxx_lib/inc/clock_11xx.h **** #if !(defined(CHIP_LPC110X) || defined(CHIP_LPC11XXLV))  
 260:../../lpc_chip_11cxx_lib/inc/clock_11xx.h **** 	SYSCTL_CLOCK_SSP1,					/*!< 18: SSP1 clock, LPC11A/C/E/Uxx//1125 only */
 261:../../lpc_chip_11cxx_lib/inc/clock_11xx.h **** #if !defined(CHIP_LPC11CXX)
 262:../../lpc_chip_11cxx_lib/inc/clock_11xx.h **** 	SYSCTL_CLOCK_PINT,					/*!< 19: GPIO Pin int register interface clock, LPC11A/E/Uxx only */
 263:../../lpc_chip_11cxx_lib/inc/clock_11xx.h **** #if defined(CHIP_LPC11AXX)
 264:../../lpc_chip_11cxx_lib/inc/clock_11xx.h **** 	SYSCTL_CLOCK_ACOMP,					/*!< 20: Analog comparator clock, LPC11Axx only */
 265:../../lpc_chip_11cxx_lib/inc/clock_11xx.h **** 	SYSCTL_CLOCK_DAC,					/*!< 21: DAC clock, LPC11Axx only */
 266:../../lpc_chip_11cxx_lib/inc/clock_11xx.h **** #else
 267:../../lpc_chip_11cxx_lib/inc/clock_11xx.h **** 	SYSCTL_CLOCK_RESERVED20,			/*!< 20: Reserved */
 268:../../lpc_chip_11cxx_lib/inc/clock_11xx.h **** 	SYSCTL_CLOCK_RESERVED21,			/*!< 21: Reserved */
 269:../../lpc_chip_11cxx_lib/inc/clock_11xx.h **** #endif
 270:../../lpc_chip_11cxx_lib/inc/clock_11xx.h **** 	SYSCTL_CLOCK_RESERVED22,			/*!< 22: Reserved */
 271:../../lpc_chip_11cxx_lib/inc/clock_11xx.h **** 	SYSCTL_CLOCK_P0INT,					/*!< 23: GPIO GROUP1 interrupt register clock, LPC11Axx only */
 272:../../lpc_chip_11cxx_lib/inc/clock_11xx.h **** 	SYSCTL_CLOCK_GROUP0INT = SYSCTL_CLOCK_P0INT,/*!< 23: GPIO GROUP0 interrupt register interface cloc
 273:../../lpc_chip_11cxx_lib/inc/clock_11xx.h **** 	SYSCTL_CLOCK_P1INT,					/*!< 24: GPIO GROUP1 interrupt register clock, LPC11Axx only */
 274:../../lpc_chip_11cxx_lib/inc/clock_11xx.h **** 	SYSCTL_CLOCK_GROUP1INT = SYSCTL_CLOCK_P1INT,/*!< 24: GPIO GROUP1 interrupt register interface cloc
 275:../../lpc_chip_11cxx_lib/inc/clock_11xx.h **** 	SYSCTL_CLOCK_RESERVED25,			/*!< 25: Reserved */
 276:../../lpc_chip_11cxx_lib/inc/clock_11xx.h **** #if defined(CHIP_LPC11EXX)  || defined(CHIP_LPC11UXX)
 277:../../lpc_chip_11cxx_lib/inc/clock_11xx.h **** 	SYSCTL_CLOCK_RAM1,					/*!< 26: SRAM block (0x20000000) clock, LPC11E/Uxx only */
 278:../../lpc_chip_11cxx_lib/inc/clock_11xx.h **** #else
 279:../../lpc_chip_11cxx_lib/inc/clock_11xx.h **** 	SYSCTL_CLOCK_RESERVED26,			/*!< 26: Reserved */
 280:../../lpc_chip_11cxx_lib/inc/clock_11xx.h **** #endif
 281:../../lpc_chip_11cxx_lib/inc/clock_11xx.h **** #if defined(CHIP_LPC11UXX)
 282:../../lpc_chip_11cxx_lib/inc/clock_11xx.h **** 	SYSCTL_CLOCK_USBRAM,				/*!< 27: USB SRAM block clock, LPC11Uxx only */
 283:../../lpc_chip_11cxx_lib/inc/clock_11xx.h **** #else
 284:../../lpc_chip_11cxx_lib/inc/clock_11xx.h **** 	SYSCTL_CLOCK_RESERVED27,			/*!< 27: Reserved */
 285:../../lpc_chip_11cxx_lib/inc/clock_11xx.h **** #endif
 286:../../lpc_chip_11cxx_lib/inc/clock_11xx.h **** #endif /* !defined(CHIP_LPC11CXX) */
 287:../../lpc_chip_11cxx_lib/inc/clock_11xx.h **** #endif /* !(defined(CHIP_LPC110X) || defined(CHIP_LPC11XXLV)) */
 288:../../lpc_chip_11cxx_lib/inc/clock_11xx.h **** } CHIP_SYSCTL_CLOCK_T;
 289:../../lpc_chip_11cxx_lib/inc/clock_11xx.h **** 
 290:../../lpc_chip_11cxx_lib/inc/clock_11xx.h **** /**
 291:../../lpc_chip_11cxx_lib/inc/clock_11xx.h ****  * @brief	Enable a system or peripheral clock
 292:../../lpc_chip_11cxx_lib/inc/clock_11xx.h ****  * @param	clk	: Clock to enable
ARM GAS  /tmp/ccqV7XwW.s 			page 16


 293:../../lpc_chip_11cxx_lib/inc/clock_11xx.h ****  * @return	Nothing
 294:../../lpc_chip_11cxx_lib/inc/clock_11xx.h ****  */
 295:../../lpc_chip_11cxx_lib/inc/clock_11xx.h **** STATIC INLINE void Chip_Clock_EnablePeriphClock(CHIP_SYSCTL_CLOCK_T clk)
 296:../../lpc_chip_11cxx_lib/inc/clock_11xx.h **** {
 297:../../lpc_chip_11cxx_lib/inc/clock_11xx.h **** 	LPC_SYSCTL->SYSAHBCLKCTRL |= (1 << clk);
 298:../../lpc_chip_11cxx_lib/inc/clock_11xx.h **** }
 299:../../lpc_chip_11cxx_lib/inc/clock_11xx.h **** 
 300:../../lpc_chip_11cxx_lib/inc/clock_11xx.h **** /**
 301:../../lpc_chip_11cxx_lib/inc/clock_11xx.h ****  * @brief	Disable a system or peripheral clock
 302:../../lpc_chip_11cxx_lib/inc/clock_11xx.h ****  * @param	clk	: Clock to disable
 303:../../lpc_chip_11cxx_lib/inc/clock_11xx.h ****  * @return	Nothing
 304:../../lpc_chip_11cxx_lib/inc/clock_11xx.h ****  */
 305:../../lpc_chip_11cxx_lib/inc/clock_11xx.h **** STATIC INLINE void Chip_Clock_DisablePeriphClock(CHIP_SYSCTL_CLOCK_T clk)
 306:../../lpc_chip_11cxx_lib/inc/clock_11xx.h **** {
 307:../../lpc_chip_11cxx_lib/inc/clock_11xx.h **** 	LPC_SYSCTL->SYSAHBCLKCTRL &= ~(1 << clk);
 308:../../lpc_chip_11cxx_lib/inc/clock_11xx.h **** }
 309:../../lpc_chip_11cxx_lib/inc/clock_11xx.h **** 
 310:../../lpc_chip_11cxx_lib/inc/clock_11xx.h **** /**
 311:../../lpc_chip_11cxx_lib/inc/clock_11xx.h ****  * @brief	Set SSP0 divider
 312:../../lpc_chip_11cxx_lib/inc/clock_11xx.h ****  * @param	div	: divider for SSP0 clock
 313:../../lpc_chip_11cxx_lib/inc/clock_11xx.h ****  * @return	Nothing
 314:../../lpc_chip_11cxx_lib/inc/clock_11xx.h ****  * @note	Use 0 to disable, or a divider value of 1 to 255. The SSP0 clock
 315:../../lpc_chip_11cxx_lib/inc/clock_11xx.h ****  * rate is the main system clock divided by this value.
 316:../../lpc_chip_11cxx_lib/inc/clock_11xx.h ****  */
 317:../../lpc_chip_11cxx_lib/inc/clock_11xx.h **** STATIC INLINE void Chip_Clock_SetSSP0ClockDiv(uint32_t div)
 318:../../lpc_chip_11cxx_lib/inc/clock_11xx.h **** {
 319:../../lpc_chip_11cxx_lib/inc/clock_11xx.h **** 	LPC_SYSCTL->SSP0CLKDIV  = div;
 320:../../lpc_chip_11cxx_lib/inc/clock_11xx.h **** }
 321:../../lpc_chip_11cxx_lib/inc/clock_11xx.h **** 
 322:../../lpc_chip_11cxx_lib/inc/clock_11xx.h **** /**
 323:../../lpc_chip_11cxx_lib/inc/clock_11xx.h ****  * @brief	Return SSP0 divider
 324:../../lpc_chip_11cxx_lib/inc/clock_11xx.h ****  * @return	divider for SSP0 clock
 325:../../lpc_chip_11cxx_lib/inc/clock_11xx.h ****  * @note	A value of 0 means the clock is disabled.
 326:../../lpc_chip_11cxx_lib/inc/clock_11xx.h ****  */
 327:../../lpc_chip_11cxx_lib/inc/clock_11xx.h **** STATIC INLINE uint32_t Chip_Clock_GetSSP0ClockDiv(void)
 328:../../lpc_chip_11cxx_lib/inc/clock_11xx.h **** {
 329:../../lpc_chip_11cxx_lib/inc/clock_11xx.h **** 	return LPC_SYSCTL->SSP0CLKDIV;
 330:../../lpc_chip_11cxx_lib/inc/clock_11xx.h **** }
 331:../../lpc_chip_11cxx_lib/inc/clock_11xx.h **** 
 332:../../lpc_chip_11cxx_lib/inc/clock_11xx.h **** /**
 333:../../lpc_chip_11cxx_lib/inc/clock_11xx.h ****  * @brief	Set UART divider clock
 334:../../lpc_chip_11cxx_lib/inc/clock_11xx.h ****  * @param	div	: divider for UART clock
 335:../../lpc_chip_11cxx_lib/inc/clock_11xx.h ****  * @return	Nothing
 336:../../lpc_chip_11cxx_lib/inc/clock_11xx.h ****  * @note	Use 0 to disable, or a divider value of 1 to 255. The UART clock
 337:../../lpc_chip_11cxx_lib/inc/clock_11xx.h ****  * rate is the main system clock divided by this value.
 338:../../lpc_chip_11cxx_lib/inc/clock_11xx.h ****  */
 339:../../lpc_chip_11cxx_lib/inc/clock_11xx.h **** STATIC INLINE void Chip_Clock_SetUARTClockDiv(uint32_t div)
 340:../../lpc_chip_11cxx_lib/inc/clock_11xx.h **** {
 341:../../lpc_chip_11cxx_lib/inc/clock_11xx.h **** 	LPC_SYSCTL->USARTCLKDIV  = div;
 342:../../lpc_chip_11cxx_lib/inc/clock_11xx.h **** }
 343:../../lpc_chip_11cxx_lib/inc/clock_11xx.h **** 
 344:../../lpc_chip_11cxx_lib/inc/clock_11xx.h **** /**
 345:../../lpc_chip_11cxx_lib/inc/clock_11xx.h ****  * @brief	Return UART divider
 346:../../lpc_chip_11cxx_lib/inc/clock_11xx.h ****  * @return	divider for UART clock
 347:../../lpc_chip_11cxx_lib/inc/clock_11xx.h ****  * @note	A value of 0 means the clock is disabled.
 348:../../lpc_chip_11cxx_lib/inc/clock_11xx.h ****  */
 349:../../lpc_chip_11cxx_lib/inc/clock_11xx.h **** STATIC INLINE uint32_t Chip_Clock_GetUARTClockDiv(void)
ARM GAS  /tmp/ccqV7XwW.s 			page 17


 350:../../lpc_chip_11cxx_lib/inc/clock_11xx.h **** {
 351:../../lpc_chip_11cxx_lib/inc/clock_11xx.h **** 	return LPC_SYSCTL->USARTCLKDIV;
 352:../../lpc_chip_11cxx_lib/inc/clock_11xx.h **** }
 353:../../lpc_chip_11cxx_lib/inc/clock_11xx.h **** 
 354:../../lpc_chip_11cxx_lib/inc/clock_11xx.h **** #if defined(CHIP_LPC11CXX) || defined(CHIP_LPC11EXX) || defined(CHIP_LPC11AXX) || defined(CHIP_LPC1
 355:../../lpc_chip_11cxx_lib/inc/clock_11xx.h **** /**
 356:../../lpc_chip_11cxx_lib/inc/clock_11xx.h ****  * @brief	Set SSP1 divider clock
 357:../../lpc_chip_11cxx_lib/inc/clock_11xx.h ****  * @param	div	: divider for SSP1 clock
 358:../../lpc_chip_11cxx_lib/inc/clock_11xx.h ****  * @return	Nothing
 359:../../lpc_chip_11cxx_lib/inc/clock_11xx.h ****  * @note	Use 0 to disable, or a divider value of 1 to 255. The SSP1 clock
 360:../../lpc_chip_11cxx_lib/inc/clock_11xx.h ****  * rate is the main system clock divided by this value.
 361:../../lpc_chip_11cxx_lib/inc/clock_11xx.h ****  */
 362:../../lpc_chip_11cxx_lib/inc/clock_11xx.h **** STATIC INLINE void Chip_Clock_SetSSP1ClockDiv(uint32_t div)
 363:../../lpc_chip_11cxx_lib/inc/clock_11xx.h **** {
 364:../../lpc_chip_11cxx_lib/inc/clock_11xx.h **** 	LPC_SYSCTL->SSP1CLKDIV  = div;
 365:../../lpc_chip_11cxx_lib/inc/clock_11xx.h **** }
 366:../../lpc_chip_11cxx_lib/inc/clock_11xx.h **** 
 367:../../lpc_chip_11cxx_lib/inc/clock_11xx.h **** /**
 368:../../lpc_chip_11cxx_lib/inc/clock_11xx.h ****  * @brief	Return SSP1 divider
 369:../../lpc_chip_11cxx_lib/inc/clock_11xx.h ****  * @return	divider for SSP1 clock
 370:../../lpc_chip_11cxx_lib/inc/clock_11xx.h ****  * @note	A value of 0 means the clock is disabled.
 371:../../lpc_chip_11cxx_lib/inc/clock_11xx.h ****  */
 372:../../lpc_chip_11cxx_lib/inc/clock_11xx.h **** STATIC INLINE uint32_t Chip_Clock_GetSSP1ClockDiv(void)
 373:../../lpc_chip_11cxx_lib/inc/clock_11xx.h **** {
 374:../../lpc_chip_11cxx_lib/inc/clock_11xx.h **** 	return LPC_SYSCTL->SSP1CLKDIV;
 375:../../lpc_chip_11cxx_lib/inc/clock_11xx.h **** }
 376:../../lpc_chip_11cxx_lib/inc/clock_11xx.h **** 
 377:../../lpc_chip_11cxx_lib/inc/clock_11xx.h **** #endif /*defined(CHIP_LPC11CXX) || defined(CHIP_LPC11EXX) || defined(CHIP_LPC11AXX) || defined(CHIP
 378:../../lpc_chip_11cxx_lib/inc/clock_11xx.h **** 
 379:../../lpc_chip_11cxx_lib/inc/clock_11xx.h **** #if defined(CHIP_LPC11UXX)
 380:../../lpc_chip_11cxx_lib/inc/clock_11xx.h **** /**
 381:../../lpc_chip_11cxx_lib/inc/clock_11xx.h ****  * Clock sources for USB
 382:../../lpc_chip_11cxx_lib/inc/clock_11xx.h ****  */
 383:../../lpc_chip_11cxx_lib/inc/clock_11xx.h **** typedef enum CHIP_SYSCTL_USBCLKSRC {
 384:../../lpc_chip_11cxx_lib/inc/clock_11xx.h **** 	SYSCTL_USBCLKSRC_PLLOUT = 0,	/*!< USB PLL out */
 385:../../lpc_chip_11cxx_lib/inc/clock_11xx.h **** 	SYSCTL_USBCLKSRC_MAINSYSCLK,	/*!< Main system clock */
 386:../../lpc_chip_11cxx_lib/inc/clock_11xx.h **** } CHIP_SYSCTL_USBCLKSRC_T;
 387:../../lpc_chip_11cxx_lib/inc/clock_11xx.h **** 
 388:../../lpc_chip_11cxx_lib/inc/clock_11xx.h **** /**
 389:../../lpc_chip_11cxx_lib/inc/clock_11xx.h ****  * @brief	Set USB clock source and divider
 390:../../lpc_chip_11cxx_lib/inc/clock_11xx.h ****  * @param	src	: Clock source for USB
 391:../../lpc_chip_11cxx_lib/inc/clock_11xx.h ****  * @param	div	: divider for USB clock
 392:../../lpc_chip_11cxx_lib/inc/clock_11xx.h ****  * @return	Nothing
 393:../../lpc_chip_11cxx_lib/inc/clock_11xx.h ****  * @note	Use 0 to disable, or a divider value of 1 to 255. The USB clock
 394:../../lpc_chip_11cxx_lib/inc/clock_11xx.h ****  * rate is either the main system clock or USB PLL output clock divided
 395:../../lpc_chip_11cxx_lib/inc/clock_11xx.h ****  * by this value. This function will also toggle the clock source
 396:../../lpc_chip_11cxx_lib/inc/clock_11xx.h ****  * update register to update the clock source.
 397:../../lpc_chip_11cxx_lib/inc/clock_11xx.h ****  */
 398:../../lpc_chip_11cxx_lib/inc/clock_11xx.h **** void Chip_Clock_SetUSBClockSource(CHIP_SYSCTL_USBCLKSRC_T src, uint32_t div);
 399:../../lpc_chip_11cxx_lib/inc/clock_11xx.h **** 
 400:../../lpc_chip_11cxx_lib/inc/clock_11xx.h **** #endif /*CHIP_LPC11UXX*/
 401:../../lpc_chip_11cxx_lib/inc/clock_11xx.h **** 
 402:../../lpc_chip_11cxx_lib/inc/clock_11xx.h **** #if defined(CHIP_LPC110X) || defined(CHIP_LPC11XXLV) || defined(CHIP_LPC11CXX) || defined(CHIP_LPC1
 403:../../lpc_chip_11cxx_lib/inc/clock_11xx.h **** /**
 404:../../lpc_chip_11cxx_lib/inc/clock_11xx.h ****  * Clock sources for WDT
 405:../../lpc_chip_11cxx_lib/inc/clock_11xx.h ****  */
 406:../../lpc_chip_11cxx_lib/inc/clock_11xx.h **** typedef enum CHIP_SYSCTL_WDTCLKSRC {
ARM GAS  /tmp/ccqV7XwW.s 			page 18


 407:../../lpc_chip_11cxx_lib/inc/clock_11xx.h **** 	SYSCTL_WDTCLKSRC_IRC = 0,		/*!< Internal oscillator for watchdog clock */
 408:../../lpc_chip_11cxx_lib/inc/clock_11xx.h **** 	SYSCTL_WDTCLKSRC_MAINSYSCLK,	/*!< Main system clock for watchdog clock */
 409:../../lpc_chip_11cxx_lib/inc/clock_11xx.h **** 	SYSCTL_WDTCLKSRC_WDTOSC,		/*!< Watchdog oscillator for watchdog clock */
 410:../../lpc_chip_11cxx_lib/inc/clock_11xx.h **** } CHIP_SYSCTL_WDTCLKSRC_T;
 411:../../lpc_chip_11cxx_lib/inc/clock_11xx.h **** 
 412:../../lpc_chip_11cxx_lib/inc/clock_11xx.h **** /**
 413:../../lpc_chip_11cxx_lib/inc/clock_11xx.h ****  * @brief	Set WDT clock source and divider
 414:../../lpc_chip_11cxx_lib/inc/clock_11xx.h ****  * @param	src	: Clock source for WDT
 415:../../lpc_chip_11cxx_lib/inc/clock_11xx.h ****  * @param	div	: divider for WDT clock
 416:../../lpc_chip_11cxx_lib/inc/clock_11xx.h ****  * @return	Nothing
 417:../../lpc_chip_11cxx_lib/inc/clock_11xx.h ****  * @note	Use 0 to disable, or a divider value of 1 to 255. The WDT clock
 418:../../lpc_chip_11cxx_lib/inc/clock_11xx.h ****  * rate is the clock source divided by the divider. This function will
 419:../../lpc_chip_11cxx_lib/inc/clock_11xx.h ****  * also toggle the clock source update register to update the clock
 420:../../lpc_chip_11cxx_lib/inc/clock_11xx.h ****  * source.
 421:../../lpc_chip_11cxx_lib/inc/clock_11xx.h ****  */
 422:../../lpc_chip_11cxx_lib/inc/clock_11xx.h **** void Chip_Clock_SetWDTClockSource(CHIP_SYSCTL_WDTCLKSRC_T src, uint32_t div);
 423:../../lpc_chip_11cxx_lib/inc/clock_11xx.h **** 
 424:../../lpc_chip_11cxx_lib/inc/clock_11xx.h **** #endif
 425:../../lpc_chip_11cxx_lib/inc/clock_11xx.h **** 
 426:../../lpc_chip_11cxx_lib/inc/clock_11xx.h **** #if !defined(CHIP_LPC110X)
 427:../../lpc_chip_11cxx_lib/inc/clock_11xx.h **** /**
 428:../../lpc_chip_11cxx_lib/inc/clock_11xx.h ****  * Clock sources for CLKOUT
 429:../../lpc_chip_11cxx_lib/inc/clock_11xx.h ****  */
 430:../../lpc_chip_11cxx_lib/inc/clock_11xx.h **** typedef enum CHIP_SYSCTL_CLKOUTSRC {
 431:../../lpc_chip_11cxx_lib/inc/clock_11xx.h **** 	SYSCTL_CLKOUTSRC_IRC = 0,		/*!< Internal oscillator for CLKOUT */
 432:../../lpc_chip_11cxx_lib/inc/clock_11xx.h **** 	SYSCTL_CLKOUTSRC_MAINOSC,		/*!< Main oscillator for CLKOUT */
 433:../../lpc_chip_11cxx_lib/inc/clock_11xx.h **** 	SYSCTL_CLKOUTSRC_WDTOSC,		/*!< Watchdog oscillator for CLKOUT */
 434:../../lpc_chip_11cxx_lib/inc/clock_11xx.h **** 	SYSCTL_CLKOUTSRC_LFOSC = SYSCTL_CLKOUTSRC_WDTOSC,	/*!< LF oscillator rate (LPC11A/Exx only) for CL
 435:../../lpc_chip_11cxx_lib/inc/clock_11xx.h **** 	SYSCTL_CLKOUTSRC_MAINSYSCLK,	/*!< Main system clock for CLKOUT */
 436:../../lpc_chip_11cxx_lib/inc/clock_11xx.h **** } CHIP_SYSCTL_CLKOUTSRC_T;
 437:../../lpc_chip_11cxx_lib/inc/clock_11xx.h **** 
 438:../../lpc_chip_11cxx_lib/inc/clock_11xx.h **** /**
 439:../../lpc_chip_11cxx_lib/inc/clock_11xx.h ****  * @brief	Set CLKOUT clock source and divider
 440:../../lpc_chip_11cxx_lib/inc/clock_11xx.h ****  * @param	src	: Clock source for CLKOUT
 441:../../lpc_chip_11cxx_lib/inc/clock_11xx.h ****  * @param	div	: divider for CLKOUT clock
 442:../../lpc_chip_11cxx_lib/inc/clock_11xx.h ****  * @return	Nothing
 443:../../lpc_chip_11cxx_lib/inc/clock_11xx.h ****  * @note	Use 0 to disable, or a divider value of 1 to 255. The CLKOUT clock
 444:../../lpc_chip_11cxx_lib/inc/clock_11xx.h ****  * rate is the clock source divided by the divider. This function will
 445:../../lpc_chip_11cxx_lib/inc/clock_11xx.h ****  * also toggle the clock source update register to update the clock
 446:../../lpc_chip_11cxx_lib/inc/clock_11xx.h ****  * source.
 447:../../lpc_chip_11cxx_lib/inc/clock_11xx.h ****  */
 448:../../lpc_chip_11cxx_lib/inc/clock_11xx.h **** void Chip_Clock_SetCLKOUTSource(CHIP_SYSCTL_CLKOUTSRC_T src, uint32_t div);
 449:../../lpc_chip_11cxx_lib/inc/clock_11xx.h **** 
 450:../../lpc_chip_11cxx_lib/inc/clock_11xx.h **** #endif
 451:../../lpc_chip_11cxx_lib/inc/clock_11xx.h **** 
 452:../../lpc_chip_11cxx_lib/inc/clock_11xx.h **** /**
 453:../../lpc_chip_11cxx_lib/inc/clock_11xx.h ****  * @brief	Returns the main oscillator clock rate
 454:../../lpc_chip_11cxx_lib/inc/clock_11xx.h ****  * @return	main oscillator clock rate
 455:../../lpc_chip_11cxx_lib/inc/clock_11xx.h ****  */
 456:../../lpc_chip_11cxx_lib/inc/clock_11xx.h **** STATIC INLINE uint32_t Chip_Clock_GetMainOscRate(void)
 457:../../lpc_chip_11cxx_lib/inc/clock_11xx.h **** {
 458:../../lpc_chip_11cxx_lib/inc/clock_11xx.h **** 	return OscRateIn;
 334              		.loc 2 458 0
 335 0012 034B     		ldr	r3, .L30+4	@ tmp121,
 336 0014 1868     		ldr	r0, [r3]	@ clkRate, OscRateIn
 337              	.LBE37:
 338              	.LBE36:
ARM GAS  /tmp/ccqV7XwW.s 			page 19


 194:../../lpc_chip_11cxx_lib/src/clock_11xx.c **** 
 339              		.loc 1 194 0
 340 0016 FBE7     		b	.L26	@
 341              	.L28:
 189:../../lpc_chip_11cxx_lib/src/clock_11xx.c **** 		break;
 342              		.loc 1 189 0
 343 0018 0248     		ldr	r0, .L30+8	@ clkRate,
 344 001a F9E7     		b	.L26	@
 345              	.L31:
 346              		.align	2
 347              	.L30:
 348 001c 00800440 		.word	1074036736
 349 0020 00000000 		.word	OscRateIn
 350 0024 001BB700 		.word	12000000
 351              		.cfi_endproc
 352              	.LFE206:
 353              		.size	Chip_Clock_GetSystemPLLInClockRate, .-Chip_Clock_GetSystemPLLInClockRate
 354              		.section	.text.Chip_Clock_GetSystemPLLOutClockRate,"ax",%progbits
 355              		.align	2
 356              		.global	Chip_Clock_GetSystemPLLOutClockRate
 357              		.code	16
 358              		.thumb_func
 359              		.type	Chip_Clock_GetSystemPLLOutClockRate, %function
 360              	Chip_Clock_GetSystemPLLOutClockRate:
 361              	.LFB207:
 208:../../lpc_chip_11cxx_lib/src/clock_11xx.c **** 
 209:../../lpc_chip_11cxx_lib/src/clock_11xx.c **** /* Return System PLL output clock rate */
 210:../../lpc_chip_11cxx_lib/src/clock_11xx.c **** uint32_t Chip_Clock_GetSystemPLLOutClockRate(void)
 211:../../lpc_chip_11cxx_lib/src/clock_11xx.c **** {
 362              		.loc 1 211 0
 363              		.cfi_startproc
 212:../../lpc_chip_11cxx_lib/src/clock_11xx.c **** 	return Chip_Clock_GetPLLFreq(LPC_SYSCTL->SYSPLLCTRL,
 364              		.loc 1 212 0
 365 0000 0C4B     		ldr	r3, .L39	@ tmp122,
 211:../../lpc_chip_11cxx_lib/src/clock_11xx.c **** 	return Chip_Clock_GetPLLFreq(LPC_SYSCTL->SYSPLLCTRL,
 366              		.loc 1 211 0
 367 0002 82B0     		sub	sp, sp, #8	@,,
 368              		.cfi_def_cfa_offset 8
 369              		.loc 1 212 0
 370 0004 9A68     		ldr	r2, [r3, #8]	@ D.6279, MEM[(struct LPC_SYSCTL_T *)1074036736B].SYSPLLCTRL
 371              	.LBB38:
 372              	.LBB39:
 187:../../lpc_chip_11cxx_lib/src/clock_11xx.c **** 	case SYSCTL_PLLCLKSRC_IRC:
 373              		.loc 1 187 0
 374 0006 196C     		ldr	r1, [r3, #64]	@ D.6279, MEM[(struct LPC_SYSCTL_T *)1074036736B].SYSPLLCLKSEL
 375 0008 0323     		mov	r3, #3	@ tmp126,
 376 000a 0B40     		and	r3, r1	@ D.6280, D.6279
 377 000c 0CD0     		beq	.L34	@,
 378 000e 012B     		cmp	r3, #1	@ D.6280,
 379 0010 02D0     		beq	.L35	@,
 380 0012 0020     		mov	r0, #0	@ D.6281,
 381              	.L33:
 382              	.LVL16:
 383              	.LBE39:
 384              	.LBE38:
 213:../../lpc_chip_11cxx_lib/src/clock_11xx.c **** 								 Chip_Clock_GetSystemPLLInClockRate());
 214:../../lpc_chip_11cxx_lib/src/clock_11xx.c **** }
ARM GAS  /tmp/ccqV7XwW.s 			page 20


 385              		.loc 1 214 0
 386 0014 02B0     		add	sp, sp, #8	@,,
 387              		@ sp needed	@
 388 0016 7047     		bx	lr
 389              	.L35:
 390 0018 1F20     		mov	r0, #31	@ tmp132,
 391              	.LBB43:
 392              	.LBB42:
 393              	.LBB40:
 394              	.LBB41:
 395              		.loc 2 458 0
 396 001a 074B     		ldr	r3, .L39+4	@ tmp135,
 397 001c 1040     		and	r0, r2	@ D.6279, D.6279
 398 001e 1B68     		ldr	r3, [r3]	@ OscRateIn, OscRateIn
 399 0020 0130     		add	r0, r0, #1	@ D.6281,
 400 0022 0193     		str	r3, [sp, #4]	@ OscRateIn, %sfp
 401 0024 5843     		mul	r0, r3	@ D.6281, OscRateIn
 402 0026 F5E7     		b	.L33	@
 403              	.L34:
 404 0028 1F20     		mov	r0, #31	@ tmp128,
 405 002a 0240     		and	r2, r0	@ D.6279, tmp128
 406 002c 0348     		ldr	r0, .L39+8	@ tmp131,
 407 002e 0132     		add	r2, r2, #1	@ D.6281,
 408 0030 5043     		mul	r0, r2	@ D.6281, D.6281
 409 0032 EFE7     		b	.L33	@
 410              	.L40:
 411              		.align	2
 412              	.L39:
 413 0034 00800440 		.word	1074036736
 414 0038 00000000 		.word	OscRateIn
 415 003c 001BB700 		.word	12000000
 416              	.LBE41:
 417              	.LBE40:
 418              	.LBE42:
 419              	.LBE43:
 420              		.cfi_endproc
 421              	.LFE207:
 422              		.size	Chip_Clock_GetSystemPLLOutClockRate, .-Chip_Clock_GetSystemPLLOutClockRate
 423              		.section	.text.Chip_Clock_GetMainClockRate,"ax",%progbits
 424              		.align	2
 425              		.global	Chip_Clock_GetMainClockRate
 426              		.code	16
 427              		.thumb_func
 428              		.type	Chip_Clock_GetMainClockRate, %function
 429              	Chip_Clock_GetMainClockRate:
 430              	.LFB208:
 215:../../lpc_chip_11cxx_lib/src/clock_11xx.c **** 
 216:../../lpc_chip_11cxx_lib/src/clock_11xx.c **** #if defined(CHIP_LPC11UXX)
 217:../../lpc_chip_11cxx_lib/src/clock_11xx.c **** /* Return USB PLL input clock rate */
 218:../../lpc_chip_11cxx_lib/src/clock_11xx.c **** uint32_t Chip_Clock_GetUSBPLLInClockRate(void)
 219:../../lpc_chip_11cxx_lib/src/clock_11xx.c **** {
 220:../../lpc_chip_11cxx_lib/src/clock_11xx.c **** 	uint32_t clkRate;
 221:../../lpc_chip_11cxx_lib/src/clock_11xx.c **** 
 222:../../lpc_chip_11cxx_lib/src/clock_11xx.c **** 	switch ((CHIP_SYSCTL_PLLCLKSRC_T) (LPC_SYSCTL->USBPLLCLKSEL & 0x3)) {
 223:../../lpc_chip_11cxx_lib/src/clock_11xx.c **** 	case SYSCTL_PLLCLKSRC_IRC:
 224:../../lpc_chip_11cxx_lib/src/clock_11xx.c **** 		clkRate = Chip_Clock_GetIntOscRate();
 225:../../lpc_chip_11cxx_lib/src/clock_11xx.c **** 		break;
ARM GAS  /tmp/ccqV7XwW.s 			page 21


 226:../../lpc_chip_11cxx_lib/src/clock_11xx.c **** 
 227:../../lpc_chip_11cxx_lib/src/clock_11xx.c **** 	case SYSCTL_PLLCLKSRC_MAINOSC:
 228:../../lpc_chip_11cxx_lib/src/clock_11xx.c **** 		clkRate = Chip_Clock_GetMainOscRate();
 229:../../lpc_chip_11cxx_lib/src/clock_11xx.c **** 		break;
 230:../../lpc_chip_11cxx_lib/src/clock_11xx.c **** 
 231:../../lpc_chip_11cxx_lib/src/clock_11xx.c **** 	default:
 232:../../lpc_chip_11cxx_lib/src/clock_11xx.c **** 		clkRate = 0;
 233:../../lpc_chip_11cxx_lib/src/clock_11xx.c **** 	}
 234:../../lpc_chip_11cxx_lib/src/clock_11xx.c **** 
 235:../../lpc_chip_11cxx_lib/src/clock_11xx.c **** 	return clkRate;
 236:../../lpc_chip_11cxx_lib/src/clock_11xx.c **** }
 237:../../lpc_chip_11cxx_lib/src/clock_11xx.c **** 
 238:../../lpc_chip_11cxx_lib/src/clock_11xx.c **** /* Return USB PLL output clock rate */
 239:../../lpc_chip_11cxx_lib/src/clock_11xx.c **** uint32_t Chip_Clock_GetUSBPLLOutClockRate(void)
 240:../../lpc_chip_11cxx_lib/src/clock_11xx.c **** {
 241:../../lpc_chip_11cxx_lib/src/clock_11xx.c **** 	return Chip_Clock_GetPLLFreq(LPC_SYSCTL->USBPLLCTRL,
 242:../../lpc_chip_11cxx_lib/src/clock_11xx.c **** 								 Chip_Clock_GetUSBPLLInClockRate());
 243:../../lpc_chip_11cxx_lib/src/clock_11xx.c **** }
 244:../../lpc_chip_11cxx_lib/src/clock_11xx.c **** 
 245:../../lpc_chip_11cxx_lib/src/clock_11xx.c **** #endif
 246:../../lpc_chip_11cxx_lib/src/clock_11xx.c **** 
 247:../../lpc_chip_11cxx_lib/src/clock_11xx.c **** /* Return main clock rate */
 248:../../lpc_chip_11cxx_lib/src/clock_11xx.c **** uint32_t Chip_Clock_GetMainClockRate(void)
 249:../../lpc_chip_11cxx_lib/src/clock_11xx.c **** {
 431              		.loc 1 249 0
 432              		.cfi_startproc
 433              	.LVL17:
 250:../../lpc_chip_11cxx_lib/src/clock_11xx.c **** 	uint32_t clkRate = 0;
 251:../../lpc_chip_11cxx_lib/src/clock_11xx.c **** 
 252:../../lpc_chip_11cxx_lib/src/clock_11xx.c **** 	switch ((CHIP_SYSCTL_MAINCLKSRC_T) (LPC_SYSCTL->MAINCLKSEL & 0x3)) {
 434              		.loc 1 252 0
 435 0000 0322     		mov	r2, #3	@ tmp132,
 436 0002 1249     		ldr	r1, .L52	@ tmp129,
 249:../../lpc_chip_11cxx_lib/src/clock_11xx.c **** 	uint32_t clkRate = 0;
 437              		.loc 1 249 0
 438 0004 08B5     		push	{r3, lr}	@
 439              		.cfi_def_cfa_offset 8
 440              		.cfi_offset 3, -8
 441              		.cfi_offset 14, -4
 442              		.loc 1 252 0
 443 0006 0B6F     		ldr	r3, [r1, #112]	@ D.6304, MEM[(struct LPC_SYSCTL_T *)1074036736B].MAINCLKSEL
 444 0008 1340     		and	r3, r2	@ D.6305, tmp132
 445 000a 022B     		cmp	r3, #2	@ D.6305,
 446 000c 11D0     		beq	.L43	@,
 447 000e 032B     		cmp	r3, #3	@ D.6305,
 448 0010 0CD0     		beq	.L44	@,
 449 0012 012B     		cmp	r3, #1	@ D.6305,
 450 0014 01D0     		beq	.L51	@,
 451              	.L49:
 452              	.LBB58:
 453              	.LBB59:
 454              	.LBB60:
 189:../../lpc_chip_11cxx_lib/src/clock_11xx.c **** 		break;
 455              		.loc 1 189 0
 456 0016 0E48     		ldr	r0, .L52+4	@ clkRate,
 457              	.LVL18:
 458              	.L42:
ARM GAS  /tmp/ccqV7XwW.s 			page 22


 459              	.LBE60:
 460              	.LBE59:
 461              	.LBE58:
 253:../../lpc_chip_11cxx_lib/src/clock_11xx.c **** 	case SYSCTL_MAINCLKSRC_IRC:
 254:../../lpc_chip_11cxx_lib/src/clock_11xx.c **** 		clkRate = Chip_Clock_GetIntOscRate();
 255:../../lpc_chip_11cxx_lib/src/clock_11xx.c **** 		break;
 256:../../lpc_chip_11cxx_lib/src/clock_11xx.c **** 
 257:../../lpc_chip_11cxx_lib/src/clock_11xx.c **** 	case SYSCTL_MAINCLKSRC_PLLIN:
 258:../../lpc_chip_11cxx_lib/src/clock_11xx.c **** 		clkRate = Chip_Clock_GetSystemPLLInClockRate();
 259:../../lpc_chip_11cxx_lib/src/clock_11xx.c **** 		break;
 260:../../lpc_chip_11cxx_lib/src/clock_11xx.c **** 
 261:../../lpc_chip_11cxx_lib/src/clock_11xx.c **** #if defined(CHIP_LPC11AXX)
 262:../../lpc_chip_11cxx_lib/src/clock_11xx.c **** 	case SYSCTL_MAINCLKSRC_LFOSC:
 263:../../lpc_chip_11cxx_lib/src/clock_11xx.c **** 		clkRate = Chip_Clock_GetLFOOSCRate();
 264:../../lpc_chip_11cxx_lib/src/clock_11xx.c **** 		break;
 265:../../lpc_chip_11cxx_lib/src/clock_11xx.c **** 
 266:../../lpc_chip_11cxx_lib/src/clock_11xx.c **** #else
 267:../../lpc_chip_11cxx_lib/src/clock_11xx.c **** 	case SYSCTL_MAINCLKSRC_WDTOSC:
 268:../../lpc_chip_11cxx_lib/src/clock_11xx.c **** 		clkRate = Chip_Clock_GetWDTOSCRate();
 269:../../lpc_chip_11cxx_lib/src/clock_11xx.c **** 		break;
 270:../../lpc_chip_11cxx_lib/src/clock_11xx.c **** #endif
 271:../../lpc_chip_11cxx_lib/src/clock_11xx.c **** 
 272:../../lpc_chip_11cxx_lib/src/clock_11xx.c **** 	case SYSCTL_MAINCLKSRC_PLLOUT:
 273:../../lpc_chip_11cxx_lib/src/clock_11xx.c **** 		clkRate = Chip_Clock_GetSystemPLLOutClockRate();
 274:../../lpc_chip_11cxx_lib/src/clock_11xx.c **** 		break;
 275:../../lpc_chip_11cxx_lib/src/clock_11xx.c **** 	}
 276:../../lpc_chip_11cxx_lib/src/clock_11xx.c **** 
 277:../../lpc_chip_11cxx_lib/src/clock_11xx.c **** 	return clkRate;
 278:../../lpc_chip_11cxx_lib/src/clock_11xx.c **** }
 462              		.loc 1 278 0
 463              		@ sp needed	@
 464 0018 08BD     		pop	{r3, pc}
 465              	.LVL19:
 466              	.L51:
 467              	.LBB65:
 468              	.LBB64:
 469              	.LBB63:
 187:../../lpc_chip_11cxx_lib/src/clock_11xx.c **** 	case SYSCTL_PLLCLKSRC_IRC:
 470              		.loc 1 187 0
 471 001a 0B6C     		ldr	r3, [r1, #64]	@ D.6304, MEM[(struct LPC_SYSCTL_T *)1074036736B].SYSPLLCLKSEL
 472 001c 1A40     		and	r2, r3	@ D.6305, D.6304
 473 001e FAD0     		beq	.L49	@,
 203:../../lpc_chip_11cxx_lib/src/clock_11xx.c **** 	}
 474              		.loc 1 203 0
 475 0020 0020     		mov	r0, #0	@ clkRate,
 187:../../lpc_chip_11cxx_lib/src/clock_11xx.c **** 	case SYSCTL_PLLCLKSRC_IRC:
 476              		.loc 1 187 0
 477 0022 012A     		cmp	r2, #1	@ D.6305,
 478 0024 F8D1     		bne	.L42	@,
 479              	.LBB61:
 480              	.LBB62:
 481              		.loc 2 458 0
 482 0026 0B4B     		ldr	r3, .L52+8	@ tmp139,
 483 0028 1868     		ldr	r0, [r3]	@ clkRate, OscRateIn
 484 002a F5E7     		b	.L42	@
 485              	.L44:
 486              	.LBE62:
ARM GAS  /tmp/ccqV7XwW.s 			page 23


 487              	.LBE61:
 488              	.LBE63:
 489              	.LBE64:
 490              	.LBE65:
 273:../../lpc_chip_11cxx_lib/src/clock_11xx.c **** 		break;
 491              		.loc 1 273 0
 492 002c FFF7FEFF 		bl	Chip_Clock_GetSystemPLLOutClockRate	@
 493              	.LVL20:
 274:../../lpc_chip_11cxx_lib/src/clock_11xx.c **** 	}
 494              		.loc 1 274 0
 495 0030 F2E7     		b	.L42	@
 496              	.LVL21:
 497              	.L43:
 498              	.LBB66:
 499              	.LBB67:
 170:../../lpc_chip_11cxx_lib/src/clock_11xx.c **** }
 500              		.loc 1 170 0
 501 0032 4B6A     		ldr	r3, [r1, #36]	@ D.6304, MEM[(struct LPC_SYSCTL_T *)1074036736B].WDTOSCCTRL
 502              	.LVL22:
 503              	.LBB68:
 504              	.LBB69:
  71:../../lpc_chip_11cxx_lib/src/clock_11xx.c **** 
 505              		.loc 1 71 0
 506 0034 1F21     		mov	r1, #31	@ tmp150,
  70:../../lpc_chip_11cxx_lib/src/clock_11xx.c **** 	div = reg & 0x1F;
 507              		.loc 1 70 0
 508 0036 DA05     		lsl	r2, r3, #23	@ tmp147, D.6304,
  71:../../lpc_chip_11cxx_lib/src/clock_11xx.c **** 
 509              		.loc 1 71 0
 510 0038 1940     		and	r1, r3	@ div, D.6304
 511              	.LVL23:
  74:../../lpc_chip_11cxx_lib/src/clock_11xx.c **** }
 512              		.loc 1 74 0
 513 003a 120F     		lsr	r2, r2, #28	@ D.6305, tmp147,
 514 003c 064B     		ldr	r3, .L52+12	@ tmp141,
 515              	.LVL24:
 516 003e 9200     		lsl	r2, r2, #2	@ tmp149, D.6305,
 517 0040 0131     		add	r1, r1, #1	@ D.6304,
 518              	.LVL25:
 519 0042 4900     		lsl	r1, r1, #1	@ D.6304, D.6304,
 520              	.LVL26:
 521 0044 D058     		ldr	r0, [r2, r3]	@, wdtOSCRate
 522 0046 FFF7FEFF 		bl	__aeabi_uidiv	@
 523              	.LVL27:
 524              	.LBE69:
 525              	.LBE68:
 526              	.LBE67:
 527              	.LBE66:
 269:../../lpc_chip_11cxx_lib/src/clock_11xx.c **** #endif
 528              		.loc 1 269 0
 529 004a E5E7     		b	.L42	@
 530              	.L53:
 531              		.align	2
 532              	.L52:
 533 004c 00800440 		.word	1074036736
 534 0050 001BB700 		.word	12000000
 535 0054 00000000 		.word	OscRateIn
ARM GAS  /tmp/ccqV7XwW.s 			page 24


 536 0058 00000000 		.word	.LANCHOR0
 537              		.cfi_endproc
 538              	.LFE208:
 539              		.size	Chip_Clock_GetMainClockRate, .-Chip_Clock_GetMainClockRate
 540              		.section	.text.Chip_Clock_GetSystemClockRate,"ax",%progbits
 541              		.align	2
 542              		.global	Chip_Clock_GetSystemClockRate
 543              		.code	16
 544              		.thumb_func
 545              		.type	Chip_Clock_GetSystemClockRate, %function
 546              	Chip_Clock_GetSystemClockRate:
 547              	.LFB209:
 279:../../lpc_chip_11cxx_lib/src/clock_11xx.c **** 
 280:../../lpc_chip_11cxx_lib/src/clock_11xx.c **** /* Return system clock rate */
 281:../../lpc_chip_11cxx_lib/src/clock_11xx.c **** uint32_t Chip_Clock_GetSystemClockRate(void)
 282:../../lpc_chip_11cxx_lib/src/clock_11xx.c **** {
 548              		.loc 1 282 0
 549              		.cfi_startproc
 550 0000 08B5     		push	{r3, lr}	@
 551              		.cfi_def_cfa_offset 8
 552              		.cfi_offset 3, -8
 553              		.cfi_offset 14, -4
 283:../../lpc_chip_11cxx_lib/src/clock_11xx.c **** 	/* No point in checking for divide by 0 */
 284:../../lpc_chip_11cxx_lib/src/clock_11xx.c **** 	return Chip_Clock_GetMainClockRate() / LPC_SYSCTL->SYSAHBCLKDIV;
 554              		.loc 1 284 0
 555 0002 FFF7FEFF 		bl	Chip_Clock_GetMainClockRate	@
 556              	.LVL28:
 557 0006 024B     		ldr	r3, .L55	@ tmp114,
 285:../../lpc_chip_11cxx_lib/src/clock_11xx.c **** }
 558              		.loc 1 285 0
 559              		@ sp needed	@
 284:../../lpc_chip_11cxx_lib/src/clock_11xx.c **** }
 560              		.loc 1 284 0
 561 0008 996F     		ldr	r1, [r3, #120]	@ D.6310, MEM[(struct LPC_SYSCTL_T *)1074036736B].SYSAHBCLKDIV
 562 000a FFF7FEFF 		bl	__aeabi_uidiv	@
 563              	.LVL29:
 564              		.loc 1 285 0
 565 000e 08BD     		pop	{r3, pc}
 566              	.L56:
 567              		.align	2
 568              	.L55:
 569 0010 00800440 		.word	1074036736
 570              		.cfi_endproc
 571              	.LFE209:
 572              		.size	Chip_Clock_GetSystemClockRate, .-Chip_Clock_GetSystemClockRate
 573              		.section	.rodata.wdtOSCRate,"a",%progbits
 574              		.align	2
 575              		.set	.LANCHOR0,. + 0
 576              		.type	wdtOSCRate, %object
 577              		.size	wdtOSCRate, 64
 578              	wdtOSCRate:
 579 0000 00000000 		.word	0
 580 0004 C0270900 		.word	600000
 581 0008 90051000 		.word	1050000
 582 000c C05C1500 		.word	1400000
 583 0010 F0B31A00 		.word	1750000
 584 0014 200B2000 		.word	2100000
ARM GAS  /tmp/ccqV7XwW.s 			page 25


 585 0018 009F2400 		.word	2400000
 586 001c E0322900 		.word	2700000
 587 0020 C0C62D00 		.word	3000000
 588 0024 50973100 		.word	3250000
 589 0028 E0673500 		.word	3500000
 590 002c 70383900 		.word	3750000
 591 0030 00093D00 		.word	4000000
 592 0034 40164000 		.word	4200000
 593 0038 80234300 		.word	4400000
 594 003c C0304600 		.word	4600000
 595              		.text
 596              	.Letext0:
 597              		.file 3 "/usr/arm-none-eabi/include/machine/_default_types.h"
 598              		.file 4 "/usr/arm-none-eabi/include/sys/_stdint.h"
 599              		.file 5 "../../lpc_chip_11cxx_lib/inc/sysctl_11xx.h"
 600              		.file 6 "../../lpc_chip_11cxx_lib/inc/chip.h"