ARM GAS  /tmp/ccWdlvlX.s 			page 1


   1              		.cpu cortex-m0
   2              		.fpu softvfp
   3              		.eabi_attribute 20, 1	@ Tag_ABI_FP_denormal
   4              		.eabi_attribute 21, 1	@ Tag_ABI_FP_exceptions
   5              		.eabi_attribute 23, 3	@ Tag_ABI_FP_number_model
   6              		.eabi_attribute 24, 1	@ Tag_ABI_align8_needed
   7              		.eabi_attribute 25, 1	@ Tag_ABI_align8_preserved
   8              		.eabi_attribute 26, 1	@ Tag_ABI_enum_size
   9              		.eabi_attribute 30, 2	@ Tag_ABI_optimization_goals
  10              		.eabi_attribute 34, 0	@ Tag_CPU_unaligned_access
  11              		.eabi_attribute 18, 4	@ Tag_ABI_PCS_wchar_t
  12              		.file	"gpio_11xx_2.c"
  13              	@ GNU C (GNU Tools for ARM Embedded Processors) version 4.9.3 20150529 (release) [ARM/embedded-4_9-
  14              	@	compiled by GNU C version 4.8.4, GMP version 5.1.3, MPFR version 3.1.2-p3, MPC version 1.0.1
  15              	@ GGC heuristics: --param ggc-min-expand=100 --param ggc-min-heapsize=131072
  16              	@ options passed:  -I . -I ../../lpc_chip_11cxx_lib/inc -imultilib armv6-m
  17              	@ -iprefix /usr/bin/../lib/gcc/arm-none-eabi/4.9.3/
  18              	@ -isysroot /usr/bin/../arm-none-eabi -MD bin/gpio_11xx_2.d
  19              	@ -MF bin/gpio_11xx_2.d -MP -MQ bin/gpio_11xx_2.o -D__USES_INITFINI__
  20              	@ -D CORE_M0 ../../lpc_chip_11cxx_lib/src/gpio_11xx_2.c -mcpu=cortex-m0
  21              	@ -mthumb -auxbase-strip bin/gpio_11xx_2.o -g -ggdb3 -O2 -Wall
  22              	@ -Wstrict-prototypes -Wextra -std=gnu90 -ffunction-sections
  23              	@ -fdata-sections -fverbose-asm
  24              	@ options enabled:  -faggressive-loop-optimizations -fauto-inc-dec
  25              	@ -fbranch-count-reg -fcaller-saves -fcombine-stack-adjustments -fcommon
  26              	@ -fcompare-elim -fcprop-registers -fcrossjumping -fcse-follow-jumps
  27              	@ -fdata-sections -fdefer-pop -fdelete-null-pointer-checks -fdevirtualize
  28              	@ -fdevirtualize-speculatively -fdwarf2-cfi-asm -fearly-inlining
  29              	@ -feliminate-unused-debug-types -fexpensive-optimizations
  30              	@ -fforward-propagate -ffunction-cse -ffunction-sections -fgcse -fgcse-lm
  31              	@ -fgnu-runtime -fgnu-unique -fguess-branch-probability
  32              	@ -fhoist-adjacent-loads -fident -fif-conversion -fif-conversion2
  33              	@ -findirect-inlining -finline -finline-atomics
  34              	@ -finline-functions-called-once -finline-small-functions -fipa-cp
  35              	@ -fipa-profile -fipa-pure-const -fipa-reference -fipa-sra
  36              	@ -fira-hoist-pressure -fira-share-save-slots -fira-share-spill-slots
  37              	@ -fisolate-erroneous-paths-dereference -fivopts -fkeep-static-consts
  38              	@ -fleading-underscore -flifetime-dse -fmath-errno -fmerge-constants
  39              	@ -fmerge-debug-strings -fmove-loop-invariants -fomit-frame-pointer
  40              	@ -foptimize-sibling-calls -foptimize-strlen -fpartial-inlining -fpeephole
  41              	@ -fpeephole2 -fprefetch-loop-arrays -freg-struct-return -freorder-blocks
  42              	@ -freorder-functions -frerun-cse-after-loop
  43              	@ -fsched-critical-path-heuristic -fsched-dep-count-heuristic
  44              	@ -fsched-group-heuristic -fsched-interblock -fsched-last-insn-heuristic
  45              	@ -fsched-pressure -fsched-rank-heuristic -fsched-spec
  46              	@ -fsched-spec-insn-heuristic -fsched-stalled-insns-dep -fschedule-insns2
  47              	@ -fsection-anchors -fshow-column -fshrink-wrap -fsigned-zeros
  48              	@ -fsplit-ivs-in-unroller -fsplit-wide-types -fstrict-aliasing
  49              	@ -fstrict-overflow -fstrict-volatile-bitfields -fsync-libcalls
  50              	@ -fthread-jumps -ftoplevel-reorder -ftrapping-math -ftree-bit-ccp
  51              	@ -ftree-builtin-call-dce -ftree-ccp -ftree-ch -ftree-coalesce-vars
  52              	@ -ftree-copy-prop -ftree-copyrename -ftree-cselim -ftree-dce
  53              	@ -ftree-dominator-opts -ftree-dse -ftree-forwprop -ftree-fre
  54              	@ -ftree-loop-if-convert -ftree-loop-im -ftree-loop-ivcanon
  55              	@ -ftree-loop-optimize -ftree-parallelize-loops= -ftree-phiprop -ftree-pre
  56              	@ -ftree-pta -ftree-reassoc -ftree-scev-cprop -ftree-sink -ftree-slsr
  57              	@ -ftree-sra -ftree-switch-conversion -ftree-tail-merge -ftree-ter
ARM GAS  /tmp/ccWdlvlX.s 			page 2


  58              	@ -ftree-vrp -funit-at-a-time -fvar-tracking -fvar-tracking-assignments
  59              	@ -fverbose-asm -fzero-initialized-in-bss -mlittle-endian -mlra
  60              	@ -mpic-data-is-text-relative -msched-prolog -mthumb
  61              	@ -mvectorize-with-neon-quad
  62              	
  63              		.text
  64              	.Ltext0:
  65              		.cfi_sections	.debug_frame
  66              		.section	.text.Chip_GPIO_Init,"ax",%progbits
  67              		.align	2
  68              		.global	Chip_GPIO_Init
  69              		.code	16
  70              		.thumb_func
  71              		.type	Chip_GPIO_Init, %function
  72              	Chip_GPIO_Init:
  73              	.LFB198:
  74              		.file 1 "../../lpc_chip_11cxx_lib/src/gpio_11xx_2.c"
   1:../../lpc_chip_11cxx_lib/src/gpio_11xx_2.c **** /*
   2:../../lpc_chip_11cxx_lib/src/gpio_11xx_2.c ****  * @brief LPC11xx GPIO driver for CHIP_LPC11CXX, CHIP_LPC110X, CHIP_LPC11XXLV,
   3:../../lpc_chip_11cxx_lib/src/gpio_11xx_2.c ****  * and CHIP_LPC1125 families only.
   4:../../lpc_chip_11cxx_lib/src/gpio_11xx_2.c ****  *
   5:../../lpc_chip_11cxx_lib/src/gpio_11xx_2.c ****  * @note
   6:../../lpc_chip_11cxx_lib/src/gpio_11xx_2.c ****  * Copyright(C) NXP Semiconductors, 2013
   7:../../lpc_chip_11cxx_lib/src/gpio_11xx_2.c ****  * All rights reserved.
   8:../../lpc_chip_11cxx_lib/src/gpio_11xx_2.c ****  *
   9:../../lpc_chip_11cxx_lib/src/gpio_11xx_2.c ****  * @par
  10:../../lpc_chip_11cxx_lib/src/gpio_11xx_2.c ****  * Software that is described herein is for illustrative purposes only
  11:../../lpc_chip_11cxx_lib/src/gpio_11xx_2.c ****  * which provides customers with programming information regarding the
  12:../../lpc_chip_11cxx_lib/src/gpio_11xx_2.c ****  * LPC products.  This software is supplied "AS IS" without any warranties of
  13:../../lpc_chip_11cxx_lib/src/gpio_11xx_2.c ****  * any kind, and NXP Semiconductors and its licensor disclaim any and
  14:../../lpc_chip_11cxx_lib/src/gpio_11xx_2.c ****  * all warranties, express or implied, including all implied warranties of
  15:../../lpc_chip_11cxx_lib/src/gpio_11xx_2.c ****  * merchantability, fitness for a particular purpose and non-infringement of
  16:../../lpc_chip_11cxx_lib/src/gpio_11xx_2.c ****  * intellectual property rights.  NXP Semiconductors assumes no responsibility
  17:../../lpc_chip_11cxx_lib/src/gpio_11xx_2.c ****  * or liability for the use of the software, conveys no license or rights under any
  18:../../lpc_chip_11cxx_lib/src/gpio_11xx_2.c ****  * patent, copyright, mask work right, or any other intellectual property rights in
  19:../../lpc_chip_11cxx_lib/src/gpio_11xx_2.c ****  * or to any products. NXP Semiconductors reserves the right to make changes
  20:../../lpc_chip_11cxx_lib/src/gpio_11xx_2.c ****  * in the software without notification. NXP Semiconductors also makes no
  21:../../lpc_chip_11cxx_lib/src/gpio_11xx_2.c ****  * representation or warranty that such application will be suitable for the
  22:../../lpc_chip_11cxx_lib/src/gpio_11xx_2.c ****  * specified use without further testing or modification.
  23:../../lpc_chip_11cxx_lib/src/gpio_11xx_2.c ****  *
  24:../../lpc_chip_11cxx_lib/src/gpio_11xx_2.c ****  * @par
  25:../../lpc_chip_11cxx_lib/src/gpio_11xx_2.c ****  * Permission to use, copy, modify, and distribute this software and its
  26:../../lpc_chip_11cxx_lib/src/gpio_11xx_2.c ****  * documentation is hereby granted, under NXP Semiconductors' and its
  27:../../lpc_chip_11cxx_lib/src/gpio_11xx_2.c ****  * licensor's relevant copyrights in the software, without fee, provided that it
  28:../../lpc_chip_11cxx_lib/src/gpio_11xx_2.c ****  * is used in conjunction with NXP Semiconductors microcontrollers.  This
  29:../../lpc_chip_11cxx_lib/src/gpio_11xx_2.c ****  * copyright, permission, and disclaimer notice must appear in all copies of
  30:../../lpc_chip_11cxx_lib/src/gpio_11xx_2.c ****  * this code.
  31:../../lpc_chip_11cxx_lib/src/gpio_11xx_2.c ****  */
  32:../../lpc_chip_11cxx_lib/src/gpio_11xx_2.c **** 
  33:../../lpc_chip_11cxx_lib/src/gpio_11xx_2.c **** #include "chip.h"
  34:../../lpc_chip_11cxx_lib/src/gpio_11xx_2.c **** 
  35:../../lpc_chip_11cxx_lib/src/gpio_11xx_2.c **** #if defined(CHIP_LPC11CXX) || defined(CHIP_LPC110X) || defined(CHIP_LPC11XXLV) || defined(CHIP_LPC1
  36:../../lpc_chip_11cxx_lib/src/gpio_11xx_2.c **** 
  37:../../lpc_chip_11cxx_lib/src/gpio_11xx_2.c **** /*****************************************************************************
  38:../../lpc_chip_11cxx_lib/src/gpio_11xx_2.c ****  * Private types/enumerations/variables
  39:../../lpc_chip_11cxx_lib/src/gpio_11xx_2.c ****  ****************************************************************************/
  40:../../lpc_chip_11cxx_lib/src/gpio_11xx_2.c **** 
ARM GAS  /tmp/ccWdlvlX.s 			page 3


  41:../../lpc_chip_11cxx_lib/src/gpio_11xx_2.c **** /*****************************************************************************
  42:../../lpc_chip_11cxx_lib/src/gpio_11xx_2.c ****  * Public types/enumerations/variables
  43:../../lpc_chip_11cxx_lib/src/gpio_11xx_2.c ****  ****************************************************************************/
  44:../../lpc_chip_11cxx_lib/src/gpio_11xx_2.c **** 
  45:../../lpc_chip_11cxx_lib/src/gpio_11xx_2.c **** /*****************************************************************************
  46:../../lpc_chip_11cxx_lib/src/gpio_11xx_2.c ****  * Private functions
  47:../../lpc_chip_11cxx_lib/src/gpio_11xx_2.c ****  ****************************************************************************/
  48:../../lpc_chip_11cxx_lib/src/gpio_11xx_2.c **** 
  49:../../lpc_chip_11cxx_lib/src/gpio_11xx_2.c **** /*****************************************************************************
  50:../../lpc_chip_11cxx_lib/src/gpio_11xx_2.c ****  * Public functions
  51:../../lpc_chip_11cxx_lib/src/gpio_11xx_2.c ****  ****************************************************************************/
  52:../../lpc_chip_11cxx_lib/src/gpio_11xx_2.c **** 
  53:../../lpc_chip_11cxx_lib/src/gpio_11xx_2.c **** /* Initialize GPIO block */
  54:../../lpc_chip_11cxx_lib/src/gpio_11xx_2.c **** void Chip_GPIO_Init(LPC_GPIO_T *pGPIO)
  55:../../lpc_chip_11cxx_lib/src/gpio_11xx_2.c **** {
  75              		.loc 1 55 0
  76              		.cfi_startproc
  77              	.LVL0:
  78              	.LBB26:
  79              	.LBB27:
  80              		.file 2 "../../lpc_chip_11cxx_lib/inc/clock_11xx.h"
   1:../../lpc_chip_11cxx_lib/inc/clock_11xx.h **** /*
   2:../../lpc_chip_11cxx_lib/inc/clock_11xx.h ****  * @brief LPC11XX Clock control functions
   3:../../lpc_chip_11cxx_lib/inc/clock_11xx.h ****  *
   4:../../lpc_chip_11cxx_lib/inc/clock_11xx.h ****  * @note
   5:../../lpc_chip_11cxx_lib/inc/clock_11xx.h ****  * Copyright(C) NXP Semiconductors, 2012
   6:../../lpc_chip_11cxx_lib/inc/clock_11xx.h ****  * All rights reserved.
   7:../../lpc_chip_11cxx_lib/inc/clock_11xx.h ****  *
   8:../../lpc_chip_11cxx_lib/inc/clock_11xx.h ****  * @par
   9:../../lpc_chip_11cxx_lib/inc/clock_11xx.h ****  * Software that is described herein is for illustrative purposes only
  10:../../lpc_chip_11cxx_lib/inc/clock_11xx.h ****  * which provides customers with programming information regarding the
  11:../../lpc_chip_11cxx_lib/inc/clock_11xx.h ****  * LPC products.  This software is supplied "AS IS" without any warranties of
  12:../../lpc_chip_11cxx_lib/inc/clock_11xx.h ****  * any kind, and NXP Semiconductors and its licensor disclaim any and
  13:../../lpc_chip_11cxx_lib/inc/clock_11xx.h ****  * all warranties, express or implied, including all implied warranties of
  14:../../lpc_chip_11cxx_lib/inc/clock_11xx.h ****  * merchantability, fitness for a particular purpose and non-infringement of
  15:../../lpc_chip_11cxx_lib/inc/clock_11xx.h ****  * intellectual property rights.  NXP Semiconductors assumes no responsibility
  16:../../lpc_chip_11cxx_lib/inc/clock_11xx.h ****  * or liability for the use of the software, conveys no license or rights under any
  17:../../lpc_chip_11cxx_lib/inc/clock_11xx.h ****  * patent, copyright, mask work right, or any other intellectual property rights in
  18:../../lpc_chip_11cxx_lib/inc/clock_11xx.h ****  * or to any products. NXP Semiconductors reserves the right to make changes
  19:../../lpc_chip_11cxx_lib/inc/clock_11xx.h ****  * in the software without notification. NXP Semiconductors also makes no
  20:../../lpc_chip_11cxx_lib/inc/clock_11xx.h ****  * representation or warranty that such application will be suitable for the
  21:../../lpc_chip_11cxx_lib/inc/clock_11xx.h ****  * specified use without further testing or modification.
  22:../../lpc_chip_11cxx_lib/inc/clock_11xx.h ****  *
  23:../../lpc_chip_11cxx_lib/inc/clock_11xx.h ****  * @par
  24:../../lpc_chip_11cxx_lib/inc/clock_11xx.h ****  * Permission to use, copy, modify, and distribute this software and its
  25:../../lpc_chip_11cxx_lib/inc/clock_11xx.h ****  * documentation is hereby granted, under NXP Semiconductors' and its
  26:../../lpc_chip_11cxx_lib/inc/clock_11xx.h ****  * licensor's relevant copyrights in the software, without fee, provided that it
  27:../../lpc_chip_11cxx_lib/inc/clock_11xx.h ****  * is used in conjunction with NXP Semiconductors microcontrollers.  This
  28:../../lpc_chip_11cxx_lib/inc/clock_11xx.h ****  * copyright, permission, and disclaimer notice must appear in all copies of
  29:../../lpc_chip_11cxx_lib/inc/clock_11xx.h ****  * this code.
  30:../../lpc_chip_11cxx_lib/inc/clock_11xx.h ****  */
  31:../../lpc_chip_11cxx_lib/inc/clock_11xx.h **** 
  32:../../lpc_chip_11cxx_lib/inc/clock_11xx.h **** #ifndef __CLOCK_11XX_H_
  33:../../lpc_chip_11cxx_lib/inc/clock_11xx.h **** #define __CLOCK_11XX_H_
  34:../../lpc_chip_11cxx_lib/inc/clock_11xx.h **** 
  35:../../lpc_chip_11cxx_lib/inc/clock_11xx.h **** #ifdef __cplusplus
  36:../../lpc_chip_11cxx_lib/inc/clock_11xx.h **** extern "C" {
ARM GAS  /tmp/ccWdlvlX.s 			page 4


  37:../../lpc_chip_11cxx_lib/inc/clock_11xx.h **** #endif
  38:../../lpc_chip_11cxx_lib/inc/clock_11xx.h **** 
  39:../../lpc_chip_11cxx_lib/inc/clock_11xx.h **** /** @defgroup CLOCK_11XX CHIP: LPC11xx Clock Control block driver
  40:../../lpc_chip_11cxx_lib/inc/clock_11xx.h ****  * @ingroup CHIP_11XX_Drivers
  41:../../lpc_chip_11cxx_lib/inc/clock_11xx.h ****  * @{
  42:../../lpc_chip_11cxx_lib/inc/clock_11xx.h ****  */
  43:../../lpc_chip_11cxx_lib/inc/clock_11xx.h **** 
  44:../../lpc_chip_11cxx_lib/inc/clock_11xx.h **** /** Internal oscillator frequency */
  45:../../lpc_chip_11cxx_lib/inc/clock_11xx.h **** #define SYSCTL_IRC_FREQ (12000000)
  46:../../lpc_chip_11cxx_lib/inc/clock_11xx.h **** 
  47:../../lpc_chip_11cxx_lib/inc/clock_11xx.h **** /**
  48:../../lpc_chip_11cxx_lib/inc/clock_11xx.h ****  * @brief	Set System PLL divider values
  49:../../lpc_chip_11cxx_lib/inc/clock_11xx.h ****  * @param	msel    : PLL feedback divider value. M = msel + 1.
  50:../../lpc_chip_11cxx_lib/inc/clock_11xx.h ****  * @param	psel    : PLL post divider value. P =  (1<<psel).
  51:../../lpc_chip_11cxx_lib/inc/clock_11xx.h ****  * @return	Nothing
  52:../../lpc_chip_11cxx_lib/inc/clock_11xx.h ****  * @note	See the user manual for how to setup the PLL.
  53:../../lpc_chip_11cxx_lib/inc/clock_11xx.h ****  */
  54:../../lpc_chip_11cxx_lib/inc/clock_11xx.h **** STATIC INLINE void Chip_Clock_SetupSystemPLL(uint8_t msel, uint8_t psel)
  55:../../lpc_chip_11cxx_lib/inc/clock_11xx.h **** {
  56:../../lpc_chip_11cxx_lib/inc/clock_11xx.h **** 	LPC_SYSCTL->SYSPLLCTRL = (msel & 0x1F) | ((psel & 0x3) << 5);
  57:../../lpc_chip_11cxx_lib/inc/clock_11xx.h **** }
  58:../../lpc_chip_11cxx_lib/inc/clock_11xx.h **** 
  59:../../lpc_chip_11cxx_lib/inc/clock_11xx.h **** /**
  60:../../lpc_chip_11cxx_lib/inc/clock_11xx.h ****  * @brief	Read System PLL lock status
  61:../../lpc_chip_11cxx_lib/inc/clock_11xx.h ****  * @return	true of the PLL is locked. false if not locked
  62:../../lpc_chip_11cxx_lib/inc/clock_11xx.h ****  */
  63:../../lpc_chip_11cxx_lib/inc/clock_11xx.h **** STATIC INLINE bool Chip_Clock_IsSystemPLLLocked(void)
  64:../../lpc_chip_11cxx_lib/inc/clock_11xx.h **** {
  65:../../lpc_chip_11cxx_lib/inc/clock_11xx.h **** 	return (bool) ((LPC_SYSCTL->SYSPLLSTAT & 1) != 0);
  66:../../lpc_chip_11cxx_lib/inc/clock_11xx.h **** }
  67:../../lpc_chip_11cxx_lib/inc/clock_11xx.h **** 
  68:../../lpc_chip_11cxx_lib/inc/clock_11xx.h **** /**
  69:../../lpc_chip_11cxx_lib/inc/clock_11xx.h ****  * Clock sources for system and USB PLLs
  70:../../lpc_chip_11cxx_lib/inc/clock_11xx.h ****  */
  71:../../lpc_chip_11cxx_lib/inc/clock_11xx.h **** typedef enum CHIP_SYSCTL_PLLCLKSRC {
  72:../../lpc_chip_11cxx_lib/inc/clock_11xx.h **** 	SYSCTL_PLLCLKSRC_IRC = 0,		/*!< Internal oscillator in */
  73:../../lpc_chip_11cxx_lib/inc/clock_11xx.h **** 	SYSCTL_PLLCLKSRC_MAINOSC,		/*!< Crystal (main) oscillator in */
  74:../../lpc_chip_11cxx_lib/inc/clock_11xx.h **** #if defined(CHIP_LPC11AXX)
  75:../../lpc_chip_11cxx_lib/inc/clock_11xx.h **** 	SYSCTL_PLLCLKSRC_EXT_CLKIN,	/*!< External clock in (11Axx only) */
  76:../../lpc_chip_11cxx_lib/inc/clock_11xx.h **** #else
  77:../../lpc_chip_11cxx_lib/inc/clock_11xx.h **** 	SYSCTL_PLLCLKSRC_RESERVED1,	/*!< Reserved */
  78:../../lpc_chip_11cxx_lib/inc/clock_11xx.h **** #endif
  79:../../lpc_chip_11cxx_lib/inc/clock_11xx.h **** 	SYSCTL_PLLCLKSRC_RESERVED2,	/*!< Reserved */
  80:../../lpc_chip_11cxx_lib/inc/clock_11xx.h **** } CHIP_SYSCTL_PLLCLKSRC_T;
  81:../../lpc_chip_11cxx_lib/inc/clock_11xx.h **** 
  82:../../lpc_chip_11cxx_lib/inc/clock_11xx.h **** /**
  83:../../lpc_chip_11cxx_lib/inc/clock_11xx.h ****  * @brief	Set System PLL clock source
  84:../../lpc_chip_11cxx_lib/inc/clock_11xx.h ****  * @param	src	: Clock source for system PLL
  85:../../lpc_chip_11cxx_lib/inc/clock_11xx.h ****  * @return	Nothing
  86:../../lpc_chip_11cxx_lib/inc/clock_11xx.h ****  * @note	This function will also toggle the clock source update register
  87:../../lpc_chip_11cxx_lib/inc/clock_11xx.h ****  * to update the clock source.
  88:../../lpc_chip_11cxx_lib/inc/clock_11xx.h ****  */
  89:../../lpc_chip_11cxx_lib/inc/clock_11xx.h **** void Chip_Clock_SetSystemPLLSource(CHIP_SYSCTL_PLLCLKSRC_T src);
  90:../../lpc_chip_11cxx_lib/inc/clock_11xx.h **** 
  91:../../lpc_chip_11cxx_lib/inc/clock_11xx.h **** #if defined(CHIP_LPC11UXX)
  92:../../lpc_chip_11cxx_lib/inc/clock_11xx.h **** /**
  93:../../lpc_chip_11cxx_lib/inc/clock_11xx.h ****  * @brief	Set USB PLL divider values
ARM GAS  /tmp/ccWdlvlX.s 			page 5


  94:../../lpc_chip_11cxx_lib/inc/clock_11xx.h ****  * @param	msel    : PLL feedback divider value. M = msel + 1.
  95:../../lpc_chip_11cxx_lib/inc/clock_11xx.h ****  * @param	psel    : PLL post divider value. P = (1<<psel).
  96:../../lpc_chip_11cxx_lib/inc/clock_11xx.h ****  * @return	Nothing
  97:../../lpc_chip_11cxx_lib/inc/clock_11xx.h ****  * @note	See the user manual for how to setup the PLL.
  98:../../lpc_chip_11cxx_lib/inc/clock_11xx.h ****  */
  99:../../lpc_chip_11cxx_lib/inc/clock_11xx.h **** STATIC INLINE void Chip_Clock_SetupUSBPLL(uint8_t msel, uint8_t psel)
 100:../../lpc_chip_11cxx_lib/inc/clock_11xx.h **** {
 101:../../lpc_chip_11cxx_lib/inc/clock_11xx.h **** 	LPC_SYSCTL->USBPLLCTRL = (msel & 0x1F) | ((psel & 0x3) << 5);
 102:../../lpc_chip_11cxx_lib/inc/clock_11xx.h **** }
 103:../../lpc_chip_11cxx_lib/inc/clock_11xx.h **** 
 104:../../lpc_chip_11cxx_lib/inc/clock_11xx.h **** /**
 105:../../lpc_chip_11cxx_lib/inc/clock_11xx.h ****  * @brief	Read USB PLL lock status
 106:../../lpc_chip_11cxx_lib/inc/clock_11xx.h ****  * @return	true of the PLL is locked. false if not locked
 107:../../lpc_chip_11cxx_lib/inc/clock_11xx.h ****  */
 108:../../lpc_chip_11cxx_lib/inc/clock_11xx.h **** STATIC INLINE bool Chip_Clock_IsUSBPLLLocked(void)
 109:../../lpc_chip_11cxx_lib/inc/clock_11xx.h **** {
 110:../../lpc_chip_11cxx_lib/inc/clock_11xx.h **** 	return (bool) ((LPC_SYSCTL->USBPLLSTAT & 1) != 0);
 111:../../lpc_chip_11cxx_lib/inc/clock_11xx.h **** }
 112:../../lpc_chip_11cxx_lib/inc/clock_11xx.h **** 
 113:../../lpc_chip_11cxx_lib/inc/clock_11xx.h **** /**
 114:../../lpc_chip_11cxx_lib/inc/clock_11xx.h ****  * @brief	Set USB PLL clock source
 115:../../lpc_chip_11cxx_lib/inc/clock_11xx.h ****  * @param	src	: Clock source for USB PLL
 116:../../lpc_chip_11cxx_lib/inc/clock_11xx.h ****  * @return	Nothing
 117:../../lpc_chip_11cxx_lib/inc/clock_11xx.h ****  * @note	This function will also toggle the clock source update register
 118:../../lpc_chip_11cxx_lib/inc/clock_11xx.h ****  * to update the clock source.
 119:../../lpc_chip_11cxx_lib/inc/clock_11xx.h ****  */
 120:../../lpc_chip_11cxx_lib/inc/clock_11xx.h **** void Chip_Clock_SetUSBPLLSource(CHIP_SYSCTL_PLLCLKSRC_T src);
 121:../../lpc_chip_11cxx_lib/inc/clock_11xx.h **** 
 122:../../lpc_chip_11cxx_lib/inc/clock_11xx.h **** #endif /*defined(CHIP_LPC11UXX)*/
 123:../../lpc_chip_11cxx_lib/inc/clock_11xx.h **** 
 124:../../lpc_chip_11cxx_lib/inc/clock_11xx.h **** /**
 125:../../lpc_chip_11cxx_lib/inc/clock_11xx.h ****  * @brief	Bypass System Oscillator and set oscillator frequency range
 126:../../lpc_chip_11cxx_lib/inc/clock_11xx.h ****  * @param	bypass	: Flag to bypass oscillator
 127:../../lpc_chip_11cxx_lib/inc/clock_11xx.h ****  * @param	highfr	: Flag to set oscillator range from 15-25 MHz
 128:../../lpc_chip_11cxx_lib/inc/clock_11xx.h ****  * @return	Nothing
 129:../../lpc_chip_11cxx_lib/inc/clock_11xx.h ****  * @note	Sets the PLL input to bypass the oscillator. This would be
 130:../../lpc_chip_11cxx_lib/inc/clock_11xx.h ****  * used if an external clock that is not an oscillator is attached
 131:../../lpc_chip_11cxx_lib/inc/clock_11xx.h ****  * to the XTALIN pin.
 132:../../lpc_chip_11cxx_lib/inc/clock_11xx.h ****  */
 133:../../lpc_chip_11cxx_lib/inc/clock_11xx.h **** void Chip_Clock_SetPLLBypass(bool bypass, bool highfr);
 134:../../lpc_chip_11cxx_lib/inc/clock_11xx.h **** 
 135:../../lpc_chip_11cxx_lib/inc/clock_11xx.h **** /**
 136:../../lpc_chip_11cxx_lib/inc/clock_11xx.h ****  * Watchdog and low frequency oscillator frequencies plus or minus 40%
 137:../../lpc_chip_11cxx_lib/inc/clock_11xx.h ****  */
 138:../../lpc_chip_11cxx_lib/inc/clock_11xx.h **** typedef enum CHIP_WDTLFO_OSC {
 139:../../lpc_chip_11cxx_lib/inc/clock_11xx.h **** 	WDTLFO_OSC_ILLEGAL,
 140:../../lpc_chip_11cxx_lib/inc/clock_11xx.h **** 	WDTLFO_OSC_0_60,	/*!< 0.6 MHz watchdog/LFO rate */
 141:../../lpc_chip_11cxx_lib/inc/clock_11xx.h **** 	WDTLFO_OSC_1_05,	/*!< 1.05 MHz watchdog/LFO rate */
 142:../../lpc_chip_11cxx_lib/inc/clock_11xx.h **** 	WDTLFO_OSC_1_40,	/*!< 1.4 MHz watchdog/LFO rate */
 143:../../lpc_chip_11cxx_lib/inc/clock_11xx.h **** 	WDTLFO_OSC_1_75,	/*!< 1.75 MHz watchdog/LFO rate */
 144:../../lpc_chip_11cxx_lib/inc/clock_11xx.h **** 	WDTLFO_OSC_2_10,	/*!< 2.1 MHz watchdog/LFO rate */
 145:../../lpc_chip_11cxx_lib/inc/clock_11xx.h **** 	WDTLFO_OSC_2_40,	/*!< 2.4 MHz watchdog/LFO rate */
 146:../../lpc_chip_11cxx_lib/inc/clock_11xx.h **** 	WDTLFO_OSC_2_70,	/*!< 2.7 MHz watchdog/LFO rate */
 147:../../lpc_chip_11cxx_lib/inc/clock_11xx.h **** 	WDTLFO_OSC_3_00,	/*!< 3.0 MHz watchdog/LFO rate */
 148:../../lpc_chip_11cxx_lib/inc/clock_11xx.h **** 	WDTLFO_OSC_3_25,	/*!< 3.25 MHz watchdog/LFO rate */
 149:../../lpc_chip_11cxx_lib/inc/clock_11xx.h **** 	WDTLFO_OSC_3_50,	/*!< 3.5 MHz watchdog/LFO rate */
 150:../../lpc_chip_11cxx_lib/inc/clock_11xx.h **** 	WDTLFO_OSC_3_75,	/*!< 3.75 MHz watchdog/LFO rate */
ARM GAS  /tmp/ccWdlvlX.s 			page 6


 151:../../lpc_chip_11cxx_lib/inc/clock_11xx.h **** 	WDTLFO_OSC_4_00,	/*!< 4.0 MHz watchdog/LFO rate */
 152:../../lpc_chip_11cxx_lib/inc/clock_11xx.h **** 	WDTLFO_OSC_4_20,	/*!< 4.2 MHz watchdog/LFO rate */
 153:../../lpc_chip_11cxx_lib/inc/clock_11xx.h **** 	WDTLFO_OSC_4_40,	/*!< 4.4 MHz watchdog/LFO rate */
 154:../../lpc_chip_11cxx_lib/inc/clock_11xx.h **** 	WDTLFO_OSC_4_60		/*!< 4.6 MHz watchdog/LFO rate */
 155:../../lpc_chip_11cxx_lib/inc/clock_11xx.h **** } CHIP_WDTLFO_OSC_T;
 156:../../lpc_chip_11cxx_lib/inc/clock_11xx.h **** 
 157:../../lpc_chip_11cxx_lib/inc/clock_11xx.h **** /**
 158:../../lpc_chip_11cxx_lib/inc/clock_11xx.h ****  * @brief	Setup Watchdog oscillator rate and divider
 159:../../lpc_chip_11cxx_lib/inc/clock_11xx.h ****  * @param	wdtclk	: Selected watchdog clock rate
 160:../../lpc_chip_11cxx_lib/inc/clock_11xx.h ****  * @param	div		: Watchdog divider value, even value between 2 and 64
 161:../../lpc_chip_11cxx_lib/inc/clock_11xx.h ****  * @return	Nothing
 162:../../lpc_chip_11cxx_lib/inc/clock_11xx.h ****  * @note	Watchdog rate = selected rate divided by divider rate
 163:../../lpc_chip_11cxx_lib/inc/clock_11xx.h ****  */
 164:../../lpc_chip_11cxx_lib/inc/clock_11xx.h **** STATIC INLINE void Chip_Clock_SetWDTOSC(CHIP_WDTLFO_OSC_T wdtclk, uint8_t div)
 165:../../lpc_chip_11cxx_lib/inc/clock_11xx.h **** {
 166:../../lpc_chip_11cxx_lib/inc/clock_11xx.h **** 	LPC_SYSCTL->WDTOSCCTRL  = (((uint32_t) wdtclk) << 5) | ((div >> 1) - 1);
 167:../../lpc_chip_11cxx_lib/inc/clock_11xx.h **** }
 168:../../lpc_chip_11cxx_lib/inc/clock_11xx.h **** 
 169:../../lpc_chip_11cxx_lib/inc/clock_11xx.h **** #if defined(CHIP_LPC11AXX)
 170:../../lpc_chip_11cxx_lib/inc/clock_11xx.h **** /**
 171:../../lpc_chip_11cxx_lib/inc/clock_11xx.h ****  * @brief	Setup low frequency oscillator rate and divider
 172:../../lpc_chip_11cxx_lib/inc/clock_11xx.h ****  * @param	lfoclk	: Selected low frequency clock rate
 173:../../lpc_chip_11cxx_lib/inc/clock_11xx.h ****  * @param	div		: Low frequency divider value, even value between 2 and 64
 174:../../lpc_chip_11cxx_lib/inc/clock_11xx.h ****  * @return	Nothing
 175:../../lpc_chip_11cxx_lib/inc/clock_11xx.h ****  * @note	Low frequency oscillator rate = selected rate divided by divider rate
 176:../../lpc_chip_11cxx_lib/inc/clock_11xx.h ****  */
 177:../../lpc_chip_11cxx_lib/inc/clock_11xx.h **** STATIC INLINE void Chip_Clock_SetLFOSC(CHIP_WDTLFO_OSC_T lfoclk, uint8_t div)
 178:../../lpc_chip_11cxx_lib/inc/clock_11xx.h **** {
 179:../../lpc_chip_11cxx_lib/inc/clock_11xx.h **** 	LPC_SYSCTL->LFOSCCTRL  = (((uint32_t) lfoclk) << 5) | ((div >> 1) - 1);
 180:../../lpc_chip_11cxx_lib/inc/clock_11xx.h **** }
 181:../../lpc_chip_11cxx_lib/inc/clock_11xx.h **** 
 182:../../lpc_chip_11cxx_lib/inc/clock_11xx.h **** #endif /*CHIP_LPC11AXX*/
 183:../../lpc_chip_11cxx_lib/inc/clock_11xx.h **** 
 184:../../lpc_chip_11cxx_lib/inc/clock_11xx.h **** /**
 185:../../lpc_chip_11cxx_lib/inc/clock_11xx.h ****  * Clock sources for main system clock
 186:../../lpc_chip_11cxx_lib/inc/clock_11xx.h ****  */
 187:../../lpc_chip_11cxx_lib/inc/clock_11xx.h **** typedef enum CHIP_SYSCTL_MAINCLKSRC {
 188:../../lpc_chip_11cxx_lib/inc/clock_11xx.h **** 	SYSCTL_MAINCLKSRC_IRC = 0,		/*!< Internal oscillator */
 189:../../lpc_chip_11cxx_lib/inc/clock_11xx.h **** 	SYSCTL_MAINCLKSRC_PLLIN,		/*!< System PLL input */
 190:../../lpc_chip_11cxx_lib/inc/clock_11xx.h **** 	SYSCTL_MAINCLKSRC_LFOSC,		/*!< LF oscillator rate (11Axx only) */
 191:../../lpc_chip_11cxx_lib/inc/clock_11xx.h **** 	SYSCTL_MAINCLKSRC_WDTOSC = SYSCTL_MAINCLKSRC_LFOSC,	/*!< Watchdog oscillator rate */
 192:../../lpc_chip_11cxx_lib/inc/clock_11xx.h **** 	SYSCTL_MAINCLKSRC_PLLOUT,		/*!< System PLL output */
 193:../../lpc_chip_11cxx_lib/inc/clock_11xx.h **** } CHIP_SYSCTL_MAINCLKSRC_T;
 194:../../lpc_chip_11cxx_lib/inc/clock_11xx.h **** 
 195:../../lpc_chip_11cxx_lib/inc/clock_11xx.h **** /**
 196:../../lpc_chip_11cxx_lib/inc/clock_11xx.h ****  * @brief	Set main system clock source
 197:../../lpc_chip_11cxx_lib/inc/clock_11xx.h ****  * @param	src	: Clock source for main system
 198:../../lpc_chip_11cxx_lib/inc/clock_11xx.h ****  * @return	Nothing
 199:../../lpc_chip_11cxx_lib/inc/clock_11xx.h ****  * @note	This function will also toggle the clock source update register
 200:../../lpc_chip_11cxx_lib/inc/clock_11xx.h ****  * to update the clock source.
 201:../../lpc_chip_11cxx_lib/inc/clock_11xx.h ****  */
 202:../../lpc_chip_11cxx_lib/inc/clock_11xx.h **** void Chip_Clock_SetMainClockSource(CHIP_SYSCTL_MAINCLKSRC_T src);
 203:../../lpc_chip_11cxx_lib/inc/clock_11xx.h **** 
 204:../../lpc_chip_11cxx_lib/inc/clock_11xx.h **** /**
 205:../../lpc_chip_11cxx_lib/inc/clock_11xx.h ****  * @brief   Returns the main clock source
 206:../../lpc_chip_11cxx_lib/inc/clock_11xx.h ****  * @return	Which clock is used for the core clock source?
 207:../../lpc_chip_11cxx_lib/inc/clock_11xx.h ****  */
ARM GAS  /tmp/ccWdlvlX.s 			page 7


 208:../../lpc_chip_11cxx_lib/inc/clock_11xx.h **** STATIC INLINE CHIP_SYSCTL_MAINCLKSRC_T Chip_Clock_GetMainClockSource(void)
 209:../../lpc_chip_11cxx_lib/inc/clock_11xx.h **** {
 210:../../lpc_chip_11cxx_lib/inc/clock_11xx.h **** 	return (CHIP_SYSCTL_MAINCLKSRC_T) (LPC_SYSCTL->MAINCLKSEL);
 211:../../lpc_chip_11cxx_lib/inc/clock_11xx.h **** }
 212:../../lpc_chip_11cxx_lib/inc/clock_11xx.h **** 
 213:../../lpc_chip_11cxx_lib/inc/clock_11xx.h **** /**
 214:../../lpc_chip_11cxx_lib/inc/clock_11xx.h ****  * @brief	Set system clock divider
 215:../../lpc_chip_11cxx_lib/inc/clock_11xx.h ****  * @param	div	: divider for system clock
 216:../../lpc_chip_11cxx_lib/inc/clock_11xx.h ****  * @return	Nothing
 217:../../lpc_chip_11cxx_lib/inc/clock_11xx.h ****  * @note	Use 0 to disable, or a divider value of 1 to 255. The system clock
 218:../../lpc_chip_11cxx_lib/inc/clock_11xx.h ****  * rate is the main system clock divided by this value.
 219:../../lpc_chip_11cxx_lib/inc/clock_11xx.h ****  */
 220:../../lpc_chip_11cxx_lib/inc/clock_11xx.h **** STATIC INLINE void Chip_Clock_SetSysClockDiv(uint32_t div)
 221:../../lpc_chip_11cxx_lib/inc/clock_11xx.h **** {
 222:../../lpc_chip_11cxx_lib/inc/clock_11xx.h **** 	LPC_SYSCTL->SYSAHBCLKDIV  = div;
 223:../../lpc_chip_11cxx_lib/inc/clock_11xx.h **** }
 224:../../lpc_chip_11cxx_lib/inc/clock_11xx.h **** 
 225:../../lpc_chip_11cxx_lib/inc/clock_11xx.h **** /**
 226:../../lpc_chip_11cxx_lib/inc/clock_11xx.h ****  * System and peripheral clocks
 227:../../lpc_chip_11cxx_lib/inc/clock_11xx.h ****  */
 228:../../lpc_chip_11cxx_lib/inc/clock_11xx.h **** typedef enum CHIP_SYSCTL_CLOCK {
 229:../../lpc_chip_11cxx_lib/inc/clock_11xx.h **** 	SYSCTL_CLOCK_SYS = 0,				/*!< 0: System clock */
 230:../../lpc_chip_11cxx_lib/inc/clock_11xx.h **** 	SYSCTL_CLOCK_ROM,					/*!<1:  ROM clock */
 231:../../lpc_chip_11cxx_lib/inc/clock_11xx.h **** 	SYSCTL_CLOCK_RAM,					/*!< 2: RAM clock */
 232:../../lpc_chip_11cxx_lib/inc/clock_11xx.h **** 	SYSCTL_CLOCK_FLASHREG,				/*!< 3: FLASH register interface clock */
 233:../../lpc_chip_11cxx_lib/inc/clock_11xx.h **** 	SYSCTL_CLOCK_FLASHARRAY,			/*!< 4: FLASH array access clock */
 234:../../lpc_chip_11cxx_lib/inc/clock_11xx.h **** #if defined(CHIP_LPC110X)
 235:../../lpc_chip_11cxx_lib/inc/clock_11xx.h **** 	SYSCTL_CLOCK_RESERVED5,				/*!< 5: Reserved */
 236:../../lpc_chip_11cxx_lib/inc/clock_11xx.h **** #else
 237:../../lpc_chip_11cxx_lib/inc/clock_11xx.h **** 	SYSCTL_CLOCK_I2C,					/*!< 5: I2C clock, not on LPC110x */
 238:../../lpc_chip_11cxx_lib/inc/clock_11xx.h **** #endif
 239:../../lpc_chip_11cxx_lib/inc/clock_11xx.h **** 	SYSCTL_CLOCK_GPIO,					/*!< 6: GPIO clock */
 240:../../lpc_chip_11cxx_lib/inc/clock_11xx.h **** 	SYSCTL_CLOCK_CT16B0,				/*!< 7: 16-bit Counter/timer 0 clock */
 241:../../lpc_chip_11cxx_lib/inc/clock_11xx.h **** 	SYSCTL_CLOCK_CT16B1,				/*!< 8: 16-bit Counter/timer 1 clock */
 242:../../lpc_chip_11cxx_lib/inc/clock_11xx.h **** 	SYSCTL_CLOCK_CT32B0,				/*!< 9: 32-bit Counter/timer 0 clock */
 243:../../lpc_chip_11cxx_lib/inc/clock_11xx.h **** 	SYSCTL_CLOCK_CT32B1,				/*!< 10: 32-bit Counter/timer 1 clock */
 244:../../lpc_chip_11cxx_lib/inc/clock_11xx.h **** 	SYSCTL_CLOCK_SSP0,					/*!< 11: SSP0 clock */
 245:../../lpc_chip_11cxx_lib/inc/clock_11xx.h **** 	SYSCTL_CLOCK_UART0,					/*!< 12: UART0 clock */
 246:../../lpc_chip_11cxx_lib/inc/clock_11xx.h **** 	SYSCTL_CLOCK_ADC,					/*!< 13: ADC clock */
 247:../../lpc_chip_11cxx_lib/inc/clock_11xx.h **** #if defined(CHIP_LPC11UXX)
 248:../../lpc_chip_11cxx_lib/inc/clock_11xx.h **** 	SYSCTL_CLOCK_USB,					/*!< 14: USB clock, LPC11Uxx only */
 249:../../lpc_chip_11cxx_lib/inc/clock_11xx.h **** #else
 250:../../lpc_chip_11cxx_lib/inc/clock_11xx.h **** 	SYSCTL_CLOCK_RESERVED14,			/*!< 14: Reserved */
 251:../../lpc_chip_11cxx_lib/inc/clock_11xx.h **** #endif
 252:../../lpc_chip_11cxx_lib/inc/clock_11xx.h **** 	SYSCTL_CLOCK_WDT,					/*!< 15: Watchdog timer clock */
 253:../../lpc_chip_11cxx_lib/inc/clock_11xx.h **** 	SYSCTL_CLOCK_IOCON,					/*!< 16: IOCON block clock */
 254:../../lpc_chip_11cxx_lib/inc/clock_11xx.h **** #if defined(CHIP_LPC11CXX)
 255:../../lpc_chip_11cxx_lib/inc/clock_11xx.h **** 	SYSCTL_CLOCK_CAN,					/*!< 17: CAN clock, LPC11Cxx only */
 256:../../lpc_chip_11cxx_lib/inc/clock_11xx.h **** #else
 257:../../lpc_chip_11cxx_lib/inc/clock_11xx.h **** 	SYSCTL_CLOCK_RESERVED17,			/*!< 17: Reserved */
 258:../../lpc_chip_11cxx_lib/inc/clock_11xx.h **** #endif
 259:../../lpc_chip_11cxx_lib/inc/clock_11xx.h **** #if !(defined(CHIP_LPC110X) || defined(CHIP_LPC11XXLV))  
 260:../../lpc_chip_11cxx_lib/inc/clock_11xx.h **** 	SYSCTL_CLOCK_SSP1,					/*!< 18: SSP1 clock, LPC11A/C/E/Uxx//1125 only */
 261:../../lpc_chip_11cxx_lib/inc/clock_11xx.h **** #if !defined(CHIP_LPC11CXX)
 262:../../lpc_chip_11cxx_lib/inc/clock_11xx.h **** 	SYSCTL_CLOCK_PINT,					/*!< 19: GPIO Pin int register interface clock, LPC11A/E/Uxx only */
 263:../../lpc_chip_11cxx_lib/inc/clock_11xx.h **** #if defined(CHIP_LPC11AXX)
 264:../../lpc_chip_11cxx_lib/inc/clock_11xx.h **** 	SYSCTL_CLOCK_ACOMP,					/*!< 20: Analog comparator clock, LPC11Axx only */
ARM GAS  /tmp/ccWdlvlX.s 			page 8


 265:../../lpc_chip_11cxx_lib/inc/clock_11xx.h **** 	SYSCTL_CLOCK_DAC,					/*!< 21: DAC clock, LPC11Axx only */
 266:../../lpc_chip_11cxx_lib/inc/clock_11xx.h **** #else
 267:../../lpc_chip_11cxx_lib/inc/clock_11xx.h **** 	SYSCTL_CLOCK_RESERVED20,			/*!< 20: Reserved */
 268:../../lpc_chip_11cxx_lib/inc/clock_11xx.h **** 	SYSCTL_CLOCK_RESERVED21,			/*!< 21: Reserved */
 269:../../lpc_chip_11cxx_lib/inc/clock_11xx.h **** #endif
 270:../../lpc_chip_11cxx_lib/inc/clock_11xx.h **** 	SYSCTL_CLOCK_RESERVED22,			/*!< 22: Reserved */
 271:../../lpc_chip_11cxx_lib/inc/clock_11xx.h **** 	SYSCTL_CLOCK_P0INT,					/*!< 23: GPIO GROUP1 interrupt register clock, LPC11Axx only */
 272:../../lpc_chip_11cxx_lib/inc/clock_11xx.h **** 	SYSCTL_CLOCK_GROUP0INT = SYSCTL_CLOCK_P0INT,/*!< 23: GPIO GROUP0 interrupt register interface cloc
 273:../../lpc_chip_11cxx_lib/inc/clock_11xx.h **** 	SYSCTL_CLOCK_P1INT,					/*!< 24: GPIO GROUP1 interrupt register clock, LPC11Axx only */
 274:../../lpc_chip_11cxx_lib/inc/clock_11xx.h **** 	SYSCTL_CLOCK_GROUP1INT = SYSCTL_CLOCK_P1INT,/*!< 24: GPIO GROUP1 interrupt register interface cloc
 275:../../lpc_chip_11cxx_lib/inc/clock_11xx.h **** 	SYSCTL_CLOCK_RESERVED25,			/*!< 25: Reserved */
 276:../../lpc_chip_11cxx_lib/inc/clock_11xx.h **** #if defined(CHIP_LPC11EXX)  || defined(CHIP_LPC11UXX)
 277:../../lpc_chip_11cxx_lib/inc/clock_11xx.h **** 	SYSCTL_CLOCK_RAM1,					/*!< 26: SRAM block (0x20000000) clock, LPC11E/Uxx only */
 278:../../lpc_chip_11cxx_lib/inc/clock_11xx.h **** #else
 279:../../lpc_chip_11cxx_lib/inc/clock_11xx.h **** 	SYSCTL_CLOCK_RESERVED26,			/*!< 26: Reserved */
 280:../../lpc_chip_11cxx_lib/inc/clock_11xx.h **** #endif
 281:../../lpc_chip_11cxx_lib/inc/clock_11xx.h **** #if defined(CHIP_LPC11UXX)
 282:../../lpc_chip_11cxx_lib/inc/clock_11xx.h **** 	SYSCTL_CLOCK_USBRAM,				/*!< 27: USB SRAM block clock, LPC11Uxx only */
 283:../../lpc_chip_11cxx_lib/inc/clock_11xx.h **** #else
 284:../../lpc_chip_11cxx_lib/inc/clock_11xx.h **** 	SYSCTL_CLOCK_RESERVED27,			/*!< 27: Reserved */
 285:../../lpc_chip_11cxx_lib/inc/clock_11xx.h **** #endif
 286:../../lpc_chip_11cxx_lib/inc/clock_11xx.h **** #endif /* !defined(CHIP_LPC11CXX) */
 287:../../lpc_chip_11cxx_lib/inc/clock_11xx.h **** #endif /* !(defined(CHIP_LPC110X) || defined(CHIP_LPC11XXLV)) */
 288:../../lpc_chip_11cxx_lib/inc/clock_11xx.h **** } CHIP_SYSCTL_CLOCK_T;
 289:../../lpc_chip_11cxx_lib/inc/clock_11xx.h **** 
 290:../../lpc_chip_11cxx_lib/inc/clock_11xx.h **** /**
 291:../../lpc_chip_11cxx_lib/inc/clock_11xx.h ****  * @brief	Enable a system or peripheral clock
 292:../../lpc_chip_11cxx_lib/inc/clock_11xx.h ****  * @param	clk	: Clock to enable
 293:../../lpc_chip_11cxx_lib/inc/clock_11xx.h ****  * @return	Nothing
 294:../../lpc_chip_11cxx_lib/inc/clock_11xx.h ****  */
 295:../../lpc_chip_11cxx_lib/inc/clock_11xx.h **** STATIC INLINE void Chip_Clock_EnablePeriphClock(CHIP_SYSCTL_CLOCK_T clk)
 296:../../lpc_chip_11cxx_lib/inc/clock_11xx.h **** {
 297:../../lpc_chip_11cxx_lib/inc/clock_11xx.h **** 	LPC_SYSCTL->SYSAHBCLKCTRL |= (1 << clk);
  81              		.loc 2 297 0
  82 0000 8022     		mov	r2, #128	@ tmp114,
  83 0002 4023     		mov	r3, #64	@ tmp115,
  84 0004 0249     		ldr	r1, .L2	@ tmp113,
  85              	.LBE27:
  86              	.LBE26:
  56:../../lpc_chip_11cxx_lib/src/gpio_11xx_2.c **** 	UNUSED(pGPIO);
  57:../../lpc_chip_11cxx_lib/src/gpio_11xx_2.c **** 	Chip_Clock_EnablePeriphClock(SYSCTL_CLOCK_GPIO);
  58:../../lpc_chip_11cxx_lib/src/gpio_11xx_2.c **** }
  87              		.loc 1 58 0
  88              		@ sp needed	@
  89              	.LBB29:
  90              	.LBB28:
  91              		.loc 2 297 0
  92 0006 8858     		ldr	r0, [r1, r2]	@ D.6285, MEM[(struct LPC_SYSCTL_T *)1074036736B].SYSAHBCLKCTRL
  93              	.LVL1:
  94 0008 0343     		orr	r3, r0	@ D.6285, D.6285
  95 000a 8B50     		str	r3, [r1, r2]	@ D.6285, MEM[(struct LPC_SYSCTL_T *)1074036736B].SYSAHBCLKCTRL
  96              	.LBE28:
  97              	.LBE29:
  98              		.loc 1 58 0
  99 000c 7047     		bx	lr
 100              	.L3:
 101 000e C046     		.align	2
ARM GAS  /tmp/ccWdlvlX.s 			page 9


 102              	.L2:
 103 0010 00800440 		.word	1074036736
 104              		.cfi_endproc
 105              	.LFE198:
 106              		.size	Chip_GPIO_Init, .-Chip_GPIO_Init
 107              		.section	.text.Chip_GPIO_DeInit,"ax",%progbits
 108              		.align	2
 109              		.global	Chip_GPIO_DeInit
 110              		.code	16
 111              		.thumb_func
 112              		.type	Chip_GPIO_DeInit, %function
 113              	Chip_GPIO_DeInit:
 114              	.LFB199:
  59:../../lpc_chip_11cxx_lib/src/gpio_11xx_2.c **** 
  60:../../lpc_chip_11cxx_lib/src/gpio_11xx_2.c **** /* De-Initialize GPIO block */
  61:../../lpc_chip_11cxx_lib/src/gpio_11xx_2.c **** void Chip_GPIO_DeInit(LPC_GPIO_T *pGPIO)
  62:../../lpc_chip_11cxx_lib/src/gpio_11xx_2.c **** {
 115              		.loc 1 62 0
 116              		.cfi_startproc
 117              	.LVL2:
 118              	.LBB30:
 119              	.LBB31:
 298:../../lpc_chip_11cxx_lib/inc/clock_11xx.h **** }
 299:../../lpc_chip_11cxx_lib/inc/clock_11xx.h **** 
 300:../../lpc_chip_11cxx_lib/inc/clock_11xx.h **** /**
 301:../../lpc_chip_11cxx_lib/inc/clock_11xx.h ****  * @brief	Disable a system or peripheral clock
 302:../../lpc_chip_11cxx_lib/inc/clock_11xx.h ****  * @param	clk	: Clock to disable
 303:../../lpc_chip_11cxx_lib/inc/clock_11xx.h ****  * @return	Nothing
 304:../../lpc_chip_11cxx_lib/inc/clock_11xx.h ****  */
 305:../../lpc_chip_11cxx_lib/inc/clock_11xx.h **** STATIC INLINE void Chip_Clock_DisablePeriphClock(CHIP_SYSCTL_CLOCK_T clk)
 306:../../lpc_chip_11cxx_lib/inc/clock_11xx.h **** {
 307:../../lpc_chip_11cxx_lib/inc/clock_11xx.h **** 	LPC_SYSCTL->SYSAHBCLKCTRL &= ~(1 << clk);
 120              		.loc 2 307 0
 121 0000 8022     		mov	r2, #128	@ tmp114,
 122 0002 4020     		mov	r0, #64	@ tmp115,
 123              	.LVL3:
 124 0004 0249     		ldr	r1, .L5	@ tmp113,
 125              	.LBE31:
 126              	.LBE30:
  63:../../lpc_chip_11cxx_lib/src/gpio_11xx_2.c **** 	UNUSED(pGPIO);
  64:../../lpc_chip_11cxx_lib/src/gpio_11xx_2.c **** 	Chip_Clock_DisablePeriphClock(SYSCTL_CLOCK_GPIO);
  65:../../lpc_chip_11cxx_lib/src/gpio_11xx_2.c **** }
 127              		.loc 1 65 0
 128              		@ sp needed	@
 129              	.LBB33:
 130              	.LBB32:
 131              		.loc 2 307 0
 132 0006 8B58     		ldr	r3, [r1, r2]	@ D.6288, MEM[(struct LPC_SYSCTL_T *)1074036736B].SYSAHBCLKCTRL
 133 0008 8343     		bic	r3, r0	@ D.6288, tmp115
 134 000a 8B50     		str	r3, [r1, r2]	@ D.6288, MEM[(struct LPC_SYSCTL_T *)1074036736B].SYSAHBCLKCTRL
 135              	.LBE32:
 136              	.LBE33:
 137              		.loc 1 65 0
 138 000c 7047     		bx	lr
 139              	.L6:
 140 000e C046     		.align	2
 141              	.L5:
ARM GAS  /tmp/ccWdlvlX.s 			page 10


 142 0010 00800440 		.word	1074036736
 143              		.cfi_endproc
 144              	.LFE199:
 145              		.size	Chip_GPIO_DeInit, .-Chip_GPIO_DeInit
 146              		.section	.text.Chip_GPIO_WriteDirBit,"ax",%progbits
 147              		.align	2
 148              		.global	Chip_GPIO_WriteDirBit
 149              		.code	16
 150              		.thumb_func
 151              		.type	Chip_GPIO_WriteDirBit, %function
 152              	Chip_GPIO_WriteDirBit:
 153              	.LFB200:
  66:../../lpc_chip_11cxx_lib/src/gpio_11xx_2.c **** 
  67:../../lpc_chip_11cxx_lib/src/gpio_11xx_2.c **** /* Set GPIO direction */
  68:../../lpc_chip_11cxx_lib/src/gpio_11xx_2.c **** void Chip_GPIO_WriteDirBit(LPC_GPIO_T *pGPIO, uint32_t port, uint8_t bit, bool setting)
  69:../../lpc_chip_11cxx_lib/src/gpio_11xx_2.c **** {
 154              		.loc 1 69 0
 155              		.cfi_startproc
 156              	.LVL4:
 157 0000 10B5     		push	{r4, lr}	@
 158              		.cfi_def_cfa_offset 8
 159              		.cfi_offset 4, -8
 160              		.cfi_offset 14, -4
  70:../../lpc_chip_11cxx_lib/src/gpio_11xx_2.c **** 	if (setting) {
  71:../../lpc_chip_11cxx_lib/src/gpio_11xx_2.c **** 		pGPIO[port].DIR |= 1UL << bit;
 161              		.loc 1 71 0
 162 0002 8024     		mov	r4, #128	@ tmp128,
 163 0004 0904     		lsl	r1, r1, #16	@ D.6291, port,
 164              	.LVL5:
 165 0006 4018     		add	r0, r0, r1	@ D.6292, pGPIO, D.6291
 166              	.LVL6:
 167 0008 2402     		lsl	r4, r4, #8	@ tmp128, tmp128,
  70:../../lpc_chip_11cxx_lib/src/gpio_11xx_2.c **** 	if (setting) {
 168              		.loc 1 70 0
 169 000a 002B     		cmp	r3, #0	@ setting,
 170 000c 05D1     		bne	.L11	@,
  72:../../lpc_chip_11cxx_lib/src/gpio_11xx_2.c **** 	}
  73:../../lpc_chip_11cxx_lib/src/gpio_11xx_2.c **** 	else {
  74:../../lpc_chip_11cxx_lib/src/gpio_11xx_2.c **** 		pGPIO[port].DIR &= ~(1UL << bit);
 171              		.loc 1 74 0
 172 000e 0121     		mov	r1, #1	@ tmp135,
 173 0010 9140     		lsl	r1, r1, r2	@ D.6291, D.6291, bit
 174 0012 0359     		ldr	r3, [r0, r4]	@ D.6291,
 175              	.LVL7:
 176 0014 8B43     		bic	r3, r1	@ D.6291, D.6291
 177 0016 0351     		str	r3, [r0, r4]	@ D.6291, _15->DIR
 178              	.LVL8:
 179              	.L7:
  75:../../lpc_chip_11cxx_lib/src/gpio_11xx_2.c **** 	}
  76:../../lpc_chip_11cxx_lib/src/gpio_11xx_2.c **** }
 180              		.loc 1 76 0
 181              		@ sp needed	@
 182 0018 10BD     		pop	{r4, pc}
 183              	.LVL9:
 184              	.L11:
  71:../../lpc_chip_11cxx_lib/src/gpio_11xx_2.c **** 	}
 185              		.loc 1 71 0
ARM GAS  /tmp/ccWdlvlX.s 			page 11


 186 001a 0121     		mov	r1, #1	@ tmp130,
 187 001c 9140     		lsl	r1, r1, r2	@ D.6291, D.6291, bit
 188 001e 0A1C     		mov	r2, r1	@ D.6291, D.6291
 189              	.LVL10:
 190 0020 0359     		ldr	r3, [r0, r4]	@ D.6291,
 191              	.LVL11:
 192 0022 1A43     		orr	r2, r3	@ D.6291, D.6291
 193 0024 0251     		str	r2, [r0, r4]	@ D.6291, _6->DIR
 194 0026 F7E7     		b	.L7	@
 195              		.cfi_endproc
 196              	.LFE200:
 197              		.size	Chip_GPIO_WriteDirBit, .-Chip_GPIO_WriteDirBit
 198              		.section	.text.Chip_GPIO_SetDir,"ax",%progbits
 199              		.align	2
 200              		.global	Chip_GPIO_SetDir
 201              		.code	16
 202              		.thumb_func
 203              		.type	Chip_GPIO_SetDir, %function
 204              	Chip_GPIO_SetDir:
 205              	.LFB201:
  77:../../lpc_chip_11cxx_lib/src/gpio_11xx_2.c **** 
  78:../../lpc_chip_11cxx_lib/src/gpio_11xx_2.c **** /* Set Direction for a GPIO port */
  79:../../lpc_chip_11cxx_lib/src/gpio_11xx_2.c **** void Chip_GPIO_SetDir(LPC_GPIO_T *pGPIO, uint8_t port, uint32_t bit, uint8_t out)
  80:../../lpc_chip_11cxx_lib/src/gpio_11xx_2.c **** {
 206              		.loc 1 80 0
 207              		.cfi_startproc
 208              	.LVL12:
  81:../../lpc_chip_11cxx_lib/src/gpio_11xx_2.c **** 	if (out) {
  82:../../lpc_chip_11cxx_lib/src/gpio_11xx_2.c **** 		pGPIO[port].DIR |= bit;
 209              		.loc 1 82 0
 210 0000 0904     		lsl	r1, r1, #16	@ D.6296, port,
 211              	.LVL13:
 212 0002 4018     		add	r0, r0, r1	@ D.6297, pGPIO, D.6296
 213              	.LVL14:
 214 0004 8021     		mov	r1, #128	@ tmp126,
 215 0006 0902     		lsl	r1, r1, #8	@ tmp126, tmp126,
  81:../../lpc_chip_11cxx_lib/src/gpio_11xx_2.c **** 	if (out) {
 216              		.loc 1 81 0
 217 0008 002B     		cmp	r3, #0	@ out,
 218 000a 03D1     		bne	.L15	@,
  83:../../lpc_chip_11cxx_lib/src/gpio_11xx_2.c **** 	}
  84:../../lpc_chip_11cxx_lib/src/gpio_11xx_2.c **** 	else {
  85:../../lpc_chip_11cxx_lib/src/gpio_11xx_2.c **** 		pGPIO[port].DIR &= ~bit;
 219              		.loc 1 85 0
 220 000c 4358     		ldr	r3, [r0, r1]	@ D.6298,
 221              	.LVL15:
 222 000e 9343     		bic	r3, r2	@ D.6298, bit
 223 0010 4350     		str	r3, [r0, r1]	@ D.6298, _15->DIR
 224              	.LVL16:
 225              	.L12:
  86:../../lpc_chip_11cxx_lib/src/gpio_11xx_2.c **** 	}
  87:../../lpc_chip_11cxx_lib/src/gpio_11xx_2.c **** }
 226              		.loc 1 87 0
 227              		@ sp needed	@
 228 0012 7047     		bx	lr
 229              	.LVL17:
 230              	.L15:
ARM GAS  /tmp/ccWdlvlX.s 			page 12


  82:../../lpc_chip_11cxx_lib/src/gpio_11xx_2.c **** 	}
 231              		.loc 1 82 0
 232 0014 4358     		ldr	r3, [r0, r1]	@ D.6298,
 233              	.LVL18:
 234 0016 1A43     		orr	r2, r3	@ D.6298, D.6298
 235              	.LVL19:
 236 0018 4250     		str	r2, [r0, r1]	@ D.6298, _7->DIR
 237 001a FAE7     		b	.L12	@
 238              		.cfi_endproc
 239              	.LFE201:
 240              		.size	Chip_GPIO_SetDir, .-Chip_GPIO_SetDir
 241              		.section	.text.Chip_GPIO_SetPinDIR,"ax",%progbits
 242              		.align	2
 243              		.global	Chip_GPIO_SetPinDIR
 244              		.code	16
 245              		.thumb_func
 246              		.type	Chip_GPIO_SetPinDIR, %function
 247              	Chip_GPIO_SetPinDIR:
 248              	.LFB202:
  88:../../lpc_chip_11cxx_lib/src/gpio_11xx_2.c **** 
  89:../../lpc_chip_11cxx_lib/src/gpio_11xx_2.c **** /* Set GPIO direction for a single GPIO pin */
  90:../../lpc_chip_11cxx_lib/src/gpio_11xx_2.c **** void Chip_GPIO_SetPinDIR(LPC_GPIO_T *pGPIO, uint8_t port, uint8_t pin, bool output)
  91:../../lpc_chip_11cxx_lib/src/gpio_11xx_2.c **** {
 249              		.loc 1 91 0
 250              		.cfi_startproc
 251              	.LVL20:
 252 0000 10B5     		push	{r4, lr}	@
 253              		.cfi_def_cfa_offset 8
 254              		.cfi_offset 4, -8
 255              		.cfi_offset 14, -4
 256              	.LBB34:
 257              	.LBB35:
 258              		.file 3 "../../lpc_chip_11cxx_lib/inc/gpio_11xx_2.h"
   1:../../lpc_chip_11cxx_lib/inc/gpio_11xx_2.h **** /*
   2:../../lpc_chip_11cxx_lib/inc/gpio_11xx_2.h ****  * @brief LPC11xx GPIO driver for CHIP_LPC11CXX, CHIP_LPC110X, CHIP_LPC11XXLV,
   3:../../lpc_chip_11cxx_lib/inc/gpio_11xx_2.h ****  * and CHIP_LPC1125 families only.
   4:../../lpc_chip_11cxx_lib/inc/gpio_11xx_2.h ****  *
   5:../../lpc_chip_11cxx_lib/inc/gpio_11xx_2.h ****  * @note
   6:../../lpc_chip_11cxx_lib/inc/gpio_11xx_2.h ****  * Copyright(C) NXP Semiconductors, 2013
   7:../../lpc_chip_11cxx_lib/inc/gpio_11xx_2.h ****  * All rights reserved.
   8:../../lpc_chip_11cxx_lib/inc/gpio_11xx_2.h ****  *
   9:../../lpc_chip_11cxx_lib/inc/gpio_11xx_2.h ****  * @par
  10:../../lpc_chip_11cxx_lib/inc/gpio_11xx_2.h ****  * Software that is described herein is for illustrative purposes only
  11:../../lpc_chip_11cxx_lib/inc/gpio_11xx_2.h ****  * which provides customers with programming information regarding the
  12:../../lpc_chip_11cxx_lib/inc/gpio_11xx_2.h ****  * LPC products.  This software is supplied "AS IS" without any warranties of
  13:../../lpc_chip_11cxx_lib/inc/gpio_11xx_2.h ****  * any kind, and NXP Semiconductors and its licensor disclaim any and
  14:../../lpc_chip_11cxx_lib/inc/gpio_11xx_2.h ****  * all warranties, express or implied, including all implied warranties of
  15:../../lpc_chip_11cxx_lib/inc/gpio_11xx_2.h ****  * merchantability, fitness for a particular purpose and non-infringement of
  16:../../lpc_chip_11cxx_lib/inc/gpio_11xx_2.h ****  * intellectual property rights.  NXP Semiconductors assumes no responsibility
  17:../../lpc_chip_11cxx_lib/inc/gpio_11xx_2.h ****  * or liability for the use of the software, conveys no license or rights under any
  18:../../lpc_chip_11cxx_lib/inc/gpio_11xx_2.h ****  * patent, copyright, mask work right, or any other intellectual property rights in
  19:../../lpc_chip_11cxx_lib/inc/gpio_11xx_2.h ****  * or to any products. NXP Semiconductors reserves the right to make changes
  20:../../lpc_chip_11cxx_lib/inc/gpio_11xx_2.h ****  * in the software without notification. NXP Semiconductors also makes no
  21:../../lpc_chip_11cxx_lib/inc/gpio_11xx_2.h ****  * representation or warranty that such application will be suitable for the
  22:../../lpc_chip_11cxx_lib/inc/gpio_11xx_2.h ****  * specified use without further testing or modification.
  23:../../lpc_chip_11cxx_lib/inc/gpio_11xx_2.h ****  *
  24:../../lpc_chip_11cxx_lib/inc/gpio_11xx_2.h ****  * @par
ARM GAS  /tmp/ccWdlvlX.s 			page 13


  25:../../lpc_chip_11cxx_lib/inc/gpio_11xx_2.h ****  * Permission to use, copy, modify, and distribute this software and its
  26:../../lpc_chip_11cxx_lib/inc/gpio_11xx_2.h ****  * documentation is hereby granted, under NXP Semiconductors' and its
  27:../../lpc_chip_11cxx_lib/inc/gpio_11xx_2.h ****  * licensor's relevant copyrights in the software, without fee, provided that it
  28:../../lpc_chip_11cxx_lib/inc/gpio_11xx_2.h ****  * is used in conjunction with NXP Semiconductors microcontrollers.  This
  29:../../lpc_chip_11cxx_lib/inc/gpio_11xx_2.h ****  * copyright, permission, and disclaimer notice must appear in all copies of
  30:../../lpc_chip_11cxx_lib/inc/gpio_11xx_2.h ****  * this code.
  31:../../lpc_chip_11cxx_lib/inc/gpio_11xx_2.h ****  */
  32:../../lpc_chip_11cxx_lib/inc/gpio_11xx_2.h **** 
  33:../../lpc_chip_11cxx_lib/inc/gpio_11xx_2.h **** #ifndef __GPIO_11XX_2_H_
  34:../../lpc_chip_11cxx_lib/inc/gpio_11xx_2.h **** #define __GPIO_11XX_2_H_
  35:../../lpc_chip_11cxx_lib/inc/gpio_11xx_2.h **** 
  36:../../lpc_chip_11cxx_lib/inc/gpio_11xx_2.h **** #ifdef __cplusplus
  37:../../lpc_chip_11cxx_lib/inc/gpio_11xx_2.h **** extern "C" {
  38:../../lpc_chip_11cxx_lib/inc/gpio_11xx_2.h **** #endif
  39:../../lpc_chip_11cxx_lib/inc/gpio_11xx_2.h **** 
  40:../../lpc_chip_11cxx_lib/inc/gpio_11xx_2.h **** /** @defgroup GPIO_11XX_2 CHIP: LPC11xx GPIO driver for CHIP_LPC11CXX, CHIP_LPC110X, and CHIP_LPC11
  41:../../lpc_chip_11cxx_lib/inc/gpio_11xx_2.h ****  * @ingroup CHIP_11XX_Drivers
  42:../../lpc_chip_11cxx_lib/inc/gpio_11xx_2.h ****  * For device familes identified with CHIP definitions CHIP_LPC11CXX,
  43:../../lpc_chip_11cxx_lib/inc/gpio_11xx_2.h ****  * CHIP_LPC110X, and CHIP_LPC11XXLV only.
  44:../../lpc_chip_11cxx_lib/inc/gpio_11xx_2.h ****  * @{
  45:../../lpc_chip_11cxx_lib/inc/gpio_11xx_2.h ****  */
  46:../../lpc_chip_11cxx_lib/inc/gpio_11xx_2.h **** 
  47:../../lpc_chip_11cxx_lib/inc/gpio_11xx_2.h **** #if defined(CHIP_LPC11CXX) || defined(CHIP_LPC110X) || defined(CHIP_LPC11XXLV) || defined(CHIP_LPC1
  48:../../lpc_chip_11cxx_lib/inc/gpio_11xx_2.h **** 
  49:../../lpc_chip_11cxx_lib/inc/gpio_11xx_2.h **** /**
  50:../../lpc_chip_11cxx_lib/inc/gpio_11xx_2.h ****  * @brief  GPIO port register block structure
  51:../../lpc_chip_11cxx_lib/inc/gpio_11xx_2.h ****  */
  52:../../lpc_chip_11cxx_lib/inc/gpio_11xx_2.h **** typedef struct {				/*!< GPIO_PORT Structure */
  53:../../lpc_chip_11cxx_lib/inc/gpio_11xx_2.h **** 	__IO uint32_t DATA[4096];			/*!< Offset: 0x0000 to 0x3FFC Data address masking register (R/W) */
  54:../../lpc_chip_11cxx_lib/inc/gpio_11xx_2.h **** 	uint32_t RESERVED1[4096];
  55:../../lpc_chip_11cxx_lib/inc/gpio_11xx_2.h **** 	__IO uint32_t DIR;					/*!< Offset: 0x8000 Data direction register (R/W) */
  56:../../lpc_chip_11cxx_lib/inc/gpio_11xx_2.h **** 	__IO uint32_t IS;					/*!< Offset: 0x8004 Interrupt sense register (R/W) */
  57:../../lpc_chip_11cxx_lib/inc/gpio_11xx_2.h **** 	__IO uint32_t IBE;					/*!< Offset: 0x8008 Interrupt both edges register (R/W) */
  58:../../lpc_chip_11cxx_lib/inc/gpio_11xx_2.h **** 	__IO uint32_t IEV;					/*!< Offset: 0x800C Interrupt event register  (R/W) */
  59:../../lpc_chip_11cxx_lib/inc/gpio_11xx_2.h **** 	__IO uint32_t IE;					/*!< Offset: 0x8010 Interrupt mask register (R/W) */
  60:../../lpc_chip_11cxx_lib/inc/gpio_11xx_2.h **** 	__I  uint32_t RIS;					/*!< Offset: 0x8014 Raw interrupt status register (R/ ) */
  61:../../lpc_chip_11cxx_lib/inc/gpio_11xx_2.h **** 	__I  uint32_t MIS;					/*!< Offset: 0x8018 Masked interrupt status register (R/ ) */
  62:../../lpc_chip_11cxx_lib/inc/gpio_11xx_2.h **** 	__O  uint32_t IC;					/*!< Offset: 0x801C Interrupt clear register (W) */
  63:../../lpc_chip_11cxx_lib/inc/gpio_11xx_2.h **** 	uint32_t RESERVED2[8184];			/* Padding added for aligning contiguous GPIO blocks */
  64:../../lpc_chip_11cxx_lib/inc/gpio_11xx_2.h **** } LPC_GPIO_T;
  65:../../lpc_chip_11cxx_lib/inc/gpio_11xx_2.h **** 
  66:../../lpc_chip_11cxx_lib/inc/gpio_11xx_2.h **** /**
  67:../../lpc_chip_11cxx_lib/inc/gpio_11xx_2.h ****  * @brief	Initialize GPIO block
  68:../../lpc_chip_11cxx_lib/inc/gpio_11xx_2.h ****  * @param	pGPIO	: The base of GPIO peripheral on the chip
  69:../../lpc_chip_11cxx_lib/inc/gpio_11xx_2.h ****  * @return	Nothing
  70:../../lpc_chip_11cxx_lib/inc/gpio_11xx_2.h ****  */
  71:../../lpc_chip_11cxx_lib/inc/gpio_11xx_2.h **** void Chip_GPIO_Init(LPC_GPIO_T *pGPIO);
  72:../../lpc_chip_11cxx_lib/inc/gpio_11xx_2.h **** 
  73:../../lpc_chip_11cxx_lib/inc/gpio_11xx_2.h **** /**
  74:../../lpc_chip_11cxx_lib/inc/gpio_11xx_2.h ****  * @brief	De-Initialize GPIO block
  75:../../lpc_chip_11cxx_lib/inc/gpio_11xx_2.h ****  * @param	pGPIO	: The base of GPIO peripheral on the chip
  76:../../lpc_chip_11cxx_lib/inc/gpio_11xx_2.h ****  * @return	Nothing
  77:../../lpc_chip_11cxx_lib/inc/gpio_11xx_2.h ****  */
  78:../../lpc_chip_11cxx_lib/inc/gpio_11xx_2.h **** void Chip_GPIO_DeInit(LPC_GPIO_T *pGPIO);
  79:../../lpc_chip_11cxx_lib/inc/gpio_11xx_2.h **** 
  80:../../lpc_chip_11cxx_lib/inc/gpio_11xx_2.h **** /**
  81:../../lpc_chip_11cxx_lib/inc/gpio_11xx_2.h ****  * @brief	Set a GPIO port/bit state
ARM GAS  /tmp/ccWdlvlX.s 			page 14


  82:../../lpc_chip_11cxx_lib/inc/gpio_11xx_2.h ****  * @param	pGPIO	: The base of GPIO peripheral on the chip
  83:../../lpc_chip_11cxx_lib/inc/gpio_11xx_2.h ****  * @param	port	: GPIO port to set
  84:../../lpc_chip_11cxx_lib/inc/gpio_11xx_2.h ****  * @param	bit		: GPIO bit to set
  85:../../lpc_chip_11cxx_lib/inc/gpio_11xx_2.h ****  * @param	setting	: true for high, false for low
  86:../../lpc_chip_11cxx_lib/inc/gpio_11xx_2.h ****  * @return	Nothing
  87:../../lpc_chip_11cxx_lib/inc/gpio_11xx_2.h ****  */
  88:../../lpc_chip_11cxx_lib/inc/gpio_11xx_2.h **** STATIC INLINE void Chip_GPIO_WritePortBit(LPC_GPIO_T *pGPIO, uint32_t port, uint8_t bit, bool setti
  89:../../lpc_chip_11cxx_lib/inc/gpio_11xx_2.h **** {
  90:../../lpc_chip_11cxx_lib/inc/gpio_11xx_2.h **** 	pGPIO[port].DATA[1 << bit] = setting << bit;
  91:../../lpc_chip_11cxx_lib/inc/gpio_11xx_2.h **** }
  92:../../lpc_chip_11cxx_lib/inc/gpio_11xx_2.h **** 
  93:../../lpc_chip_11cxx_lib/inc/gpio_11xx_2.h **** /**
  94:../../lpc_chip_11cxx_lib/inc/gpio_11xx_2.h ****  * @brief	Set a GPIO pin state via the GPIO byte register
  95:../../lpc_chip_11cxx_lib/inc/gpio_11xx_2.h ****  * @param	pGPIO	: The base of GPIO peripheral on the chip
  96:../../lpc_chip_11cxx_lib/inc/gpio_11xx_2.h ****  * @param	port	: Port number
  97:../../lpc_chip_11cxx_lib/inc/gpio_11xx_2.h ****  * @param	pin		: GPIO pin to set
  98:../../lpc_chip_11cxx_lib/inc/gpio_11xx_2.h ****  * @param	setting	: true for high, false for low
  99:../../lpc_chip_11cxx_lib/inc/gpio_11xx_2.h ****  * @return	Nothing
 100:../../lpc_chip_11cxx_lib/inc/gpio_11xx_2.h ****  * @note	This function replaces Chip_GPIO_WritePortBit()
 101:../../lpc_chip_11cxx_lib/inc/gpio_11xx_2.h ****  */
 102:../../lpc_chip_11cxx_lib/inc/gpio_11xx_2.h **** STATIC INLINE void Chip_GPIO_SetPinState(LPC_GPIO_T *pGPIO, uint8_t port, uint8_t pin, bool setting
 103:../../lpc_chip_11cxx_lib/inc/gpio_11xx_2.h **** {
 104:../../lpc_chip_11cxx_lib/inc/gpio_11xx_2.h **** 	pGPIO[port].DATA[1 << pin] = setting << pin;
 105:../../lpc_chip_11cxx_lib/inc/gpio_11xx_2.h **** }
 106:../../lpc_chip_11cxx_lib/inc/gpio_11xx_2.h **** 
 107:../../lpc_chip_11cxx_lib/inc/gpio_11xx_2.h **** /**
 108:../../lpc_chip_11cxx_lib/inc/gpio_11xx_2.h ****  * @brief	Read a GPIO state
 109:../../lpc_chip_11cxx_lib/inc/gpio_11xx_2.h ****  * @param	pGPIO	: The base of GPIO peripheral on the chip
 110:../../lpc_chip_11cxx_lib/inc/gpio_11xx_2.h ****  * @param	port	: GPIO port to read
 111:../../lpc_chip_11cxx_lib/inc/gpio_11xx_2.h ****  * @param	bit		: GPIO bit to read
 112:../../lpc_chip_11cxx_lib/inc/gpio_11xx_2.h ****  * @return	true of the GPIO is high, false if low
 113:../../lpc_chip_11cxx_lib/inc/gpio_11xx_2.h ****  * @note	It is recommended to use the Chip_GPIO_GetPinState() function instead.
 114:../../lpc_chip_11cxx_lib/inc/gpio_11xx_2.h ****  */
 115:../../lpc_chip_11cxx_lib/inc/gpio_11xx_2.h **** STATIC INLINE bool Chip_GPIO_ReadPortBit(LPC_GPIO_T *pGPIO, uint32_t port, uint8_t bit)
 116:../../lpc_chip_11cxx_lib/inc/gpio_11xx_2.h **** {
 117:../../lpc_chip_11cxx_lib/inc/gpio_11xx_2.h **** 	return (bool) ((pGPIO[port].DATA[1 << bit] >> bit) & 1);
 118:../../lpc_chip_11cxx_lib/inc/gpio_11xx_2.h **** }
 119:../../lpc_chip_11cxx_lib/inc/gpio_11xx_2.h **** 
 120:../../lpc_chip_11cxx_lib/inc/gpio_11xx_2.h **** /**
 121:../../lpc_chip_11cxx_lib/inc/gpio_11xx_2.h ****  * @brief	Get a GPIO pin state via the GPIO byte register
 122:../../lpc_chip_11cxx_lib/inc/gpio_11xx_2.h ****  * @param	pGPIO	: The base of GPIO peripheral on the chip
 123:../../lpc_chip_11cxx_lib/inc/gpio_11xx_2.h ****  * @param	port	: Port number
 124:../../lpc_chip_11cxx_lib/inc/gpio_11xx_2.h ****  * @param	pin		: GPIO pin to get state for
 125:../../lpc_chip_11cxx_lib/inc/gpio_11xx_2.h ****  * @return	true if the GPIO is high, false if low
 126:../../lpc_chip_11cxx_lib/inc/gpio_11xx_2.h ****  * @note	This function replaces Chip_GPIO_ReadPortBit()
 127:../../lpc_chip_11cxx_lib/inc/gpio_11xx_2.h ****  */
 128:../../lpc_chip_11cxx_lib/inc/gpio_11xx_2.h **** STATIC INLINE bool Chip_GPIO_GetPinState(LPC_GPIO_T *pGPIO, uint8_t port, uint8_t pin)
 129:../../lpc_chip_11cxx_lib/inc/gpio_11xx_2.h **** {
 130:../../lpc_chip_11cxx_lib/inc/gpio_11xx_2.h **** 	return (pGPIO[port].DATA[1 << pin]) != 0;
 131:../../lpc_chip_11cxx_lib/inc/gpio_11xx_2.h **** }
 132:../../lpc_chip_11cxx_lib/inc/gpio_11xx_2.h **** 
 133:../../lpc_chip_11cxx_lib/inc/gpio_11xx_2.h **** /**
 134:../../lpc_chip_11cxx_lib/inc/gpio_11xx_2.h ****  * @brief	Seta GPIO direction
 135:../../lpc_chip_11cxx_lib/inc/gpio_11xx_2.h ****  * @param	pGPIO	: The base of GPIO peripheral on the chip
 136:../../lpc_chip_11cxx_lib/inc/gpio_11xx_2.h ****  * @param	port	: GPIO port to set
 137:../../lpc_chip_11cxx_lib/inc/gpio_11xx_2.h ****  * @param	bit		: GPIO bit to set
 138:../../lpc_chip_11cxx_lib/inc/gpio_11xx_2.h ****  * @param	setting	: true for output, false for input
ARM GAS  /tmp/ccWdlvlX.s 			page 15


 139:../../lpc_chip_11cxx_lib/inc/gpio_11xx_2.h ****  * @return	Nothing
 140:../../lpc_chip_11cxx_lib/inc/gpio_11xx_2.h ****  * @note	It is recommended to use the Chip_GPIO_SetPinDIROutput(), 
 141:../../lpc_chip_11cxx_lib/inc/gpio_11xx_2.h ****  * Chip_GPIO_SetPinDIRInput() or Chip_GPIO_SetPinDIR() functions instead
 142:../../lpc_chip_11cxx_lib/inc/gpio_11xx_2.h ****  * of this function.
 143:../../lpc_chip_11cxx_lib/inc/gpio_11xx_2.h ****  */
 144:../../lpc_chip_11cxx_lib/inc/gpio_11xx_2.h **** void Chip_GPIO_WriteDirBit(LPC_GPIO_T *pGPIO, uint32_t port, uint8_t bit, bool setting);
 145:../../lpc_chip_11cxx_lib/inc/gpio_11xx_2.h **** 
 146:../../lpc_chip_11cxx_lib/inc/gpio_11xx_2.h **** /**
 147:../../lpc_chip_11cxx_lib/inc/gpio_11xx_2.h ****  * @brief	Set GPIO direction for a single GPIO pin to an output
 148:../../lpc_chip_11cxx_lib/inc/gpio_11xx_2.h ****  * @param	pGPIO	: The base of GPIO peripheral on the chip
 149:../../lpc_chip_11cxx_lib/inc/gpio_11xx_2.h ****  * @param	port	: Port number
 150:../../lpc_chip_11cxx_lib/inc/gpio_11xx_2.h ****  * @param	pin		: GPIO pin to set direction on as output
 151:../../lpc_chip_11cxx_lib/inc/gpio_11xx_2.h ****  * @return	Nothing
 152:../../lpc_chip_11cxx_lib/inc/gpio_11xx_2.h ****  */
 153:../../lpc_chip_11cxx_lib/inc/gpio_11xx_2.h **** STATIC INLINE void Chip_GPIO_SetPinDIROutput(LPC_GPIO_T *pGPIO, uint8_t port, uint8_t pin)
 154:../../lpc_chip_11cxx_lib/inc/gpio_11xx_2.h **** {
 155:../../lpc_chip_11cxx_lib/inc/gpio_11xx_2.h **** 	pGPIO[port].DIR |= (1UL << pin);
 259              		.loc 3 155 0
 260 0002 8024     		mov	r4, #128	@ tmp130,
 261 0004 0904     		lsl	r1, r1, #16	@ D.6301, port,
 262              	.LVL21:
 263 0006 4018     		add	r0, r0, r1	@ D.6302, pGPIO, D.6301
 264              	.LVL22:
 265 0008 2402     		lsl	r4, r4, #8	@ tmp130, tmp130,
 266              	.LBE35:
 267              	.LBE34:
  92:../../lpc_chip_11cxx_lib/src/gpio_11xx_2.c **** 	if (output) {
 268              		.loc 1 92 0
 269 000a 002B     		cmp	r3, #0	@ output,
 270 000c 05D1     		bne	.L19	@,
 271              	.LVL23:
 272              	.LBB37:
 273              	.LBB38:
 156:../../lpc_chip_11cxx_lib/inc/gpio_11xx_2.h **** }
 157:../../lpc_chip_11cxx_lib/inc/gpio_11xx_2.h **** 
 158:../../lpc_chip_11cxx_lib/inc/gpio_11xx_2.h **** /**
 159:../../lpc_chip_11cxx_lib/inc/gpio_11xx_2.h ****  * @brief	Set GPIO direction for a single GPIO pin to an input
 160:../../lpc_chip_11cxx_lib/inc/gpio_11xx_2.h ****  * @param	pGPIO	: The base of GPIO peripheral on the chip
 161:../../lpc_chip_11cxx_lib/inc/gpio_11xx_2.h ****  * @param	port	: Port number
 162:../../lpc_chip_11cxx_lib/inc/gpio_11xx_2.h ****  * @param	pin		: GPIO pin to set direction on as input
 163:../../lpc_chip_11cxx_lib/inc/gpio_11xx_2.h ****  * @return	Nothing
 164:../../lpc_chip_11cxx_lib/inc/gpio_11xx_2.h ****  */
 165:../../lpc_chip_11cxx_lib/inc/gpio_11xx_2.h **** STATIC INLINE void Chip_GPIO_SetPinDIRInput(LPC_GPIO_T *pGPIO, uint8_t port, uint8_t pin)
 166:../../lpc_chip_11cxx_lib/inc/gpio_11xx_2.h **** {
 167:../../lpc_chip_11cxx_lib/inc/gpio_11xx_2.h **** 	pGPIO[port].DIR &= ~(1UL << pin);
 274              		.loc 3 167 0
 275 000e 0121     		mov	r1, #1	@ tmp137,
 276 0010 9140     		lsl	r1, r1, r2	@ D.6303, D.6303, pin
 277 0012 0359     		ldr	r3, [r0, r4]	@ D.6303,
 278              	.LVL24:
 279 0014 8B43     		bic	r3, r1	@ D.6303, D.6303
 280 0016 0351     		str	r3, [r0, r4]	@ D.6303, _17->DIR
 281              	.LVL25:
 282              	.L16:
 283              	.LBE38:
 284              	.LBE37:
  93:../../lpc_chip_11cxx_lib/src/gpio_11xx_2.c **** 		Chip_GPIO_SetPinDIROutput(pGPIO, port, pin);
ARM GAS  /tmp/ccWdlvlX.s 			page 16


  94:../../lpc_chip_11cxx_lib/src/gpio_11xx_2.c **** 	}
  95:../../lpc_chip_11cxx_lib/src/gpio_11xx_2.c **** 	else {
  96:../../lpc_chip_11cxx_lib/src/gpio_11xx_2.c **** 		Chip_GPIO_SetPinDIRInput(pGPIO, port, pin);
  97:../../lpc_chip_11cxx_lib/src/gpio_11xx_2.c **** 	}
  98:../../lpc_chip_11cxx_lib/src/gpio_11xx_2.c **** }
 285              		.loc 1 98 0
 286              		@ sp needed	@
 287 0018 10BD     		pop	{r4, pc}
 288              	.LVL26:
 289              	.L19:
 290              	.LBB39:
 291              	.LBB36:
 155:../../lpc_chip_11cxx_lib/inc/gpio_11xx_2.h **** }
 292              		.loc 3 155 0
 293 001a 0121     		mov	r1, #1	@ tmp132,
 294 001c 9140     		lsl	r1, r1, r2	@ D.6303, D.6303, pin
 295 001e 0A1C     		mov	r2, r1	@ D.6303, D.6303
 296              	.LVL27:
 297 0020 0359     		ldr	r3, [r0, r4]	@ D.6303,
 298              	.LVL28:
 299 0022 1A43     		orr	r2, r3	@ D.6303, D.6303
 300 0024 0251     		str	r2, [r0, r4]	@ D.6303, _11->DIR
 301 0026 F7E7     		b	.L16	@
 302              	.LBE36:
 303              	.LBE39:
 304              		.cfi_endproc
 305              	.LFE202:
 306              		.size	Chip_GPIO_SetPinDIR, .-Chip_GPIO_SetPinDIR
 307              		.section	.text.Chip_GPIO_SetPortDIR,"ax",%progbits
 308              		.align	2
 309              		.global	Chip_GPIO_SetPortDIR
 310              		.code	16
 311              		.thumb_func
 312              		.type	Chip_GPIO_SetPortDIR, %function
 313              	Chip_GPIO_SetPortDIR:
 314              	.LFB203:
  99:../../lpc_chip_11cxx_lib/src/gpio_11xx_2.c **** 
 100:../../lpc_chip_11cxx_lib/src/gpio_11xx_2.c **** 
 101:../../lpc_chip_11cxx_lib/src/gpio_11xx_2.c **** /* Set GPIO direction for a all selected GPIO pins to an input or output */
 102:../../lpc_chip_11cxx_lib/src/gpio_11xx_2.c **** void Chip_GPIO_SetPortDIR(LPC_GPIO_T *pGPIO, uint8_t port, uint32_t pinMask, bool outSet)
 103:../../lpc_chip_11cxx_lib/src/gpio_11xx_2.c **** {
 315              		.loc 1 103 0
 316              		.cfi_startproc
 317              	.LVL29:
 318              	.LBB40:
 319              	.LBB41:
 168:../../lpc_chip_11cxx_lib/inc/gpio_11xx_2.h **** }
 169:../../lpc_chip_11cxx_lib/inc/gpio_11xx_2.h **** 
 170:../../lpc_chip_11cxx_lib/inc/gpio_11xx_2.h **** /**
 171:../../lpc_chip_11cxx_lib/inc/gpio_11xx_2.h ****  * @brief	Set GPIO direction for a single GPIO pin
 172:../../lpc_chip_11cxx_lib/inc/gpio_11xx_2.h ****  * @param	pGPIO	: The base of GPIO peripheral on the chip
 173:../../lpc_chip_11cxx_lib/inc/gpio_11xx_2.h ****  * @param	port	: Port number
 174:../../lpc_chip_11cxx_lib/inc/gpio_11xx_2.h ****  * @param	pin		: GPIO pin to set direction for
 175:../../lpc_chip_11cxx_lib/inc/gpio_11xx_2.h ****  * @param	output	: true for output, false for input
 176:../../lpc_chip_11cxx_lib/inc/gpio_11xx_2.h ****  * @return	Nothing
 177:../../lpc_chip_11cxx_lib/inc/gpio_11xx_2.h ****  */
 178:../../lpc_chip_11cxx_lib/inc/gpio_11xx_2.h **** void Chip_GPIO_SetPinDIR(LPC_GPIO_T *pGPIO, uint8_t port, uint8_t pin, bool output);
ARM GAS  /tmp/ccWdlvlX.s 			page 17


 179:../../lpc_chip_11cxx_lib/inc/gpio_11xx_2.h **** 
 180:../../lpc_chip_11cxx_lib/inc/gpio_11xx_2.h **** /**
 181:../../lpc_chip_11cxx_lib/inc/gpio_11xx_2.h ****  * @brief	Read a GPIO direction (out or in)
 182:../../lpc_chip_11cxx_lib/inc/gpio_11xx_2.h ****  * @param	pGPIO	: The base of GPIO peripheral on the chip
 183:../../lpc_chip_11cxx_lib/inc/gpio_11xx_2.h ****  * @param	port	: GPIO port to read
 184:../../lpc_chip_11cxx_lib/inc/gpio_11xx_2.h ****  * @param	bit		: GPIO bit to read
 185:../../lpc_chip_11cxx_lib/inc/gpio_11xx_2.h ****  * @return	true of the GPIO is an output, false if input
 186:../../lpc_chip_11cxx_lib/inc/gpio_11xx_2.h ****  * @note	It is recommended to use the Chip_GPIO_GetPinDIR() function instead.
 187:../../lpc_chip_11cxx_lib/inc/gpio_11xx_2.h ****  */
 188:../../lpc_chip_11cxx_lib/inc/gpio_11xx_2.h **** STATIC INLINE bool Chip_GPIO_ReadDirBit(LPC_GPIO_T *pGPIO, uint32_t port, uint8_t bit)
 189:../../lpc_chip_11cxx_lib/inc/gpio_11xx_2.h **** {
 190:../../lpc_chip_11cxx_lib/inc/gpio_11xx_2.h **** 	return (bool) (((pGPIO[port].DIR) >> bit) & 1);
 191:../../lpc_chip_11cxx_lib/inc/gpio_11xx_2.h **** }
 192:../../lpc_chip_11cxx_lib/inc/gpio_11xx_2.h **** 
 193:../../lpc_chip_11cxx_lib/inc/gpio_11xx_2.h **** /**
 194:../../lpc_chip_11cxx_lib/inc/gpio_11xx_2.h ****  * @brief	Get GPIO direction for a single GPIO pin
 195:../../lpc_chip_11cxx_lib/inc/gpio_11xx_2.h ****  * @param	pGPIO	: The base of GPIO peripheral on the chip
 196:../../lpc_chip_11cxx_lib/inc/gpio_11xx_2.h ****  * @param	port	: Port number
 197:../../lpc_chip_11cxx_lib/inc/gpio_11xx_2.h ****  * @param	pin		: GPIO pin to get direction for
 198:../../lpc_chip_11cxx_lib/inc/gpio_11xx_2.h ****  * @return	true if the GPIO is an output, false if input
 199:../../lpc_chip_11cxx_lib/inc/gpio_11xx_2.h ****  */
 200:../../lpc_chip_11cxx_lib/inc/gpio_11xx_2.h **** STATIC INLINE bool Chip_GPIO_GetPinDIR(LPC_GPIO_T *pGPIO, uint8_t port, uint8_t pin)
 201:../../lpc_chip_11cxx_lib/inc/gpio_11xx_2.h **** {
 202:../../lpc_chip_11cxx_lib/inc/gpio_11xx_2.h **** 	return (bool) (pGPIO[port].DIR >> pin) & 1;
 203:../../lpc_chip_11cxx_lib/inc/gpio_11xx_2.h **** }
 204:../../lpc_chip_11cxx_lib/inc/gpio_11xx_2.h **** 
 205:../../lpc_chip_11cxx_lib/inc/gpio_11xx_2.h **** /**
 206:../../lpc_chip_11cxx_lib/inc/gpio_11xx_2.h ****  * @brief	Set Direction for a GPIO port
 207:../../lpc_chip_11cxx_lib/inc/gpio_11xx_2.h ****  * @param	pGPIO	: The base of GPIO peripheral on the chip
 208:../../lpc_chip_11cxx_lib/inc/gpio_11xx_2.h ****  * @param	port	: Port Number
 209:../../lpc_chip_11cxx_lib/inc/gpio_11xx_2.h ****  * @param	bit		: GPIO bit to set
 210:../../lpc_chip_11cxx_lib/inc/gpio_11xx_2.h ****  * @param	out		: Direction value, 0 = input, !0 = output
 211:../../lpc_chip_11cxx_lib/inc/gpio_11xx_2.h ****  * @return	None
 212:../../lpc_chip_11cxx_lib/inc/gpio_11xx_2.h ****  * @note	Bits set to '0' are not altered. It is recommended to use the
 213:../../lpc_chip_11cxx_lib/inc/gpio_11xx_2.h ****  * Chip_GPIO_SetPortDIR() function instead.
 214:../../lpc_chip_11cxx_lib/inc/gpio_11xx_2.h ****  */
 215:../../lpc_chip_11cxx_lib/inc/gpio_11xx_2.h **** void Chip_GPIO_SetDir(LPC_GPIO_T *pGPIO, uint8_t port, uint32_t bit, uint8_t out);
 216:../../lpc_chip_11cxx_lib/inc/gpio_11xx_2.h **** 
 217:../../lpc_chip_11cxx_lib/inc/gpio_11xx_2.h **** /**
 218:../../lpc_chip_11cxx_lib/inc/gpio_11xx_2.h ****  * @brief	Set GPIO direction for a all selected GPIO pins to an output
 219:../../lpc_chip_11cxx_lib/inc/gpio_11xx_2.h ****  * @param	pGPIO	: The base of GPIO peripheral on the chip
 220:../../lpc_chip_11cxx_lib/inc/gpio_11xx_2.h ****  * @param	port	: Port number
 221:../../lpc_chip_11cxx_lib/inc/gpio_11xx_2.h ****  * @param	pinMask	: GPIO pin mask to set direction on as output (bits 0..n for pins 0..n)
 222:../../lpc_chip_11cxx_lib/inc/gpio_11xx_2.h ****  * @return	Nothing
 223:../../lpc_chip_11cxx_lib/inc/gpio_11xx_2.h ****  * @note	Sets multiple GPIO pins to the output direction, each bit's position that is
 224:../../lpc_chip_11cxx_lib/inc/gpio_11xx_2.h ****  * high sets the corresponding pin number for that bit to an output.
 225:../../lpc_chip_11cxx_lib/inc/gpio_11xx_2.h ****  */
 226:../../lpc_chip_11cxx_lib/inc/gpio_11xx_2.h **** STATIC INLINE void Chip_GPIO_SetPortDIROutput(LPC_GPIO_T *pGPIO, uint8_t port, uint32_t pinMask)
 227:../../lpc_chip_11cxx_lib/inc/gpio_11xx_2.h **** {
 228:../../lpc_chip_11cxx_lib/inc/gpio_11xx_2.h **** 	pGPIO[port].DIR |= pinMask;
 320              		.loc 3 228 0
 321 0000 0904     		lsl	r1, r1, #16	@ D.6307, port,
 322              	.LVL30:
 323 0002 4018     		add	r0, r0, r1	@ D.6308, pGPIO, D.6307
 324              	.LVL31:
 325 0004 8021     		mov	r1, #128	@ tmp126,
 326 0006 0902     		lsl	r1, r1, #8	@ tmp126, tmp126,
ARM GAS  /tmp/ccWdlvlX.s 			page 18


 327              	.LBE41:
 328              	.LBE40:
 104:../../lpc_chip_11cxx_lib/src/gpio_11xx_2.c **** 	if (outSet) {
 329              		.loc 1 104 0
 330 0008 002B     		cmp	r3, #0	@ outSet,
 331 000a 03D1     		bne	.L23	@,
 332              	.LVL32:
 333              	.LBB43:
 334              	.LBB44:
 229:../../lpc_chip_11cxx_lib/inc/gpio_11xx_2.h **** }
 230:../../lpc_chip_11cxx_lib/inc/gpio_11xx_2.h **** 
 231:../../lpc_chip_11cxx_lib/inc/gpio_11xx_2.h **** /**
 232:../../lpc_chip_11cxx_lib/inc/gpio_11xx_2.h ****  * @brief	Set GPIO direction for a all selected GPIO pins to an input
 233:../../lpc_chip_11cxx_lib/inc/gpio_11xx_2.h ****  * @param	pGPIO	: The base of GPIO peripheral on the chip
 234:../../lpc_chip_11cxx_lib/inc/gpio_11xx_2.h ****  * @param	port	: Port number
 235:../../lpc_chip_11cxx_lib/inc/gpio_11xx_2.h ****  * @param	pinMask	: GPIO pin mask to set direction on as input (bits 0..b for pins 0..n)
 236:../../lpc_chip_11cxx_lib/inc/gpio_11xx_2.h ****  * @return	Nothing
 237:../../lpc_chip_11cxx_lib/inc/gpio_11xx_2.h ****  * @note	Sets multiple GPIO pins to the input direction, each bit's position that is
 238:../../lpc_chip_11cxx_lib/inc/gpio_11xx_2.h ****  * high sets the corresponding pin number for that bit to an input.
 239:../../lpc_chip_11cxx_lib/inc/gpio_11xx_2.h ****  */
 240:../../lpc_chip_11cxx_lib/inc/gpio_11xx_2.h **** STATIC INLINE void Chip_GPIO_SetPortDIRInput(LPC_GPIO_T *pGPIO, uint8_t port, uint32_t pinMask)
 241:../../lpc_chip_11cxx_lib/inc/gpio_11xx_2.h **** {
 242:../../lpc_chip_11cxx_lib/inc/gpio_11xx_2.h **** 	pGPIO[port].DIR &= ~pinMask;
 335              		.loc 3 242 0
 336 000c 4358     		ldr	r3, [r0, r1]	@ D.6309,
 337              	.LVL33:
 338 000e 9343     		bic	r3, r2	@ D.6309, pinMask
 339 0010 4350     		str	r3, [r0, r1]	@ D.6309, _15->DIR
 340              	.LVL34:
 341              	.L20:
 342              	.LBE44:
 343              	.LBE43:
 105:../../lpc_chip_11cxx_lib/src/gpio_11xx_2.c **** 		Chip_GPIO_SetPortDIROutput(pGPIO, port, pinMask);
 106:../../lpc_chip_11cxx_lib/src/gpio_11xx_2.c **** 	}
 107:../../lpc_chip_11cxx_lib/src/gpio_11xx_2.c **** 	else {
 108:../../lpc_chip_11cxx_lib/src/gpio_11xx_2.c **** 		Chip_GPIO_SetPortDIRInput(pGPIO, port, pinMask);
 109:../../lpc_chip_11cxx_lib/src/gpio_11xx_2.c **** 	}
 110:../../lpc_chip_11cxx_lib/src/gpio_11xx_2.c **** }
 344              		.loc 1 110 0
 345              		@ sp needed	@
 346 0012 7047     		bx	lr
 347              	.LVL35:
 348              	.L23:
 349              	.LBB45:
 350              	.LBB42:
 228:../../lpc_chip_11cxx_lib/inc/gpio_11xx_2.h **** }
 351              		.loc 3 228 0
 352 0014 4358     		ldr	r3, [r0, r1]	@ D.6309,
 353              	.LVL36:
 354 0016 1A43     		orr	r2, r3	@ D.6309, D.6309
 355              	.LVL37:
 356 0018 4250     		str	r2, [r0, r1]	@ D.6309, _11->DIR
 357 001a FAE7     		b	.L20	@
 358              	.LBE42:
 359              	.LBE45:
 360              		.cfi_endproc
 361              	.LFE203:
ARM GAS  /tmp/ccWdlvlX.s 			page 19


 362              		.size	Chip_GPIO_SetPortDIR, .-Chip_GPIO_SetPortDIR
 363              		.section	.text.Chip_GPIO_SetupPinInt,"ax",%progbits
 364              		.align	2
 365              		.global	Chip_GPIO_SetupPinInt
 366              		.code	16
 367              		.thumb_func
 368              		.type	Chip_GPIO_SetupPinInt, %function
 369              	Chip_GPIO_SetupPinInt:
 370              	.LFB204:
 111:../../lpc_chip_11cxx_lib/src/gpio_11xx_2.c **** 
 112:../../lpc_chip_11cxx_lib/src/gpio_11xx_2.c **** /* Composite function for setting up a full interrupt configuration for a single pin */
 113:../../lpc_chip_11cxx_lib/src/gpio_11xx_2.c **** void Chip_GPIO_SetupPinInt(LPC_GPIO_T *pGPIO, uint8_t port, uint8_t pin, GPIO_INT_MODE_T mode)
 114:../../lpc_chip_11cxx_lib/src/gpio_11xx_2.c **** {
 371              		.loc 1 114 0
 372              		.cfi_startproc
 373              	.LVL38:
 374 0000 30B5     		push	{r4, r5, lr}	@
 375              		.cfi_def_cfa_offset 12
 376              		.cfi_offset 4, -12
 377              		.cfi_offset 5, -8
 378              		.cfi_offset 14, -4
 115:../../lpc_chip_11cxx_lib/src/gpio_11xx_2.c **** 	uint32_t pinMask = (1 << pin);
 379              		.loc 1 115 0
 380 0002 0124     		mov	r4, #1	@ tmp139,
 381 0004 9440     		lsl	r4, r4, r2	@ pinMask, pinMask, pin
 382              	.LBB46:
 383              	.LBB47:
 243:../../lpc_chip_11cxx_lib/inc/gpio_11xx_2.h **** }
 244:../../lpc_chip_11cxx_lib/inc/gpio_11xx_2.h **** 
 245:../../lpc_chip_11cxx_lib/inc/gpio_11xx_2.h **** /**
 246:../../lpc_chip_11cxx_lib/inc/gpio_11xx_2.h ****  * @brief	Set GPIO direction for a all selected GPIO pins to an input or output
 247:../../lpc_chip_11cxx_lib/inc/gpio_11xx_2.h ****  * @param	pGPIO	: The base of GPIO peripheral on the chip
 248:../../lpc_chip_11cxx_lib/inc/gpio_11xx_2.h ****  * @param	port	: Port number
 249:../../lpc_chip_11cxx_lib/inc/gpio_11xx_2.h ****  * @param	pinMask	: GPIO pin mask to set direction on (bits 0..b for pins 0..n)
 250:../../lpc_chip_11cxx_lib/inc/gpio_11xx_2.h ****  * @param	outSet	: Direction value, false = set as inputs, true = set as outputs
 251:../../lpc_chip_11cxx_lib/inc/gpio_11xx_2.h ****  * @return	Nothing
 252:../../lpc_chip_11cxx_lib/inc/gpio_11xx_2.h ****  * @note	Sets multiple GPIO pins to the input direction, each bit's position that is
 253:../../lpc_chip_11cxx_lib/inc/gpio_11xx_2.h ****  * high sets the corresponding pin number for that bit to an input.
 254:../../lpc_chip_11cxx_lib/inc/gpio_11xx_2.h ****  */
 255:../../lpc_chip_11cxx_lib/inc/gpio_11xx_2.h **** void Chip_GPIO_SetPortDIR(LPC_GPIO_T *pGPIO, uint8_t port, uint32_t pinMask, bool outSet);
 256:../../lpc_chip_11cxx_lib/inc/gpio_11xx_2.h **** 
 257:../../lpc_chip_11cxx_lib/inc/gpio_11xx_2.h **** /**
 258:../../lpc_chip_11cxx_lib/inc/gpio_11xx_2.h ****  * @brief	Get GPIO direction for a all GPIO pins
 259:../../lpc_chip_11cxx_lib/inc/gpio_11xx_2.h ****  * @param	pGPIO	: The base of GPIO peripheral on the chip
 260:../../lpc_chip_11cxx_lib/inc/gpio_11xx_2.h ****  * @param	port	: Port number
 261:../../lpc_chip_11cxx_lib/inc/gpio_11xx_2.h ****  * @return	a bitfield containing the input and output states for each pin
 262:../../lpc_chip_11cxx_lib/inc/gpio_11xx_2.h ****  * @note	For pins 0..n, a high state in a bit corresponds to an output state for the
 263:../../lpc_chip_11cxx_lib/inc/gpio_11xx_2.h ****  * same pin, while a low  state corresponds to an input state.
 264:../../lpc_chip_11cxx_lib/inc/gpio_11xx_2.h ****  */
 265:../../lpc_chip_11cxx_lib/inc/gpio_11xx_2.h **** STATIC INLINE uint32_t Chip_GPIO_GetPortDIR(LPC_GPIO_T *pGPIO, uint8_t port)
 266:../../lpc_chip_11cxx_lib/inc/gpio_11xx_2.h **** {
 267:../../lpc_chip_11cxx_lib/inc/gpio_11xx_2.h **** 	return pGPIO[port].DIR;
 268:../../lpc_chip_11cxx_lib/inc/gpio_11xx_2.h **** }
 269:../../lpc_chip_11cxx_lib/inc/gpio_11xx_2.h **** 
 270:../../lpc_chip_11cxx_lib/inc/gpio_11xx_2.h **** /**
 271:../../lpc_chip_11cxx_lib/inc/gpio_11xx_2.h ****  * @brief	Set all GPIO raw pin states (regardless of masking)
 272:../../lpc_chip_11cxx_lib/inc/gpio_11xx_2.h ****  * @param	pGPIO	: The base of GPIO peripheral on the chip
ARM GAS  /tmp/ccWdlvlX.s 			page 20


 273:../../lpc_chip_11cxx_lib/inc/gpio_11xx_2.h ****  * @param	port	: Port number
 274:../../lpc_chip_11cxx_lib/inc/gpio_11xx_2.h ****  * @param	value	: Value to set all GPIO pin states (0..n) to
 275:../../lpc_chip_11cxx_lib/inc/gpio_11xx_2.h ****  * @return	Nothing
 276:../../lpc_chip_11cxx_lib/inc/gpio_11xx_2.h ****  */
 277:../../lpc_chip_11cxx_lib/inc/gpio_11xx_2.h **** STATIC INLINE void Chip_GPIO_SetPortValue(LPC_GPIO_T *pGPIO, uint8_t port, uint32_t value)
 278:../../lpc_chip_11cxx_lib/inc/gpio_11xx_2.h **** {
 279:../../lpc_chip_11cxx_lib/inc/gpio_11xx_2.h **** 	pGPIO[port].DATA[0xFFF] = value;
 280:../../lpc_chip_11cxx_lib/inc/gpio_11xx_2.h **** }
 281:../../lpc_chip_11cxx_lib/inc/gpio_11xx_2.h **** 
 282:../../lpc_chip_11cxx_lib/inc/gpio_11xx_2.h **** /**
 283:../../lpc_chip_11cxx_lib/inc/gpio_11xx_2.h ****  * @brief	Get all GPIO raw pin states (regardless of masking)
 284:../../lpc_chip_11cxx_lib/inc/gpio_11xx_2.h ****  * @param	pGPIO	: The base of GPIO peripheral on the chip
 285:../../lpc_chip_11cxx_lib/inc/gpio_11xx_2.h ****  * @param	port	: Port number
 286:../../lpc_chip_11cxx_lib/inc/gpio_11xx_2.h ****  * @return	Current (raw) state of all GPIO pins
 287:../../lpc_chip_11cxx_lib/inc/gpio_11xx_2.h ****  */
 288:../../lpc_chip_11cxx_lib/inc/gpio_11xx_2.h **** STATIC INLINE uint32_t Chip_GPIO_GetPortValue(LPC_GPIO_T *pGPIO, uint8_t port)
 289:../../lpc_chip_11cxx_lib/inc/gpio_11xx_2.h **** {
 290:../../lpc_chip_11cxx_lib/inc/gpio_11xx_2.h **** 	return pGPIO[port].DATA[0xFFF];
 291:../../lpc_chip_11cxx_lib/inc/gpio_11xx_2.h **** }
 292:../../lpc_chip_11cxx_lib/inc/gpio_11xx_2.h **** 
 293:../../lpc_chip_11cxx_lib/inc/gpio_11xx_2.h **** /**
 294:../../lpc_chip_11cxx_lib/inc/gpio_11xx_2.h ****  * @brief	Set a GPIO port/bit to the high state
 295:../../lpc_chip_11cxx_lib/inc/gpio_11xx_2.h ****  * @param	pGPIO	: The base of GPIO peripheral on the chip
 296:../../lpc_chip_11cxx_lib/inc/gpio_11xx_2.h ****  * @param	port	: Port number
 297:../../lpc_chip_11cxx_lib/inc/gpio_11xx_2.h ****  * @param	bit		: Bit(s) in the port to set high
 298:../../lpc_chip_11cxx_lib/inc/gpio_11xx_2.h ****  * @return	None
 299:../../lpc_chip_11cxx_lib/inc/gpio_11xx_2.h ****  * @note	Any bit set as a '0' will not have it's state changed. This only
 300:../../lpc_chip_11cxx_lib/inc/gpio_11xx_2.h ****  * applies to ports configured as an output. It is recommended to use the
 301:../../lpc_chip_11cxx_lib/inc/gpio_11xx_2.h ****  * Chip_GPIO_SetPortOutHigh() function instead.
 302:../../lpc_chip_11cxx_lib/inc/gpio_11xx_2.h ****  */
 303:../../lpc_chip_11cxx_lib/inc/gpio_11xx_2.h **** STATIC INLINE void Chip_GPIO_SetValue(LPC_GPIO_T *pGPIO, uint8_t port, uint32_t bit)
 304:../../lpc_chip_11cxx_lib/inc/gpio_11xx_2.h **** {
 305:../../lpc_chip_11cxx_lib/inc/gpio_11xx_2.h **** 	pGPIO[port].DATA[bit] = bit;
 306:../../lpc_chip_11cxx_lib/inc/gpio_11xx_2.h **** }
 307:../../lpc_chip_11cxx_lib/inc/gpio_11xx_2.h **** 
 308:../../lpc_chip_11cxx_lib/inc/gpio_11xx_2.h **** /**
 309:../../lpc_chip_11cxx_lib/inc/gpio_11xx_2.h ****  * @brief	Set selected GPIO output pins to the high state
 310:../../lpc_chip_11cxx_lib/inc/gpio_11xx_2.h ****  * @param	pGPIO	: The base of GPIO peripheral on the chip
 311:../../lpc_chip_11cxx_lib/inc/gpio_11xx_2.h ****  * @param	port	: Port number
 312:../../lpc_chip_11cxx_lib/inc/gpio_11xx_2.h ****  * @param	pins	: pins (0..n) to set high
 313:../../lpc_chip_11cxx_lib/inc/gpio_11xx_2.h ****  * @return	None
 314:../../lpc_chip_11cxx_lib/inc/gpio_11xx_2.h ****  * @note	Any bit set as a '0' will not have it's state changed. This only
 315:../../lpc_chip_11cxx_lib/inc/gpio_11xx_2.h ****  * applies to ports configured as an output.
 316:../../lpc_chip_11cxx_lib/inc/gpio_11xx_2.h ****  */
 317:../../lpc_chip_11cxx_lib/inc/gpio_11xx_2.h **** STATIC INLINE void Chip_GPIO_SetPortOutHigh(LPC_GPIO_T *pGPIO, uint8_t port, uint32_t pins)
 318:../../lpc_chip_11cxx_lib/inc/gpio_11xx_2.h **** {
 319:../../lpc_chip_11cxx_lib/inc/gpio_11xx_2.h **** 	pGPIO[port].DATA[pins] = 0xFFF;
 320:../../lpc_chip_11cxx_lib/inc/gpio_11xx_2.h **** }
 321:../../lpc_chip_11cxx_lib/inc/gpio_11xx_2.h **** 
 322:../../lpc_chip_11cxx_lib/inc/gpio_11xx_2.h **** /**
 323:../../lpc_chip_11cxx_lib/inc/gpio_11xx_2.h ****  * @brief	Set an individual GPIO output pin to the high state
 324:../../lpc_chip_11cxx_lib/inc/gpio_11xx_2.h ****  * @param	pGPIO	: The base of GPIO peripheral on the chip
 325:../../lpc_chip_11cxx_lib/inc/gpio_11xx_2.h ****  * @param	port	: Port number
 326:../../lpc_chip_11cxx_lib/inc/gpio_11xx_2.h ****  * @param	pin		: pin number (0..n) to set high
 327:../../lpc_chip_11cxx_lib/inc/gpio_11xx_2.h ****  * @return	None
 328:../../lpc_chip_11cxx_lib/inc/gpio_11xx_2.h ****  * @note	Any bit set as a '0' will not have it's state changed. This only
 329:../../lpc_chip_11cxx_lib/inc/gpio_11xx_2.h ****  * applies to ports configured as an output.
ARM GAS  /tmp/ccWdlvlX.s 			page 21


 330:../../lpc_chip_11cxx_lib/inc/gpio_11xx_2.h ****  */
 331:../../lpc_chip_11cxx_lib/inc/gpio_11xx_2.h **** STATIC INLINE void Chip_GPIO_SetPinOutHigh(LPC_GPIO_T *pGPIO, uint8_t port, uint8_t pin)
 332:../../lpc_chip_11cxx_lib/inc/gpio_11xx_2.h **** {
 333:../../lpc_chip_11cxx_lib/inc/gpio_11xx_2.h **** 	pGPIO[port].DATA[1 << pin] = (1 << pin);
 334:../../lpc_chip_11cxx_lib/inc/gpio_11xx_2.h **** }
 335:../../lpc_chip_11cxx_lib/inc/gpio_11xx_2.h **** 
 336:../../lpc_chip_11cxx_lib/inc/gpio_11xx_2.h **** /**
 337:../../lpc_chip_11cxx_lib/inc/gpio_11xx_2.h ****  * @brief	Set a GPIO port/bit to the low state
 338:../../lpc_chip_11cxx_lib/inc/gpio_11xx_2.h ****  * @param	pGPIO	: The base of GPIO peripheral on the chip
 339:../../lpc_chip_11cxx_lib/inc/gpio_11xx_2.h ****  * @param	port	: Port number
 340:../../lpc_chip_11cxx_lib/inc/gpio_11xx_2.h ****  * @param	bit		: Bit(s) in the port to set low
 341:../../lpc_chip_11cxx_lib/inc/gpio_11xx_2.h ****  * @return	None
 342:../../lpc_chip_11cxx_lib/inc/gpio_11xx_2.h ****  * @note	Any bit set as a '0' will not have it's state changed. This only
 343:../../lpc_chip_11cxx_lib/inc/gpio_11xx_2.h ****  * applies to ports configured as an output.
 344:../../lpc_chip_11cxx_lib/inc/gpio_11xx_2.h ****  */
 345:../../lpc_chip_11cxx_lib/inc/gpio_11xx_2.h **** STATIC INLINE void Chip_GPIO_ClearValue(LPC_GPIO_T *pGPIO, uint8_t port, uint32_t bit)
 346:../../lpc_chip_11cxx_lib/inc/gpio_11xx_2.h **** {
 347:../../lpc_chip_11cxx_lib/inc/gpio_11xx_2.h **** 	pGPIO[port].DATA[bit] = ~bit;
 348:../../lpc_chip_11cxx_lib/inc/gpio_11xx_2.h **** }
 349:../../lpc_chip_11cxx_lib/inc/gpio_11xx_2.h **** 
 350:../../lpc_chip_11cxx_lib/inc/gpio_11xx_2.h **** /**
 351:../../lpc_chip_11cxx_lib/inc/gpio_11xx_2.h ****  * @brief	Set selected GPIO output pins to the low state
 352:../../lpc_chip_11cxx_lib/inc/gpio_11xx_2.h ****  * @param	pGPIO	: The base of GPIO peripheral on the chip
 353:../../lpc_chip_11cxx_lib/inc/gpio_11xx_2.h ****  * @param	port	: Port number
 354:../../lpc_chip_11cxx_lib/inc/gpio_11xx_2.h ****  * @param	pins	: pins (0..n) to set low
 355:../../lpc_chip_11cxx_lib/inc/gpio_11xx_2.h ****  * @return	None
 356:../../lpc_chip_11cxx_lib/inc/gpio_11xx_2.h ****  * @note	Any bit set as a '0' will not have it's state changed. This only
 357:../../lpc_chip_11cxx_lib/inc/gpio_11xx_2.h ****  * applies to ports configured as an output.
 358:../../lpc_chip_11cxx_lib/inc/gpio_11xx_2.h ****  */
 359:../../lpc_chip_11cxx_lib/inc/gpio_11xx_2.h **** STATIC INLINE void Chip_GPIO_SetPortOutLow(LPC_GPIO_T *pGPIO, uint8_t port, uint32_t pins)
 360:../../lpc_chip_11cxx_lib/inc/gpio_11xx_2.h **** {
 361:../../lpc_chip_11cxx_lib/inc/gpio_11xx_2.h **** 	pGPIO[port].DATA[pins] = 0;
 362:../../lpc_chip_11cxx_lib/inc/gpio_11xx_2.h **** }
 363:../../lpc_chip_11cxx_lib/inc/gpio_11xx_2.h **** 
 364:../../lpc_chip_11cxx_lib/inc/gpio_11xx_2.h **** /**
 365:../../lpc_chip_11cxx_lib/inc/gpio_11xx_2.h ****  * @brief	Set an individual GPIO output pin to the low state
 366:../../lpc_chip_11cxx_lib/inc/gpio_11xx_2.h ****  * @param	pGPIO	: The base of GPIO peripheral on the chip
 367:../../lpc_chip_11cxx_lib/inc/gpio_11xx_2.h ****  * @param	port	: Port number
 368:../../lpc_chip_11cxx_lib/inc/gpio_11xx_2.h ****  * @param	pin		: pin number (0..n) to set low
 369:../../lpc_chip_11cxx_lib/inc/gpio_11xx_2.h ****  * @return	None
 370:../../lpc_chip_11cxx_lib/inc/gpio_11xx_2.h ****  * @note	Any bit set as a '0' will not have it's state changed. This only
 371:../../lpc_chip_11cxx_lib/inc/gpio_11xx_2.h ****  * applies to ports configured as an output.
 372:../../lpc_chip_11cxx_lib/inc/gpio_11xx_2.h ****  */
 373:../../lpc_chip_11cxx_lib/inc/gpio_11xx_2.h **** STATIC INLINE void Chip_GPIO_SetPinOutLow(LPC_GPIO_T *pGPIO, uint8_t port, uint8_t pin)
 374:../../lpc_chip_11cxx_lib/inc/gpio_11xx_2.h **** {
 375:../../lpc_chip_11cxx_lib/inc/gpio_11xx_2.h **** 	pGPIO[port].DATA[1 << pin] = 0;
 376:../../lpc_chip_11cxx_lib/inc/gpio_11xx_2.h **** }
 377:../../lpc_chip_11cxx_lib/inc/gpio_11xx_2.h **** 
 378:../../lpc_chip_11cxx_lib/inc/gpio_11xx_2.h **** /**
 379:../../lpc_chip_11cxx_lib/inc/gpio_11xx_2.h ****  * @brief	Toggle selected GPIO output pins to the opposite state
 380:../../lpc_chip_11cxx_lib/inc/gpio_11xx_2.h ****  * @param	pGPIO	: The base of GPIO peripheral on the chip
 381:../../lpc_chip_11cxx_lib/inc/gpio_11xx_2.h ****  * @param	port	: Port number
 382:../../lpc_chip_11cxx_lib/inc/gpio_11xx_2.h ****  * @param	pins	: pins (0..n) to toggle
 383:../../lpc_chip_11cxx_lib/inc/gpio_11xx_2.h ****  * @return	None
 384:../../lpc_chip_11cxx_lib/inc/gpio_11xx_2.h ****  * @note	Any bit set as a '0' will not have it's state changed. This only
 385:../../lpc_chip_11cxx_lib/inc/gpio_11xx_2.h ****  * applies to ports configured as an output.
 386:../../lpc_chip_11cxx_lib/inc/gpio_11xx_2.h ****  */
ARM GAS  /tmp/ccWdlvlX.s 			page 22


 387:../../lpc_chip_11cxx_lib/inc/gpio_11xx_2.h **** STATIC INLINE void Chip_GPIO_SetPortToggle(LPC_GPIO_T *pGPIO, uint8_t port, uint32_t pins)
 388:../../lpc_chip_11cxx_lib/inc/gpio_11xx_2.h **** {
 389:../../lpc_chip_11cxx_lib/inc/gpio_11xx_2.h **** 	pGPIO[port].DATA[pins] ^= 0xFFF;
 390:../../lpc_chip_11cxx_lib/inc/gpio_11xx_2.h **** }
 391:../../lpc_chip_11cxx_lib/inc/gpio_11xx_2.h **** 
 392:../../lpc_chip_11cxx_lib/inc/gpio_11xx_2.h **** /**
 393:../../lpc_chip_11cxx_lib/inc/gpio_11xx_2.h ****  * @brief	Toggle an individual GPIO output pin to the opposite state
 394:../../lpc_chip_11cxx_lib/inc/gpio_11xx_2.h ****  * @param	pGPIO	: The base of GPIO peripheral on the chip
 395:../../lpc_chip_11cxx_lib/inc/gpio_11xx_2.h ****  * @param	port	: Port number
 396:../../lpc_chip_11cxx_lib/inc/gpio_11xx_2.h ****  * @param	pin		: pin number (0..n) to toggle
 397:../../lpc_chip_11cxx_lib/inc/gpio_11xx_2.h ****  * @return	None
 398:../../lpc_chip_11cxx_lib/inc/gpio_11xx_2.h ****  * @note	Any bit set as a '0' will not have it's state changed. This only
 399:../../lpc_chip_11cxx_lib/inc/gpio_11xx_2.h ****  * applies to ports configured as an output.
 400:../../lpc_chip_11cxx_lib/inc/gpio_11xx_2.h ****  */
 401:../../lpc_chip_11cxx_lib/inc/gpio_11xx_2.h **** STATIC INLINE void Chip_GPIO_SetPinToggle(LPC_GPIO_T *pGPIO, uint8_t port, uint8_t pin)
 402:../../lpc_chip_11cxx_lib/inc/gpio_11xx_2.h **** {
 403:../../lpc_chip_11cxx_lib/inc/gpio_11xx_2.h **** 	pGPIO[port].DATA[1 << pin] ^= (1 << pin);
 404:../../lpc_chip_11cxx_lib/inc/gpio_11xx_2.h **** }
 405:../../lpc_chip_11cxx_lib/inc/gpio_11xx_2.h **** 
 406:../../lpc_chip_11cxx_lib/inc/gpio_11xx_2.h **** /**
 407:../../lpc_chip_11cxx_lib/inc/gpio_11xx_2.h ****  * @brief	Read current bit states for the selected port
 408:../../lpc_chip_11cxx_lib/inc/gpio_11xx_2.h ****  * @param	pGPIO	: The base of GPIO peripheral on the chip
 409:../../lpc_chip_11cxx_lib/inc/gpio_11xx_2.h ****  * @param	port	: Port number to read
 410:../../lpc_chip_11cxx_lib/inc/gpio_11xx_2.h ****  * @return	Current value of GPIO port
 411:../../lpc_chip_11cxx_lib/inc/gpio_11xx_2.h ****  * @note	The current states of the bits for the port are read, regardless of
 412:../../lpc_chip_11cxx_lib/inc/gpio_11xx_2.h ****  * whether the GPIO port bits are input or output.
 413:../../lpc_chip_11cxx_lib/inc/gpio_11xx_2.h ****  */
 414:../../lpc_chip_11cxx_lib/inc/gpio_11xx_2.h **** STATIC INLINE uint32_t Chip_GPIO_ReadValue(LPC_GPIO_T *pGPIO, uint8_t port)
 415:../../lpc_chip_11cxx_lib/inc/gpio_11xx_2.h **** {
 416:../../lpc_chip_11cxx_lib/inc/gpio_11xx_2.h **** 	return pGPIO[port].DATA[4095];
 417:../../lpc_chip_11cxx_lib/inc/gpio_11xx_2.h **** }
 418:../../lpc_chip_11cxx_lib/inc/gpio_11xx_2.h **** 
 419:../../lpc_chip_11cxx_lib/inc/gpio_11xx_2.h **** /**
 420:../../lpc_chip_11cxx_lib/inc/gpio_11xx_2.h ****  * @brief	Configure the pins as edge sensitive for interrupts 
 421:../../lpc_chip_11cxx_lib/inc/gpio_11xx_2.h ****  * @param	pGPIO	: The base of GPIO peripheral on the chip
 422:../../lpc_chip_11cxx_lib/inc/gpio_11xx_2.h ****  * @param	port	: Port number
 423:../../lpc_chip_11cxx_lib/inc/gpio_11xx_2.h ****  * @param	pinmask	: Pins to set to edge mode (ORed value of bits 0..11)
 424:../../lpc_chip_11cxx_lib/inc/gpio_11xx_2.h ****  * @return	Nothing
 425:../../lpc_chip_11cxx_lib/inc/gpio_11xx_2.h ****  */
 426:../../lpc_chip_11cxx_lib/inc/gpio_11xx_2.h **** STATIC INLINE void Chip_GPIO_SetPinModeEdge(LPC_GPIO_T *pGPIO, uint8_t port, uint32_t pinmask)
 427:../../lpc_chip_11cxx_lib/inc/gpio_11xx_2.h **** {
 428:../../lpc_chip_11cxx_lib/inc/gpio_11xx_2.h ****     pGPIO[port].IS &= ~pinmask;
 384              		.loc 3 428 0
 385 0006 0904     		lsl	r1, r1, #16	@ D.6314, port,
 386              	.LVL39:
 387              	.LBE47:
 388              	.LBE46:
 389              		.loc 1 115 0
 390 0008 221C     		mov	r2, r4	@ pinMask, pinMask
 391              	.LVL40:
 392              	.LBB50:
 393              	.LBB48:
 394              		.loc 3 428 0
 395 000a 4118     		add	r1, r0, r1	@ D.6313, pGPIO, D.6314
 396              	.LBE48:
 397              	.LBE50:
 116:../../lpc_chip_11cxx_lib/src/gpio_11xx_2.c **** 
ARM GAS  /tmp/ccWdlvlX.s 			page 23


 117:../../lpc_chip_11cxx_lib/src/gpio_11xx_2.c **** 	/* Edge mode selected? */
 118:../../lpc_chip_11cxx_lib/src/gpio_11xx_2.c **** 	if ((uint32_t) mode & 0x2) {
 398              		.loc 1 118 0
 399 000c 9C07     		lsl	r4, r3, #30	@ tmp173, mode,
 400 000e 11D5     		bpl	.L25	@,
 401              	.LVL41:
 402              	.LBB51:
 403              	.LBB49:
 404              		.loc 3 428 0
 405 0010 D443     		mvn	r4, r2	@ D.6315, pinMask
 406 0012 104D     		ldr	r5, .L31	@ tmp147,
 407 0014 4859     		ldr	r0, [r1, r5]	@ D.6315, _20->IS
 408              	.LVL42:
 409 0016 2040     		and	r0, r4	@ D.6315, D.6315
 410 0018 4851     		str	r0, [r1, r5]	@ D.6315, _20->IS
 411              	.LBE49:
 412              	.LBE51:
 119:../../lpc_chip_11cxx_lib/src/gpio_11xx_2.c **** 		Chip_GPIO_SetPinModeEdge(pGPIO, port, pinMask);
 120:../../lpc_chip_11cxx_lib/src/gpio_11xx_2.c **** 
 121:../../lpc_chip_11cxx_lib/src/gpio_11xx_2.c **** 		/* Interrupt on both edges selected? */
 122:../../lpc_chip_11cxx_lib/src/gpio_11xx_2.c **** 		if ((uint32_t) mode & 0x4) {
 413              		.loc 1 122 0
 414 001a 5807     		lsl	r0, r3, #29	@ tmp174, mode,
 415 001c 15D5     		bpl	.L26	@,
 416              	.LVL43:
 417              	.LBB52:
 418              	.LBB53:
 429:../../lpc_chip_11cxx_lib/inc/gpio_11xx_2.h **** }
 430:../../lpc_chip_11cxx_lib/inc/gpio_11xx_2.h **** 
 431:../../lpc_chip_11cxx_lib/inc/gpio_11xx_2.h **** /**
 432:../../lpc_chip_11cxx_lib/inc/gpio_11xx_2.h ****  * @brief	Configure the pins as level sensitive for interrupts 
 433:../../lpc_chip_11cxx_lib/inc/gpio_11xx_2.h ****  * @param	pGPIO	: The base of GPIO peripheral on the chip
 434:../../lpc_chip_11cxx_lib/inc/gpio_11xx_2.h ****  * @param	port	: Port number
 435:../../lpc_chip_11cxx_lib/inc/gpio_11xx_2.h ****  * @param	pinmask	: Pins to set to level mode (ORed value of bits 0..11)
 436:../../lpc_chip_11cxx_lib/inc/gpio_11xx_2.h ****  * @return	Nothing
 437:../../lpc_chip_11cxx_lib/inc/gpio_11xx_2.h ****  */
 438:../../lpc_chip_11cxx_lib/inc/gpio_11xx_2.h **** STATIC INLINE void Chip_GPIO_SetPinModeLevel(LPC_GPIO_T *pGPIO, uint8_t port, uint32_t pinmask)
 439:../../lpc_chip_11cxx_lib/inc/gpio_11xx_2.h **** {
 440:../../lpc_chip_11cxx_lib/inc/gpio_11xx_2.h ****     pGPIO[port].IS |= pinmask;
 441:../../lpc_chip_11cxx_lib/inc/gpio_11xx_2.h **** }
 442:../../lpc_chip_11cxx_lib/inc/gpio_11xx_2.h **** 
 443:../../lpc_chip_11cxx_lib/inc/gpio_11xx_2.h **** /**
 444:../../lpc_chip_11cxx_lib/inc/gpio_11xx_2.h ****  * @brief	Returns current GPIO edge or high level interrupt configuration for all pins for a port
 445:../../lpc_chip_11cxx_lib/inc/gpio_11xx_2.h ****  * @param	pGPIO	: The base of GPIO peripheral on the chip
 446:../../lpc_chip_11cxx_lib/inc/gpio_11xx_2.h ****  * @param	port	: Port number
 447:../../lpc_chip_11cxx_lib/inc/gpio_11xx_2.h ****  * @return	A bifield containing the edge/level interrupt configuration for each
 448:../../lpc_chip_11cxx_lib/inc/gpio_11xx_2.h ****  * pin for the selected port. Bit 0 = pin 0, 1 = pin 1.
 449:../../lpc_chip_11cxx_lib/inc/gpio_11xx_2.h ****  * For each bit, a 0 means the edge interrupt is configured, while a 1 means a level
 450:../../lpc_chip_11cxx_lib/inc/gpio_11xx_2.h ****  * interrupt is configured. Mask with this return value to determine the
 451:../../lpc_chip_11cxx_lib/inc/gpio_11xx_2.h ****  * edge/level configuration for each pin in a port.
 452:../../lpc_chip_11cxx_lib/inc/gpio_11xx_2.h ****  */
 453:../../lpc_chip_11cxx_lib/inc/gpio_11xx_2.h **** STATIC INLINE uint32_t Chip_GPIO_IsLevelEnabled(LPC_GPIO_T *pGPIO, uint8_t port)
 454:../../lpc_chip_11cxx_lib/inc/gpio_11xx_2.h **** {
 455:../../lpc_chip_11cxx_lib/inc/gpio_11xx_2.h ****     return pGPIO[port].IS;
 456:../../lpc_chip_11cxx_lib/inc/gpio_11xx_2.h **** }
 457:../../lpc_chip_11cxx_lib/inc/gpio_11xx_2.h **** 
 458:../../lpc_chip_11cxx_lib/inc/gpio_11xx_2.h **** /**
ARM GAS  /tmp/ccWdlvlX.s 			page 24


 459:../../lpc_chip_11cxx_lib/inc/gpio_11xx_2.h ****  * @brief	Sets GPIO interrupt configuration for both edges for selected pins
 460:../../lpc_chip_11cxx_lib/inc/gpio_11xx_2.h ****  * @param	pGPIO	: The base of GPIO peripheral on the chip
 461:../../lpc_chip_11cxx_lib/inc/gpio_11xx_2.h ****  * @param	port	: Port number
 462:../../lpc_chip_11cxx_lib/inc/gpio_11xx_2.h ****  * @param	pinmask	: Pins to set to dual edge mode (ORed value of bits 0..11)
 463:../../lpc_chip_11cxx_lib/inc/gpio_11xx_2.h ****  * @return	Nothing
 464:../../lpc_chip_11cxx_lib/inc/gpio_11xx_2.h ****  */
 465:../../lpc_chip_11cxx_lib/inc/gpio_11xx_2.h **** STATIC INLINE void Chip_GPIO_SetEdgeModeBoth(LPC_GPIO_T *pGPIO, uint8_t port, uint32_t pinmask)
 466:../../lpc_chip_11cxx_lib/inc/gpio_11xx_2.h **** {
 467:../../lpc_chip_11cxx_lib/inc/gpio_11xx_2.h ****     pGPIO[port].IBE |= pinmask;
 419              		.loc 3 467 0
 420 001e 0E4C     		ldr	r4, .L31+4	@ tmp155,
 421 0020 0859     		ldr	r0, [r1, r4]	@ D.6315,
 422 0022 1043     		orr	r0, r2	@ D.6315, pinMask
 423 0024 0851     		str	r0, [r1, r4]	@ D.6315,
 424              	.LBE53:
 425              	.LBE52:
 426              	.LBB54:
 427              	.LBB55:
 468:../../lpc_chip_11cxx_lib/inc/gpio_11xx_2.h **** }
 469:../../lpc_chip_11cxx_lib/inc/gpio_11xx_2.h **** 
 470:../../lpc_chip_11cxx_lib/inc/gpio_11xx_2.h **** /**
 471:../../lpc_chip_11cxx_lib/inc/gpio_11xx_2.h ****  * @brief	Sets GPIO interrupt configuration for a single edge for selected pins
 472:../../lpc_chip_11cxx_lib/inc/gpio_11xx_2.h ****  * @param	pGPIO	: The base of GPIO peripheral on the chip
 473:../../lpc_chip_11cxx_lib/inc/gpio_11xx_2.h ****  * @param	port	: Port number
 474:../../lpc_chip_11cxx_lib/inc/gpio_11xx_2.h ****  * @param	pinmask	: Pins to set to single edge mode (ORed value of bits 0..11)
 475:../../lpc_chip_11cxx_lib/inc/gpio_11xx_2.h ****  * @return	Nothing
 476:../../lpc_chip_11cxx_lib/inc/gpio_11xx_2.h ****  */
 477:../../lpc_chip_11cxx_lib/inc/gpio_11xx_2.h **** STATIC INLINE void Chip_GPIO_SetEdgeModeSingle(LPC_GPIO_T *pGPIO, uint8_t port, uint32_t pinmask)
 478:../../lpc_chip_11cxx_lib/inc/gpio_11xx_2.h **** {
 479:../../lpc_chip_11cxx_lib/inc/gpio_11xx_2.h ****     pGPIO[port].IBE &= ~pinmask;
 480:../../lpc_chip_11cxx_lib/inc/gpio_11xx_2.h **** }
 481:../../lpc_chip_11cxx_lib/inc/gpio_11xx_2.h **** 
 482:../../lpc_chip_11cxx_lib/inc/gpio_11xx_2.h **** /**
 483:../../lpc_chip_11cxx_lib/inc/gpio_11xx_2.h ****  * @brief	Returns current GPIO interrupt dual or single edge configuration for all pins for a port
 484:../../lpc_chip_11cxx_lib/inc/gpio_11xx_2.h ****  * @param	pGPIO	: The base of GPIO peripheral on the chip
 485:../../lpc_chip_11cxx_lib/inc/gpio_11xx_2.h ****  * @param	port	: Port number
 486:../../lpc_chip_11cxx_lib/inc/gpio_11xx_2.h ****  * @return	A bifield containing the single/dual interrupt configuration for each
 487:../../lpc_chip_11cxx_lib/inc/gpio_11xx_2.h ****  * pin for the selected port. Bit 0 = pin 0, 1 = pin 1.
 488:../../lpc_chip_11cxx_lib/inc/gpio_11xx_2.h ****  * For each bit, a 0 means the interrupt triggers on a single edge (use the
 489:../../lpc_chip_11cxx_lib/inc/gpio_11xx_2.h ****  * Chip_GPIO_SetEdgeModeHigh() and Chip_GPIO_SetEdgeModeLow() functions to configure
 490:../../lpc_chip_11cxx_lib/inc/gpio_11xx_2.h ****  * selected edge), while a 1 means the interrupt triggers on both edges. Mask
 491:../../lpc_chip_11cxx_lib/inc/gpio_11xx_2.h ****  * with this return value to determine the edge/level configuration for each pin in
 492:../../lpc_chip_11cxx_lib/inc/gpio_11xx_2.h ****  * a port.
 493:../../lpc_chip_11cxx_lib/inc/gpio_11xx_2.h ****  */
 494:../../lpc_chip_11cxx_lib/inc/gpio_11xx_2.h **** STATIC INLINE uint32_t Chip_GPIO_GetEdgeModeDir(LPC_GPIO_T *pGPIO, uint8_t port)
 495:../../lpc_chip_11cxx_lib/inc/gpio_11xx_2.h **** {
 496:../../lpc_chip_11cxx_lib/inc/gpio_11xx_2.h ****     return pGPIO[port].IBE;
 497:../../lpc_chip_11cxx_lib/inc/gpio_11xx_2.h **** }
 498:../../lpc_chip_11cxx_lib/inc/gpio_11xx_2.h **** 
 499:../../lpc_chip_11cxx_lib/inc/gpio_11xx_2.h **** /**
 500:../../lpc_chip_11cxx_lib/inc/gpio_11xx_2.h ****  * @brief	Sets GPIO interrupt configuration when in single edge or level mode to high edge trigger 
 501:../../lpc_chip_11cxx_lib/inc/gpio_11xx_2.h ****  * @param	pGPIO	: The base of GPIO peripheral on the chip
 502:../../lpc_chip_11cxx_lib/inc/gpio_11xx_2.h ****  * @param	port	: Port number
 503:../../lpc_chip_11cxx_lib/inc/gpio_11xx_2.h ****  * @param	pinmask	: Pins to set to high mode (ORed value of bits 0..11)
 504:../../lpc_chip_11cxx_lib/inc/gpio_11xx_2.h ****  * @return	Nothing
 505:../../lpc_chip_11cxx_lib/inc/gpio_11xx_2.h ****  * @note	Use this function to select high level or high edge interrupt mode
 506:../../lpc_chip_11cxx_lib/inc/gpio_11xx_2.h ****  * for the selected pins on the selected port when not in dual edge mode.
ARM GAS  /tmp/ccWdlvlX.s 			page 25


 507:../../lpc_chip_11cxx_lib/inc/gpio_11xx_2.h ****  */
 508:../../lpc_chip_11cxx_lib/inc/gpio_11xx_2.h **** STATIC INLINE void Chip_GPIO_SetModeHigh(LPC_GPIO_T *pGPIO, uint8_t port, uint32_t pinmask)
 509:../../lpc_chip_11cxx_lib/inc/gpio_11xx_2.h **** {
 510:../../lpc_chip_11cxx_lib/inc/gpio_11xx_2.h ****     pGPIO[port].IEV |= pinmask;
 428              		.loc 3 510 0
 429 0026 0D48     		ldr	r0, .L31+8	@ tmp168,
 430              	.LBE55:
 431              	.LBE54:
 123:../../lpc_chip_11cxx_lib/src/gpio_11xx_2.c **** 			Chip_GPIO_SetEdgeModeBoth(pGPIO, port, pinMask);
 124:../../lpc_chip_11cxx_lib/src/gpio_11xx_2.c **** 		}
 125:../../lpc_chip_11cxx_lib/src/gpio_11xx_2.c **** 		else {
 126:../../lpc_chip_11cxx_lib/src/gpio_11xx_2.c **** 			Chip_GPIO_SetEdgeModeSingle(pGPIO, port, pinMask);
 127:../../lpc_chip_11cxx_lib/src/gpio_11xx_2.c **** 		}
 128:../../lpc_chip_11cxx_lib/src/gpio_11xx_2.c **** 	}
 129:../../lpc_chip_11cxx_lib/src/gpio_11xx_2.c **** 	else {
 130:../../lpc_chip_11cxx_lib/src/gpio_11xx_2.c **** 		/* Level mode */
 131:../../lpc_chip_11cxx_lib/src/gpio_11xx_2.c **** 		Chip_GPIO_SetPinModeLevel(pGPIO, port, pinMask);
 132:../../lpc_chip_11cxx_lib/src/gpio_11xx_2.c **** 	}
 133:../../lpc_chip_11cxx_lib/src/gpio_11xx_2.c **** 
 134:../../lpc_chip_11cxx_lib/src/gpio_11xx_2.c **** 	/* Level selections will not alter 'dual edge' mode */
 135:../../lpc_chip_11cxx_lib/src/gpio_11xx_2.c **** 	if ((uint32_t) mode & 0x1) {
 432              		.loc 1 135 0
 433 0028 DB07     		lsl	r3, r3, #31	@ tmp175, mode,
 434 002a 0AD5     		bpl	.L28	@,
 435              	.LVL44:
 436              	.L30:
 437              	.LBB58:
 438              	.LBB56:
 439              		.loc 3 510 0
 440 002c 0B58     		ldr	r3, [r1, r0]	@ D.6315,
 441 002e 1A43     		orr	r2, r3	@ D.6315, D.6315
 442              	.LVL45:
 443 0030 0A50     		str	r2, [r1, r0]	@ D.6315, _12->IEV
 444 0032 09E0     		b	.L24	@
 445              	.LVL46:
 446              	.L25:
 447              	.LBE56:
 448              	.LBE58:
 449              	.LBB59:
 450              	.LBB60:
 440:../../lpc_chip_11cxx_lib/inc/gpio_11xx_2.h **** }
 451              		.loc 3 440 0
 452 0034 074C     		ldr	r4, .L31	@ tmp160,
 453 0036 0859     		ldr	r0, [r1, r4]	@ D.6315,
 454              	.LVL47:
 455 0038 1043     		orr	r0, r2	@ D.6315, pinMask
 456 003a 0851     		str	r0, [r1, r4]	@ D.6315,
 457              	.LVL48:
 458              	.L27:
 459              	.LBE60:
 460              	.LBE59:
 461              	.LBB61:
 462              	.LBB57:
 463              		.loc 3 510 0
 464 003c 0748     		ldr	r0, .L31+8	@ tmp168,
 465              	.LBE57:
 466              	.LBE61:
ARM GAS  /tmp/ccWdlvlX.s 			page 26


 467              		.loc 1 135 0
 468 003e DB07     		lsl	r3, r3, #31	@ tmp175, mode,
 469 0040 F4D4     		bmi	.L30	@,
 470              	.LVL49:
 471              	.L28:
 472              	.LBB62:
 473              	.LBB63:
 511:../../lpc_chip_11cxx_lib/inc/gpio_11xx_2.h **** }
 512:../../lpc_chip_11cxx_lib/inc/gpio_11xx_2.h **** 
 513:../../lpc_chip_11cxx_lib/inc/gpio_11xx_2.h **** /**
 514:../../lpc_chip_11cxx_lib/inc/gpio_11xx_2.h ****  * @brief	Sets GPIO interrupt configuration when in single edge or level mode to low edge trigger o
 515:../../lpc_chip_11cxx_lib/inc/gpio_11xx_2.h ****  * @param	pGPIO	: The base of GPIO peripheral on the chip
 516:../../lpc_chip_11cxx_lib/inc/gpio_11xx_2.h ****  * @param	port	: Port number
 517:../../lpc_chip_11cxx_lib/inc/gpio_11xx_2.h ****  * @param	pinmask	: Pins to set to low mode (ORed value of bits 0..11)
 518:../../lpc_chip_11cxx_lib/inc/gpio_11xx_2.h ****  * @return	Nothing
 519:../../lpc_chip_11cxx_lib/inc/gpio_11xx_2.h ****  * @note	Use this function to select low level or low edge interrupt mode
 520:../../lpc_chip_11cxx_lib/inc/gpio_11xx_2.h ****  * for the selected pins on the selected port when not in dual edge mode.
 521:../../lpc_chip_11cxx_lib/inc/gpio_11xx_2.h ****  */
 522:../../lpc_chip_11cxx_lib/inc/gpio_11xx_2.h **** STATIC INLINE void Chip_GPIO_SetModeLow(LPC_GPIO_T *pGPIO, uint8_t port, uint32_t pinmask)
 523:../../lpc_chip_11cxx_lib/inc/gpio_11xx_2.h **** {
 524:../../lpc_chip_11cxx_lib/inc/gpio_11xx_2.h ****     pGPIO[port].IEV &= ~pinmask;
 474              		.loc 3 524 0
 475 0042 0B58     		ldr	r3, [r1, r0]	@ D.6315,
 476 0044 9343     		bic	r3, r2	@ D.6315, pinMask
 477 0046 0B50     		str	r3, [r1, r0]	@ D.6315, _12->IEV
 478              	.LVL50:
 479              	.L24:
 480              	.LBE63:
 481              	.LBE62:
 136:../../lpc_chip_11cxx_lib/src/gpio_11xx_2.c **** 		/* High edge or level mode selected */
 137:../../lpc_chip_11cxx_lib/src/gpio_11xx_2.c **** 		Chip_GPIO_SetModeHigh(pGPIO, port, pinMask);
 138:../../lpc_chip_11cxx_lib/src/gpio_11xx_2.c **** 	}
 139:../../lpc_chip_11cxx_lib/src/gpio_11xx_2.c **** 	else {
 140:../../lpc_chip_11cxx_lib/src/gpio_11xx_2.c **** 		Chip_GPIO_SetModeLow(pGPIO, port, pinMask);
 141:../../lpc_chip_11cxx_lib/src/gpio_11xx_2.c **** 	}
 142:../../lpc_chip_11cxx_lib/src/gpio_11xx_2.c **** }
 482              		.loc 1 142 0
 483              		@ sp needed	@
 484 0048 30BD     		pop	{r4, r5, pc}
 485              	.LVL51:
 486              	.L26:
 487              	.LBB64:
 488              	.LBB65:
 479:../../lpc_chip_11cxx_lib/inc/gpio_11xx_2.h **** }
 489              		.loc 3 479 0
 490 004a 0348     		ldr	r0, .L31+4	@ tmp157,
 491 004c 0D58     		ldr	r5, [r1, r0]	@ D.6315, _20->IBE
 492 004e 2C40     		and	r4, r5	@ D.6315, D.6315
 493 0050 0C50     		str	r4, [r1, r0]	@ D.6315, _20->IBE
 494 0052 F3E7     		b	.L27	@
 495              	.L32:
 496              		.align	2
 497              	.L31:
 498 0054 04800000 		.word	32772
 499 0058 08800000 		.word	32776
 500 005c 0C800000 		.word	32780
 501              	.LBE65:
ARM GAS  /tmp/ccWdlvlX.s 			page 27


 502              	.LBE64:
 503              		.cfi_endproc
 504              	.LFE204:
 505              		.size	Chip_GPIO_SetupPinInt, .-Chip_GPIO_SetupPinInt
 506              		.text
 507              	.Letext0:
 508              		.file 4 "/usr/arm-none-eabi/include/machine/_default_types.h"
 509              		.file 5 "/usr/arm-none-eabi/include/sys/_stdint.h"
 510              		.file 6 "../../lpc_chip_11cxx_lib/inc/sysctl_11xx.h"
 511              		.file 7 "../../lpc_chip_11cxx_lib/inc/chip.h"