ARM GAS  /tmp/ccj3wEk9.s 			page 1


   1              		.cpu cortex-m0
   2              		.fpu softvfp
   3              		.eabi_attribute 20, 1	@ Tag_ABI_FP_denormal
   4              		.eabi_attribute 21, 1	@ Tag_ABI_FP_exceptions
   5              		.eabi_attribute 23, 3	@ Tag_ABI_FP_number_model
   6              		.eabi_attribute 24, 1	@ Tag_ABI_align8_needed
   7              		.eabi_attribute 25, 1	@ Tag_ABI_align8_preserved
   8              		.eabi_attribute 26, 1	@ Tag_ABI_enum_size
   9              		.eabi_attribute 30, 2	@ Tag_ABI_optimization_goals
  10              		.eabi_attribute 34, 0	@ Tag_CPU_unaligned_access
  11              		.eabi_attribute 18, 4	@ Tag_ABI_PCS_wchar_t
  12              		.file	"i2c_11xx.c"
  13              	@ GNU C (GNU Tools for ARM Embedded Processors) version 4.9.3 20150529 (release) [ARM/embedded-4_9-
  14              	@	compiled by GNU C version 4.8.4, GMP version 5.1.3, MPFR version 3.1.2-p3, MPC version 1.0.1
  15              	@ GGC heuristics: --param ggc-min-expand=100 --param ggc-min-heapsize=131072
  16              	@ options passed:  -I . -I ../../lpc_chip_11cxx_lib/inc -imultilib armv6-m
  17              	@ -iprefix /usr/bin/../lib/gcc/arm-none-eabi/4.9.3/
  18              	@ -isysroot /usr/bin/../arm-none-eabi -MD bin/i2c_11xx.d -MF bin/i2c_11xx.d
  19              	@ -MP -MQ bin/i2c_11xx.o -D__USES_INITFINI__ -D CORE_M0
  20              	@ ../../lpc_chip_11cxx_lib/src/i2c_11xx.c -mcpu=cortex-m0 -mthumb
  21              	@ -auxbase-strip bin/i2c_11xx.o -g -ggdb3 -O2 -Wall -Wstrict-prototypes
  22              	@ -Wextra -std=gnu90 -ffunction-sections -fdata-sections -fverbose-asm
  23              	@ options enabled:  -faggressive-loop-optimizations -fauto-inc-dec
  24              	@ -fbranch-count-reg -fcaller-saves -fcombine-stack-adjustments -fcommon
  25              	@ -fcompare-elim -fcprop-registers -fcrossjumping -fcse-follow-jumps
  26              	@ -fdata-sections -fdefer-pop -fdelete-null-pointer-checks -fdevirtualize
  27              	@ -fdevirtualize-speculatively -fdwarf2-cfi-asm -fearly-inlining
  28              	@ -feliminate-unused-debug-types -fexpensive-optimizations
  29              	@ -fforward-propagate -ffunction-cse -ffunction-sections -fgcse -fgcse-lm
  30              	@ -fgnu-runtime -fgnu-unique -fguess-branch-probability
  31              	@ -fhoist-adjacent-loads -fident -fif-conversion -fif-conversion2
  32              	@ -findirect-inlining -finline -finline-atomics
  33              	@ -finline-functions-called-once -finline-small-functions -fipa-cp
  34              	@ -fipa-profile -fipa-pure-const -fipa-reference -fipa-sra
  35              	@ -fira-hoist-pressure -fira-share-save-slots -fira-share-spill-slots
  36              	@ -fisolate-erroneous-paths-dereference -fivopts -fkeep-static-consts
  37              	@ -fleading-underscore -flifetime-dse -fmath-errno -fmerge-constants
  38              	@ -fmerge-debug-strings -fmove-loop-invariants -fomit-frame-pointer
  39              	@ -foptimize-sibling-calls -foptimize-strlen -fpartial-inlining -fpeephole
  40              	@ -fpeephole2 -fprefetch-loop-arrays -freg-struct-return -freorder-blocks
  41              	@ -freorder-functions -frerun-cse-after-loop
  42              	@ -fsched-critical-path-heuristic -fsched-dep-count-heuristic
  43              	@ -fsched-group-heuristic -fsched-interblock -fsched-last-insn-heuristic
  44              	@ -fsched-pressure -fsched-rank-heuristic -fsched-spec
  45              	@ -fsched-spec-insn-heuristic -fsched-stalled-insns-dep -fschedule-insns2
  46              	@ -fsection-anchors -fshow-column -fshrink-wrap -fsigned-zeros
  47              	@ -fsplit-ivs-in-unroller -fsplit-wide-types -fstrict-aliasing
  48              	@ -fstrict-overflow -fstrict-volatile-bitfields -fsync-libcalls
  49              	@ -fthread-jumps -ftoplevel-reorder -ftrapping-math -ftree-bit-ccp
  50              	@ -ftree-builtin-call-dce -ftree-ccp -ftree-ch -ftree-coalesce-vars
  51              	@ -ftree-copy-prop -ftree-copyrename -ftree-cselim -ftree-dce
  52              	@ -ftree-dominator-opts -ftree-dse -ftree-forwprop -ftree-fre
  53              	@ -ftree-loop-if-convert -ftree-loop-im -ftree-loop-ivcanon
  54              	@ -ftree-loop-optimize -ftree-parallelize-loops= -ftree-phiprop -ftree-pre
  55              	@ -ftree-pta -ftree-reassoc -ftree-scev-cprop -ftree-sink -ftree-slsr
  56              	@ -ftree-sra -ftree-switch-conversion -ftree-tail-merge -ftree-ter
  57              	@ -ftree-vrp -funit-at-a-time -fvar-tracking -fvar-tracking-assignments
ARM GAS  /tmp/ccj3wEk9.s 			page 2


  58              	@ -fverbose-asm -fzero-initialized-in-bss -mlittle-endian -mlra
  59              	@ -mpic-data-is-text-relative -msched-prolog -mthumb
  60              	@ -mvectorize-with-neon-quad
  61              	
  62              		.text
  63              	.Ltext0:
  64              		.cfi_sections	.debug_frame
  65              		.section	.text.Chip_I2C_EventHandler,"ax",%progbits
  66              		.align	2
  67              		.global	Chip_I2C_EventHandler
  68              		.code	16
  69              		.thumb_func
  70              		.type	Chip_I2C_EventHandler, %function
  71              	Chip_I2C_EventHandler:
  72              	.LFB212:
  73              		.file 1 "../../lpc_chip_11cxx_lib/src/i2c_11xx.c"
   1:../../lpc_chip_11cxx_lib/src/i2c_11xx.c **** /*
   2:../../lpc_chip_11cxx_lib/src/i2c_11xx.c ****  * @brief LPC11xx I2C driver
   3:../../lpc_chip_11cxx_lib/src/i2c_11xx.c ****  *
   4:../../lpc_chip_11cxx_lib/src/i2c_11xx.c ****  * @note
   5:../../lpc_chip_11cxx_lib/src/i2c_11xx.c ****  * Copyright(C) NXP Semiconductors, 2012
   6:../../lpc_chip_11cxx_lib/src/i2c_11xx.c ****  * All rights reserved.
   7:../../lpc_chip_11cxx_lib/src/i2c_11xx.c ****  *
   8:../../lpc_chip_11cxx_lib/src/i2c_11xx.c ****  * @par
   9:../../lpc_chip_11cxx_lib/src/i2c_11xx.c ****  * Software that is described herein is for illustrative purposes only
  10:../../lpc_chip_11cxx_lib/src/i2c_11xx.c ****  * which provides customers with programming information regarding the
  11:../../lpc_chip_11cxx_lib/src/i2c_11xx.c ****  * LPC products.  This software is supplied "AS IS" without any warranties of
  12:../../lpc_chip_11cxx_lib/src/i2c_11xx.c ****  * any kind, and NXP Semiconductors and its licensor disclaim any and
  13:../../lpc_chip_11cxx_lib/src/i2c_11xx.c ****  * all warranties, express or implied, including all implied warranties of
  14:../../lpc_chip_11cxx_lib/src/i2c_11xx.c ****  * merchantability, fitness for a particular purpose and non-infringement of
  15:../../lpc_chip_11cxx_lib/src/i2c_11xx.c ****  * intellectual property rights.  NXP Semiconductors assumes no responsibility
  16:../../lpc_chip_11cxx_lib/src/i2c_11xx.c ****  * or liability for the use of the software, conveys no license or rights under any
  17:../../lpc_chip_11cxx_lib/src/i2c_11xx.c ****  * patent, copyright, mask work right, or any other intellectual property rights in
  18:../../lpc_chip_11cxx_lib/src/i2c_11xx.c ****  * or to any products. NXP Semiconductors reserves the right to make changes
  19:../../lpc_chip_11cxx_lib/src/i2c_11xx.c ****  * in the software without notification. NXP Semiconductors also makes no
  20:../../lpc_chip_11cxx_lib/src/i2c_11xx.c ****  * representation or warranty that such application will be suitable for the
  21:../../lpc_chip_11cxx_lib/src/i2c_11xx.c ****  * specified use without further testing or modification.
  22:../../lpc_chip_11cxx_lib/src/i2c_11xx.c ****  *
  23:../../lpc_chip_11cxx_lib/src/i2c_11xx.c ****  * @par
  24:../../lpc_chip_11cxx_lib/src/i2c_11xx.c ****  * Permission to use, copy, modify, and distribute this software and its
  25:../../lpc_chip_11cxx_lib/src/i2c_11xx.c ****  * documentation is hereby granted, under NXP Semiconductors' and its
  26:../../lpc_chip_11cxx_lib/src/i2c_11xx.c ****  * licensor's relevant copyrights in the software, without fee, provided that it
  27:../../lpc_chip_11cxx_lib/src/i2c_11xx.c ****  * is used in conjunction with NXP Semiconductors microcontrollers.  This
  28:../../lpc_chip_11cxx_lib/src/i2c_11xx.c ****  * copyright, permission, and disclaimer notice must appear in all copies of
  29:../../lpc_chip_11cxx_lib/src/i2c_11xx.c ****  * this code.
  30:../../lpc_chip_11cxx_lib/src/i2c_11xx.c ****  */
  31:../../lpc_chip_11cxx_lib/src/i2c_11xx.c **** 
  32:../../lpc_chip_11cxx_lib/src/i2c_11xx.c **** #include "chip.h"
  33:../../lpc_chip_11cxx_lib/src/i2c_11xx.c **** 
  34:../../lpc_chip_11cxx_lib/src/i2c_11xx.c **** #if !defined(CHIP_LPC110X)
  35:../../lpc_chip_11cxx_lib/src/i2c_11xx.c **** 
  36:../../lpc_chip_11cxx_lib/src/i2c_11xx.c **** /*****************************************************************************
  37:../../lpc_chip_11cxx_lib/src/i2c_11xx.c ****  * Private types/enumerations/variables
  38:../../lpc_chip_11cxx_lib/src/i2c_11xx.c ****  ****************************************************************************/
  39:../../lpc_chip_11cxx_lib/src/i2c_11xx.c **** 
  40:../../lpc_chip_11cxx_lib/src/i2c_11xx.c **** /* Control flags */
  41:../../lpc_chip_11cxx_lib/src/i2c_11xx.c **** #define I2C_CON_FLAGS (I2C_CON_AA | I2C_CON_SI | I2C_CON_STO | I2C_CON_STA)
ARM GAS  /tmp/ccj3wEk9.s 			page 3


  42:../../lpc_chip_11cxx_lib/src/i2c_11xx.c **** #define LPC_I2Cx(id)      ((i2c.ip))
  43:../../lpc_chip_11cxx_lib/src/i2c_11xx.c **** #define SLAVE_ACTIVE(iic) (((iic)->flags & 0xFF00) != 0)
  44:../../lpc_chip_11cxx_lib/src/i2c_11xx.c **** 
  45:../../lpc_chip_11cxx_lib/src/i2c_11xx.c **** /* I2C common interface structure */
  46:../../lpc_chip_11cxx_lib/src/i2c_11xx.c **** struct i2c_interface {
  47:../../lpc_chip_11cxx_lib/src/i2c_11xx.c **** 	LPC_I2C_T *ip;		/* IP base address of the I2C device */
  48:../../lpc_chip_11cxx_lib/src/i2c_11xx.c **** 	CHIP_SYSCTL_CLOCK_T clk;	/* Clock used by I2C */
  49:../../lpc_chip_11cxx_lib/src/i2c_11xx.c **** 	I2C_EVENTHANDLER_T mEvent;	/* Current active Master event handler */
  50:../../lpc_chip_11cxx_lib/src/i2c_11xx.c **** 	I2C_EVENTHANDLER_T sEvent;	/* Slave transfer events */
  51:../../lpc_chip_11cxx_lib/src/i2c_11xx.c **** 	I2C_XFER_T *mXfer;	/* Current active xfer pointer */
  52:../../lpc_chip_11cxx_lib/src/i2c_11xx.c **** 	I2C_XFER_T *sXfer;	/* Pointer to store xfer when bus is busy */
  53:../../lpc_chip_11cxx_lib/src/i2c_11xx.c **** 	uint32_t flags;		/* Flags used by I2C master and slave */
  54:../../lpc_chip_11cxx_lib/src/i2c_11xx.c **** };
  55:../../lpc_chip_11cxx_lib/src/i2c_11xx.c **** 
  56:../../lpc_chip_11cxx_lib/src/i2c_11xx.c **** /* Slave interface structure */
  57:../../lpc_chip_11cxx_lib/src/i2c_11xx.c **** struct i2c_slave_interface {
  58:../../lpc_chip_11cxx_lib/src/i2c_11xx.c **** 	I2C_XFER_T *xfer;
  59:../../lpc_chip_11cxx_lib/src/i2c_11xx.c **** 	I2C_EVENTHANDLER_T event;
  60:../../lpc_chip_11cxx_lib/src/i2c_11xx.c **** };
  61:../../lpc_chip_11cxx_lib/src/i2c_11xx.c **** 
  62:../../lpc_chip_11cxx_lib/src/i2c_11xx.c **** /* I2C interfaces */
  63:../../lpc_chip_11cxx_lib/src/i2c_11xx.c **** static struct i2c_interface i2c = 
  64:../../lpc_chip_11cxx_lib/src/i2c_11xx.c **** 	{LPC_I2C, SYSCTL_CLOCK_I2C, Chip_I2C_EventHandler, NULL, NULL, NULL, 0};
  65:../../lpc_chip_11cxx_lib/src/i2c_11xx.c **** 
  66:../../lpc_chip_11cxx_lib/src/i2c_11xx.c **** static struct i2c_slave_interface i2c_slave[I2C_NUM_INTERFACE][I2C_SLAVE_NUM_INTERFACE];
  67:../../lpc_chip_11cxx_lib/src/i2c_11xx.c **** 
  68:../../lpc_chip_11cxx_lib/src/i2c_11xx.c **** /*****************************************************************************
  69:../../lpc_chip_11cxx_lib/src/i2c_11xx.c ****  * Public types/enumerations/variables
  70:../../lpc_chip_11cxx_lib/src/i2c_11xx.c ****  ****************************************************************************/
  71:../../lpc_chip_11cxx_lib/src/i2c_11xx.c **** 
  72:../../lpc_chip_11cxx_lib/src/i2c_11xx.c **** /*****************************************************************************
  73:../../lpc_chip_11cxx_lib/src/i2c_11xx.c ****  * Private functions
  74:../../lpc_chip_11cxx_lib/src/i2c_11xx.c ****  ****************************************************************************/
  75:../../lpc_chip_11cxx_lib/src/i2c_11xx.c ****  
  76:../../lpc_chip_11cxx_lib/src/i2c_11xx.c **** STATIC INLINE void enableClk(I2C_ID_T id)
  77:../../lpc_chip_11cxx_lib/src/i2c_11xx.c **** {
  78:../../lpc_chip_11cxx_lib/src/i2c_11xx.c **** 	Chip_Clock_EnablePeriphClock(i2c.clk);
  79:../../lpc_chip_11cxx_lib/src/i2c_11xx.c **** }
  80:../../lpc_chip_11cxx_lib/src/i2c_11xx.c **** 
  81:../../lpc_chip_11cxx_lib/src/i2c_11xx.c **** STATIC INLINE void disableClk(I2C_ID_T id)
  82:../../lpc_chip_11cxx_lib/src/i2c_11xx.c **** {
  83:../../lpc_chip_11cxx_lib/src/i2c_11xx.c **** 	Chip_Clock_DisablePeriphClock(i2c.clk);
  84:../../lpc_chip_11cxx_lib/src/i2c_11xx.c **** }
  85:../../lpc_chip_11cxx_lib/src/i2c_11xx.c **** 
  86:../../lpc_chip_11cxx_lib/src/i2c_11xx.c **** /* Get the ADC Clock Rate */
  87:../../lpc_chip_11cxx_lib/src/i2c_11xx.c **** STATIC INLINE uint32_t getClkRate(void)
  88:../../lpc_chip_11cxx_lib/src/i2c_11xx.c **** {
  89:../../lpc_chip_11cxx_lib/src/i2c_11xx.c **** 	// return Chip_Clock_GetMainClockRate();
  90:../../lpc_chip_11cxx_lib/src/i2c_11xx.c **** 	return SystemCoreClock;
  91:../../lpc_chip_11cxx_lib/src/i2c_11xx.c **** }
  92:../../lpc_chip_11cxx_lib/src/i2c_11xx.c **** 
  93:../../lpc_chip_11cxx_lib/src/i2c_11xx.c **** /* Enable I2C and start master transfer */
  94:../../lpc_chip_11cxx_lib/src/i2c_11xx.c **** STATIC INLINE void startMasterXfer(LPC_I2C_T *pI2C)
  95:../../lpc_chip_11cxx_lib/src/i2c_11xx.c **** {
  96:../../lpc_chip_11cxx_lib/src/i2c_11xx.c **** 	/* Reset STA, STO, SI */
  97:../../lpc_chip_11cxx_lib/src/i2c_11xx.c **** 	pI2C->CONCLR = I2C_CON_SI | I2C_CON_STO | I2C_CON_STA | I2C_CON_AA;
  98:../../lpc_chip_11cxx_lib/src/i2c_11xx.c **** 
ARM GAS  /tmp/ccj3wEk9.s 			page 4


  99:../../lpc_chip_11cxx_lib/src/i2c_11xx.c **** 	/* Enter to Master Transmitter mode */
 100:../../lpc_chip_11cxx_lib/src/i2c_11xx.c **** 	pI2C->CONSET = I2C_CON_I2EN | I2C_CON_STA;
 101:../../lpc_chip_11cxx_lib/src/i2c_11xx.c **** }
 102:../../lpc_chip_11cxx_lib/src/i2c_11xx.c **** 
 103:../../lpc_chip_11cxx_lib/src/i2c_11xx.c **** /* Enable I2C and enable slave transfers */
 104:../../lpc_chip_11cxx_lib/src/i2c_11xx.c **** STATIC INLINE void startSlaverXfer(LPC_I2C_T *pI2C)
 105:../../lpc_chip_11cxx_lib/src/i2c_11xx.c **** {
 106:../../lpc_chip_11cxx_lib/src/i2c_11xx.c **** 	/* Reset STA, STO, SI */
 107:../../lpc_chip_11cxx_lib/src/i2c_11xx.c **** 	pI2C->CONCLR = I2C_CON_SI | I2C_CON_STO | I2C_CON_STA;
 108:../../lpc_chip_11cxx_lib/src/i2c_11xx.c **** 
 109:../../lpc_chip_11cxx_lib/src/i2c_11xx.c **** 	/* Enter to Master Transmitter mode */
 110:../../lpc_chip_11cxx_lib/src/i2c_11xx.c **** 	pI2C->CONSET = I2C_CON_I2EN | I2C_CON_AA;
 111:../../lpc_chip_11cxx_lib/src/i2c_11xx.c **** }
 112:../../lpc_chip_11cxx_lib/src/i2c_11xx.c **** 
 113:../../lpc_chip_11cxx_lib/src/i2c_11xx.c **** /* Check if I2C bus is free */
 114:../../lpc_chip_11cxx_lib/src/i2c_11xx.c **** STATIC INLINE int isI2CBusFree(LPC_I2C_T *pI2C)
 115:../../lpc_chip_11cxx_lib/src/i2c_11xx.c **** {
 116:../../lpc_chip_11cxx_lib/src/i2c_11xx.c **** 	return !(pI2C->CONSET & I2C_CON_STO);
 117:../../lpc_chip_11cxx_lib/src/i2c_11xx.c **** }
 118:../../lpc_chip_11cxx_lib/src/i2c_11xx.c **** 
 119:../../lpc_chip_11cxx_lib/src/i2c_11xx.c **** /* Get current state of the I2C peripheral */
 120:../../lpc_chip_11cxx_lib/src/i2c_11xx.c **** STATIC INLINE int getCurState(LPC_I2C_T *pI2C)
 121:../../lpc_chip_11cxx_lib/src/i2c_11xx.c **** {
 122:../../lpc_chip_11cxx_lib/src/i2c_11xx.c **** 	return (int) (pI2C->STAT & I2C_STAT_CODE_BITMASK);
 123:../../lpc_chip_11cxx_lib/src/i2c_11xx.c **** }
 124:../../lpc_chip_11cxx_lib/src/i2c_11xx.c **** 
 125:../../lpc_chip_11cxx_lib/src/i2c_11xx.c **** /* Check if the active state belongs to master mode*/
 126:../../lpc_chip_11cxx_lib/src/i2c_11xx.c **** STATIC INLINE int isMasterState(LPC_I2C_T *pI2C)
 127:../../lpc_chip_11cxx_lib/src/i2c_11xx.c **** {
 128:../../lpc_chip_11cxx_lib/src/i2c_11xx.c **** 	return getCurState(pI2C) < 0x60;
 129:../../lpc_chip_11cxx_lib/src/i2c_11xx.c **** }
 130:../../lpc_chip_11cxx_lib/src/i2c_11xx.c **** 
 131:../../lpc_chip_11cxx_lib/src/i2c_11xx.c **** /* Set OWN slave address for specific slave ID */
 132:../../lpc_chip_11cxx_lib/src/i2c_11xx.c **** STATIC void setSlaveAddr(LPC_I2C_T *pI2C, I2C_SLAVE_ID sid, uint8_t addr, uint8_t mask)
 133:../../lpc_chip_11cxx_lib/src/i2c_11xx.c **** {
 134:../../lpc_chip_11cxx_lib/src/i2c_11xx.c **** 	uint32_t index = (uint32_t) sid - 1;
 135:../../lpc_chip_11cxx_lib/src/i2c_11xx.c **** 	pI2C->MASK[index] = mask;
 136:../../lpc_chip_11cxx_lib/src/i2c_11xx.c **** 	if (sid == I2C_SLAVE_0) {
 137:../../lpc_chip_11cxx_lib/src/i2c_11xx.c **** 		pI2C->ADR0 = addr;
 138:../../lpc_chip_11cxx_lib/src/i2c_11xx.c **** 	}
 139:../../lpc_chip_11cxx_lib/src/i2c_11xx.c **** 	else {
 140:../../lpc_chip_11cxx_lib/src/i2c_11xx.c **** 		volatile uint32_t *abase = &pI2C->ADR1;
 141:../../lpc_chip_11cxx_lib/src/i2c_11xx.c **** 		abase[index - 1] = addr;
 142:../../lpc_chip_11cxx_lib/src/i2c_11xx.c **** 	}
 143:../../lpc_chip_11cxx_lib/src/i2c_11xx.c **** }
 144:../../lpc_chip_11cxx_lib/src/i2c_11xx.c **** 
 145:../../lpc_chip_11cxx_lib/src/i2c_11xx.c **** /* Match the slave address */
 146:../../lpc_chip_11cxx_lib/src/i2c_11xx.c **** STATIC int isSlaveAddrMatching(uint8_t addr1, uint8_t addr2, uint8_t mask)
 147:../../lpc_chip_11cxx_lib/src/i2c_11xx.c **** {
 148:../../lpc_chip_11cxx_lib/src/i2c_11xx.c **** 	mask |= 1;
 149:../../lpc_chip_11cxx_lib/src/i2c_11xx.c **** 	return (addr1 & ~mask) == (addr2 & ~mask);
 150:../../lpc_chip_11cxx_lib/src/i2c_11xx.c **** }
 151:../../lpc_chip_11cxx_lib/src/i2c_11xx.c **** 
 152:../../lpc_chip_11cxx_lib/src/i2c_11xx.c **** /* Get the index of the active slave */
 153:../../lpc_chip_11cxx_lib/src/i2c_11xx.c **** STATIC I2C_SLAVE_ID lookupSlaveIndex(LPC_I2C_T *pI2C, uint8_t slaveAddr)
 154:../../lpc_chip_11cxx_lib/src/i2c_11xx.c **** {
 155:../../lpc_chip_11cxx_lib/src/i2c_11xx.c **** 	if (!(slaveAddr >> 1)) {
ARM GAS  /tmp/ccj3wEk9.s 			page 5


 156:../../lpc_chip_11cxx_lib/src/i2c_11xx.c **** 		return I2C_SLAVE_GENERAL;					/* General call address */
 157:../../lpc_chip_11cxx_lib/src/i2c_11xx.c **** 	}
 158:../../lpc_chip_11cxx_lib/src/i2c_11xx.c **** 	if (isSlaveAddrMatching(pI2C->ADR0, slaveAddr, pI2C->MASK[0])) {
 159:../../lpc_chip_11cxx_lib/src/i2c_11xx.c **** 		return I2C_SLAVE_0;
 160:../../lpc_chip_11cxx_lib/src/i2c_11xx.c **** 	}
 161:../../lpc_chip_11cxx_lib/src/i2c_11xx.c **** 	if (isSlaveAddrMatching(pI2C->ADR1, slaveAddr, pI2C->MASK[1])) {
 162:../../lpc_chip_11cxx_lib/src/i2c_11xx.c **** 		return I2C_SLAVE_1;
 163:../../lpc_chip_11cxx_lib/src/i2c_11xx.c **** 	}
 164:../../lpc_chip_11cxx_lib/src/i2c_11xx.c **** 	if (isSlaveAddrMatching(pI2C->ADR2, slaveAddr, pI2C->MASK[2])) {
 165:../../lpc_chip_11cxx_lib/src/i2c_11xx.c **** 		return I2C_SLAVE_2;
 166:../../lpc_chip_11cxx_lib/src/i2c_11xx.c **** 	}
 167:../../lpc_chip_11cxx_lib/src/i2c_11xx.c **** 	if (isSlaveAddrMatching(pI2C->ADR3, slaveAddr, pI2C->MASK[3])) {
 168:../../lpc_chip_11cxx_lib/src/i2c_11xx.c **** 		return I2C_SLAVE_3;
 169:../../lpc_chip_11cxx_lib/src/i2c_11xx.c **** 	}
 170:../../lpc_chip_11cxx_lib/src/i2c_11xx.c **** 
 171:../../lpc_chip_11cxx_lib/src/i2c_11xx.c **** 	/* If everything is fine the code should never come here */
 172:../../lpc_chip_11cxx_lib/src/i2c_11xx.c **** 	return I2C_SLAVE_GENERAL;
 173:../../lpc_chip_11cxx_lib/src/i2c_11xx.c **** }
 174:../../lpc_chip_11cxx_lib/src/i2c_11xx.c **** 
 175:../../lpc_chip_11cxx_lib/src/i2c_11xx.c **** /* Master transfer state change handler handler */
 176:../../lpc_chip_11cxx_lib/src/i2c_11xx.c **** int handleMasterXferState(LPC_I2C_T *pI2C, I2C_XFER_T  *xfer)
 177:../../lpc_chip_11cxx_lib/src/i2c_11xx.c **** {
 178:../../lpc_chip_11cxx_lib/src/i2c_11xx.c **** 	uint32_t cclr = I2C_CON_FLAGS;
 179:../../lpc_chip_11cxx_lib/src/i2c_11xx.c **** 	switch (getCurState(pI2C)) {
 180:../../lpc_chip_11cxx_lib/src/i2c_11xx.c **** 	case 0x08:		/* Start condition on bus */
 181:../../lpc_chip_11cxx_lib/src/i2c_11xx.c **** 	case 0x10:		/* Repeated start condition */
 182:../../lpc_chip_11cxx_lib/src/i2c_11xx.c **** 		pI2C->DAT = (xfer->slaveAddr << 1) | (xfer->txSz == 0);
 183:../../lpc_chip_11cxx_lib/src/i2c_11xx.c **** 		break;
 184:../../lpc_chip_11cxx_lib/src/i2c_11xx.c **** 
 185:../../lpc_chip_11cxx_lib/src/i2c_11xx.c **** 	/* Tx handling */
 186:../../lpc_chip_11cxx_lib/src/i2c_11xx.c **** 	case 0x18:		/* SLA+W sent and ACK received */
 187:../../lpc_chip_11cxx_lib/src/i2c_11xx.c **** 	case 0x28:		/* DATA sent and ACK received */
 188:../../lpc_chip_11cxx_lib/src/i2c_11xx.c **** 		if (!xfer->txSz) {
 189:../../lpc_chip_11cxx_lib/src/i2c_11xx.c **** 			cclr &= ~(xfer->rxSz ? I2C_CON_STA : I2C_CON_STO);
 190:../../lpc_chip_11cxx_lib/src/i2c_11xx.c **** 		}
 191:../../lpc_chip_11cxx_lib/src/i2c_11xx.c **** 		else {
 192:../../lpc_chip_11cxx_lib/src/i2c_11xx.c **** 			pI2C->DAT = *xfer->txBuff++;
 193:../../lpc_chip_11cxx_lib/src/i2c_11xx.c **** 			xfer->txSz--;
 194:../../lpc_chip_11cxx_lib/src/i2c_11xx.c **** 		}
 195:../../lpc_chip_11cxx_lib/src/i2c_11xx.c **** 		break;
 196:../../lpc_chip_11cxx_lib/src/i2c_11xx.c **** 
 197:../../lpc_chip_11cxx_lib/src/i2c_11xx.c **** 	/* Rx handling */
 198:../../lpc_chip_11cxx_lib/src/i2c_11xx.c **** 	case 0x58:		/* Data Received and NACK sent */
 199:../../lpc_chip_11cxx_lib/src/i2c_11xx.c **** 		cclr &= ~I2C_CON_STO;
 200:../../lpc_chip_11cxx_lib/src/i2c_11xx.c **** 
 201:../../lpc_chip_11cxx_lib/src/i2c_11xx.c **** 	case 0x50:		/* Data Received and ACK sent */
 202:../../lpc_chip_11cxx_lib/src/i2c_11xx.c **** 		*xfer->rxBuff++ = pI2C->DAT;
 203:../../lpc_chip_11cxx_lib/src/i2c_11xx.c **** 		xfer->rxSz--;
 204:../../lpc_chip_11cxx_lib/src/i2c_11xx.c **** 
 205:../../lpc_chip_11cxx_lib/src/i2c_11xx.c **** 	case 0x40:		/* SLA+R sent and ACK received */
 206:../../lpc_chip_11cxx_lib/src/i2c_11xx.c **** 		if (xfer->rxSz > 1) {
 207:../../lpc_chip_11cxx_lib/src/i2c_11xx.c **** 			cclr &= ~I2C_CON_AA;
 208:../../lpc_chip_11cxx_lib/src/i2c_11xx.c **** 		}
 209:../../lpc_chip_11cxx_lib/src/i2c_11xx.c **** 		break;
 210:../../lpc_chip_11cxx_lib/src/i2c_11xx.c **** 
 211:../../lpc_chip_11cxx_lib/src/i2c_11xx.c **** 	/* NAK Handling */
 212:../../lpc_chip_11cxx_lib/src/i2c_11xx.c **** 	case 0x20:		/* SLA+W sent NAK received */
ARM GAS  /tmp/ccj3wEk9.s 			page 6


 213:../../lpc_chip_11cxx_lib/src/i2c_11xx.c **** 	case 0x30:		/* DATA sent NAK received */
 214:../../lpc_chip_11cxx_lib/src/i2c_11xx.c **** 	case 0x48:		/* SLA+R sent NAK received */
 215:../../lpc_chip_11cxx_lib/src/i2c_11xx.c **** 		xfer->status = I2C_STATUS_NAK;
 216:../../lpc_chip_11cxx_lib/src/i2c_11xx.c **** 		cclr &= ~I2C_CON_STO;
 217:../../lpc_chip_11cxx_lib/src/i2c_11xx.c **** 		break;
 218:../../lpc_chip_11cxx_lib/src/i2c_11xx.c **** 
 219:../../lpc_chip_11cxx_lib/src/i2c_11xx.c **** 	case 0x38:		/* Arbitration lost */
 220:../../lpc_chip_11cxx_lib/src/i2c_11xx.c **** 		xfer->status = I2C_STATUS_ARBLOST;
 221:../../lpc_chip_11cxx_lib/src/i2c_11xx.c **** 		break;
 222:../../lpc_chip_11cxx_lib/src/i2c_11xx.c **** 
 223:../../lpc_chip_11cxx_lib/src/i2c_11xx.c **** 	/* Bus Error */
 224:../../lpc_chip_11cxx_lib/src/i2c_11xx.c **** 	case 0x00:
 225:../../lpc_chip_11cxx_lib/src/i2c_11xx.c **** 		xfer->status = I2C_STATUS_BUSERR;
 226:../../lpc_chip_11cxx_lib/src/i2c_11xx.c **** 		cclr &= ~I2C_CON_STO;
 227:../../lpc_chip_11cxx_lib/src/i2c_11xx.c **** 	}
 228:../../lpc_chip_11cxx_lib/src/i2c_11xx.c **** 
 229:../../lpc_chip_11cxx_lib/src/i2c_11xx.c **** 
 230:../../lpc_chip_11cxx_lib/src/i2c_11xx.c **** 	/* Set clear control flags */
 231:../../lpc_chip_11cxx_lib/src/i2c_11xx.c **** 	pI2C->CONSET = cclr ^ I2C_CON_FLAGS;
 232:../../lpc_chip_11cxx_lib/src/i2c_11xx.c **** 	pI2C->CONCLR = cclr;
 233:../../lpc_chip_11cxx_lib/src/i2c_11xx.c **** 
 234:../../lpc_chip_11cxx_lib/src/i2c_11xx.c **** 	/* If stopped return 0 */
 235:../../lpc_chip_11cxx_lib/src/i2c_11xx.c **** 	if (!(cclr & I2C_CON_STO) || (xfer->status == I2C_STATUS_ARBLOST)) {
 236:../../lpc_chip_11cxx_lib/src/i2c_11xx.c **** 		if (xfer->status == I2C_STATUS_BUSY) {
 237:../../lpc_chip_11cxx_lib/src/i2c_11xx.c **** 			xfer->status = I2C_STATUS_DONE;
 238:../../lpc_chip_11cxx_lib/src/i2c_11xx.c **** 		}
 239:../../lpc_chip_11cxx_lib/src/i2c_11xx.c **** 		return 0;
 240:../../lpc_chip_11cxx_lib/src/i2c_11xx.c **** 	}
 241:../../lpc_chip_11cxx_lib/src/i2c_11xx.c **** 	return 1;
 242:../../lpc_chip_11cxx_lib/src/i2c_11xx.c **** }
 243:../../lpc_chip_11cxx_lib/src/i2c_11xx.c **** 
 244:../../lpc_chip_11cxx_lib/src/i2c_11xx.c **** /* Find the slave address of SLA+W or SLA+R */
 245:../../lpc_chip_11cxx_lib/src/i2c_11xx.c **** I2C_SLAVE_ID getSlaveIndex(LPC_I2C_T *pI2C)
 246:../../lpc_chip_11cxx_lib/src/i2c_11xx.c **** {
 247:../../lpc_chip_11cxx_lib/src/i2c_11xx.c **** 	switch (getCurState(pI2C)) {
 248:../../lpc_chip_11cxx_lib/src/i2c_11xx.c **** 	case 0x60:
 249:../../lpc_chip_11cxx_lib/src/i2c_11xx.c **** 	case 0x68:
 250:../../lpc_chip_11cxx_lib/src/i2c_11xx.c **** 	case 0x70:
 251:../../lpc_chip_11cxx_lib/src/i2c_11xx.c **** 	case 0x78:
 252:../../lpc_chip_11cxx_lib/src/i2c_11xx.c **** 	case 0xA8:
 253:../../lpc_chip_11cxx_lib/src/i2c_11xx.c **** 	case 0xB0:
 254:../../lpc_chip_11cxx_lib/src/i2c_11xx.c **** 		return lookupSlaveIndex(pI2C, pI2C->DAT);
 255:../../lpc_chip_11cxx_lib/src/i2c_11xx.c **** 	}
 256:../../lpc_chip_11cxx_lib/src/i2c_11xx.c **** 
 257:../../lpc_chip_11cxx_lib/src/i2c_11xx.c **** 	/* If everything is fine code should never come here */
 258:../../lpc_chip_11cxx_lib/src/i2c_11xx.c **** 	return I2C_SLAVE_GENERAL;
 259:../../lpc_chip_11cxx_lib/src/i2c_11xx.c **** }
 260:../../lpc_chip_11cxx_lib/src/i2c_11xx.c **** 
 261:../../lpc_chip_11cxx_lib/src/i2c_11xx.c **** /* Slave state machine handler */
 262:../../lpc_chip_11cxx_lib/src/i2c_11xx.c **** int handleSlaveXferState(LPC_I2C_T *pI2C, I2C_XFER_T *xfer)
 263:../../lpc_chip_11cxx_lib/src/i2c_11xx.c **** {
 264:../../lpc_chip_11cxx_lib/src/i2c_11xx.c **** 	uint32_t cclr = I2C_CON_FLAGS;
 265:../../lpc_chip_11cxx_lib/src/i2c_11xx.c **** 	int ret = RET_SLAVE_BUSY;
 266:../../lpc_chip_11cxx_lib/src/i2c_11xx.c **** 
 267:../../lpc_chip_11cxx_lib/src/i2c_11xx.c **** 	xfer->status = I2C_STATUS_BUSY;
 268:../../lpc_chip_11cxx_lib/src/i2c_11xx.c **** 	switch (getCurState(pI2C)) {
 269:../../lpc_chip_11cxx_lib/src/i2c_11xx.c **** 	case 0x80:		/* SLA: Data received + ACK sent */
ARM GAS  /tmp/ccj3wEk9.s 			page 7


 270:../../lpc_chip_11cxx_lib/src/i2c_11xx.c **** 	case 0x90:		/* GC: Data received + ACK sent */
 271:../../lpc_chip_11cxx_lib/src/i2c_11xx.c **** 		*xfer->rxBuff++ = pI2C->DAT;
 272:../../lpc_chip_11cxx_lib/src/i2c_11xx.c **** 		xfer->rxSz--;
 273:../../lpc_chip_11cxx_lib/src/i2c_11xx.c **** 		ret = RET_SLAVE_RX;
 274:../../lpc_chip_11cxx_lib/src/i2c_11xx.c **** 		if (xfer->rxSz > 1) {
 275:../../lpc_chip_11cxx_lib/src/i2c_11xx.c **** 			cclr &= ~I2C_CON_AA;
 276:../../lpc_chip_11cxx_lib/src/i2c_11xx.c **** 		}
 277:../../lpc_chip_11cxx_lib/src/i2c_11xx.c **** 		break;
 278:../../lpc_chip_11cxx_lib/src/i2c_11xx.c **** 
 279:../../lpc_chip_11cxx_lib/src/i2c_11xx.c **** 	case 0x60:		/* Own SLA+W received */
 280:../../lpc_chip_11cxx_lib/src/i2c_11xx.c **** 	case 0x68:		/* Own SLA+W received after losing arbitration */
 281:../../lpc_chip_11cxx_lib/src/i2c_11xx.c **** 	case 0x70:		/* GC+W received */
 282:../../lpc_chip_11cxx_lib/src/i2c_11xx.c **** 	case 0x78:		/* GC+W received after losing arbitration */
 283:../../lpc_chip_11cxx_lib/src/i2c_11xx.c **** 		xfer->slaveAddr = pI2C->DAT & ~1;
 284:../../lpc_chip_11cxx_lib/src/i2c_11xx.c **** 		if (xfer->rxSz > 1) {
 285:../../lpc_chip_11cxx_lib/src/i2c_11xx.c **** 			cclr &= ~I2C_CON_AA;
 286:../../lpc_chip_11cxx_lib/src/i2c_11xx.c **** 		}
 287:../../lpc_chip_11cxx_lib/src/i2c_11xx.c **** 		break;
 288:../../lpc_chip_11cxx_lib/src/i2c_11xx.c **** 
 289:../../lpc_chip_11cxx_lib/src/i2c_11xx.c **** 	case 0xA8:		/* SLA+R received */
 290:../../lpc_chip_11cxx_lib/src/i2c_11xx.c **** 	case 0xB0:		/* SLA+R received after losing arbitration */
 291:../../lpc_chip_11cxx_lib/src/i2c_11xx.c **** 		xfer->slaveAddr = pI2C->DAT & ~1;
 292:../../lpc_chip_11cxx_lib/src/i2c_11xx.c **** 
 293:../../lpc_chip_11cxx_lib/src/i2c_11xx.c **** 	case 0xB8:		/* DATA sent and ACK received */
 294:../../lpc_chip_11cxx_lib/src/i2c_11xx.c **** 		pI2C->DAT = *xfer->txBuff++;
 295:../../lpc_chip_11cxx_lib/src/i2c_11xx.c **** 		xfer->txSz--;
 296:../../lpc_chip_11cxx_lib/src/i2c_11xx.c **** 		if (xfer->txSz > 0) {
 297:../../lpc_chip_11cxx_lib/src/i2c_11xx.c **** 			cclr &= ~I2C_CON_AA;
 298:../../lpc_chip_11cxx_lib/src/i2c_11xx.c **** 		}
 299:../../lpc_chip_11cxx_lib/src/i2c_11xx.c **** 		ret = RET_SLAVE_TX;
 300:../../lpc_chip_11cxx_lib/src/i2c_11xx.c **** 		break;
 301:../../lpc_chip_11cxx_lib/src/i2c_11xx.c **** 
 302:../../lpc_chip_11cxx_lib/src/i2c_11xx.c **** 	case 0xC0:		/* Data transmitted and NAK received */
 303:../../lpc_chip_11cxx_lib/src/i2c_11xx.c **** 	case 0xC8:		/* Last data transmitted and ACK received */
 304:../../lpc_chip_11cxx_lib/src/i2c_11xx.c **** 	case 0x88:		/* SLA: Data received + NAK sent */
 305:../../lpc_chip_11cxx_lib/src/i2c_11xx.c **** 	case 0x98:		/* GC: Data received + NAK sent */
 306:../../lpc_chip_11cxx_lib/src/i2c_11xx.c **** 	case 0xA0:		/* STOP/Repeated START condition received */
 307:../../lpc_chip_11cxx_lib/src/i2c_11xx.c **** 		ret = RET_SLAVE_IDLE;
 308:../../lpc_chip_11cxx_lib/src/i2c_11xx.c **** 		cclr &= ~I2C_CON_AA;
 309:../../lpc_chip_11cxx_lib/src/i2c_11xx.c **** 		xfer->status = I2C_STATUS_DONE;
 310:../../lpc_chip_11cxx_lib/src/i2c_11xx.c **** 		if (xfer->slaveAddr & 1) {
 311:../../lpc_chip_11cxx_lib/src/i2c_11xx.c **** 			cclr &= ~I2C_CON_STA;
 312:../../lpc_chip_11cxx_lib/src/i2c_11xx.c **** 		}
 313:../../lpc_chip_11cxx_lib/src/i2c_11xx.c **** 		break;
 314:../../lpc_chip_11cxx_lib/src/i2c_11xx.c **** 	}
 315:../../lpc_chip_11cxx_lib/src/i2c_11xx.c **** 
 316:../../lpc_chip_11cxx_lib/src/i2c_11xx.c **** 	/* Set clear control flags */
 317:../../lpc_chip_11cxx_lib/src/i2c_11xx.c **** 	pI2C->CONSET = cclr ^ I2C_CON_FLAGS;
 318:../../lpc_chip_11cxx_lib/src/i2c_11xx.c **** 	pI2C->CONCLR = cclr;
 319:../../lpc_chip_11cxx_lib/src/i2c_11xx.c **** 
 320:../../lpc_chip_11cxx_lib/src/i2c_11xx.c **** 	return ret;
 321:../../lpc_chip_11cxx_lib/src/i2c_11xx.c **** }
 322:../../lpc_chip_11cxx_lib/src/i2c_11xx.c **** 
 323:../../lpc_chip_11cxx_lib/src/i2c_11xx.c **** /*****************************************************************************
 324:../../lpc_chip_11cxx_lib/src/i2c_11xx.c ****  * Public functions
 325:../../lpc_chip_11cxx_lib/src/i2c_11xx.c ****  ****************************************************************************/
 326:../../lpc_chip_11cxx_lib/src/i2c_11xx.c **** 
ARM GAS  /tmp/ccj3wEk9.s 			page 8


 327:../../lpc_chip_11cxx_lib/src/i2c_11xx.c **** /* Chip event handler interrupt based */
 328:../../lpc_chip_11cxx_lib/src/i2c_11xx.c **** void Chip_I2C_EventHandler(I2C_ID_T id, I2C_EVENT_T event)
 329:../../lpc_chip_11cxx_lib/src/i2c_11xx.c **** {
  74              		.loc 1 329 0
  75              		.cfi_startproc
  76              	.LVL0:
 330:../../lpc_chip_11cxx_lib/src/i2c_11xx.c **** 	struct i2c_interface *iic = &i2c;
 331:../../lpc_chip_11cxx_lib/src/i2c_11xx.c **** 	volatile I2C_STATUS_T *stat;
 332:../../lpc_chip_11cxx_lib/src/i2c_11xx.c **** 
 333:../../lpc_chip_11cxx_lib/src/i2c_11xx.c **** 	/* Only WAIT event needs to be handled */
 334:../../lpc_chip_11cxx_lib/src/i2c_11xx.c **** 	if (event != I2C_EVENT_WAIT) {
  77              		.loc 1 334 0
  78 0000 0129     		cmp	r1, #1	@ event,
  79 0002 00D0     		beq	.L7	@,
  80              	.L1:
 335:../../lpc_chip_11cxx_lib/src/i2c_11xx.c **** 		return;
 336:../../lpc_chip_11cxx_lib/src/i2c_11xx.c **** 	}
 337:../../lpc_chip_11cxx_lib/src/i2c_11xx.c **** 
 338:../../lpc_chip_11cxx_lib/src/i2c_11xx.c **** 	stat = &iic->mXfer->status;
 339:../../lpc_chip_11cxx_lib/src/i2c_11xx.c **** 	/* Wait for the status to change */
 340:../../lpc_chip_11cxx_lib/src/i2c_11xx.c **** 	while (*stat == I2C_STATUS_BUSY) {
 341:../../lpc_chip_11cxx_lib/src/i2c_11xx.c **** 	}
 342:../../lpc_chip_11cxx_lib/src/i2c_11xx.c **** }
  81              		.loc 1 342 0
  82              		@ sp needed	@
  83 0004 7047     		bx	lr
  84              	.L7:
  85              	.LVL1:
  86              	.LBB59:
  87              	.LBB60:
 338:../../lpc_chip_11cxx_lib/src/i2c_11xx.c **** 	/* Wait for the status to change */
  88              		.loc 1 338 0
  89 0006 034B     		ldr	r3, .L8	@ tmp114,
  90 0008 1A69     		ldr	r2, [r3, #16]	@ D.6708, i2c.mXfer
  91              	.LVL2:
  92              	.L3:
 340:../../lpc_chip_11cxx_lib/src/i2c_11xx.c **** 	}
  93              		.loc 1 340 0
  94 000a 137D     		ldrb	r3, [r2, #20]	@ MEM[(volatile I2C_STATUS_T *)_6 + 20B], MEM[(volatile I2C_STATUS_T *)_6 + 20B
  95 000c 042B     		cmp	r3, #4	@ MEM[(volatile I2C_STATUS_T *)_6 + 20B],
  96 000e FCD0     		beq	.L3	@,
  97 0010 F8E7     		b	.L1	@
  98              	.L9:
  99 0012 C046     		.align	2
 100              	.L8:
 101 0014 00000000 		.word	.LANCHOR0
 102              	.LBE60:
 103              	.LBE59:
 104              		.cfi_endproc
 105              	.LFE212:
 106              		.size	Chip_I2C_EventHandler, .-Chip_I2C_EventHandler
 107              		.section	.text.handleMasterXferState,"ax",%progbits
 108              		.align	2
 109              		.global	handleMasterXferState
 110              		.code	16
 111              		.thumb_func
 112              		.type	handleMasterXferState, %function
ARM GAS  /tmp/ccj3wEk9.s 			page 9


 113              	handleMasterXferState:
 114              	.LFB209:
 177:../../lpc_chip_11cxx_lib/src/i2c_11xx.c **** 	uint32_t cclr = I2C_CON_FLAGS;
 115              		.loc 1 177 0
 116              		.cfi_startproc
 117              	.LVL3:
 118              	.LBB61:
 119              	.LBB62:
 122:../../lpc_chip_11cxx_lib/src/i2c_11xx.c **** }
 120              		.loc 1 122 0
 121 0000 4368     		ldr	r3, [r0, #4]	@ D.6722, pI2C_10(D)->STAT
 122              	.LBE62:
 123              	.LBE61:
 177:../../lpc_chip_11cxx_lib/src/i2c_11xx.c **** 	uint32_t cclr = I2C_CON_FLAGS;
 124              		.loc 1 177 0
 125 0002 021C     		mov	r2, r0	@ pI2C, pI2C
 126              	.LBB65:
 127              	.LBB63:
 122:../../lpc_chip_11cxx_lib/src/i2c_11xx.c **** }
 128              		.loc 1 122 0
 129 0004 F820     		mov	r0, #248	@ tmp154,
 130              	.LVL4:
 131              	.LBE63:
 132              	.LBE65:
 177:../../lpc_chip_11cxx_lib/src/i2c_11xx.c **** 	uint32_t cclr = I2C_CON_FLAGS;
 133              		.loc 1 177 0
 134 0006 30B5     		push	{r4, r5, lr}	@
 135              		.cfi_def_cfa_offset 12
 136              		.cfi_offset 4, -12
 137              		.cfi_offset 5, -8
 138              		.cfi_offset 14, -4
 139              	.LBB66:
 140              	.LBB64:
 122:../../lpc_chip_11cxx_lib/src/i2c_11xx.c **** }
 141              		.loc 1 122 0
 142 0008 0340     		and	r3, r0	@ D.6718, tmp154
 143              	.LBE64:
 144              	.LBE66:
 179:../../lpc_chip_11cxx_lib/src/i2c_11xx.c **** 	case 0x08:		/* Start condition on bus */
 145              		.loc 1 179 0
 146 000a 582B     		cmp	r3, #88	@ D.6718,
 147 000c 52D8     		bhi	.L11	@,
 148 000e 3A48     		ldr	r0, .L43	@ tmp158,
 149 0010 9B00     		lsl	r3, r3, #2	@ tmp156, D.6718,
 150 0012 C358     		ldr	r3, [r0, r3]	@ tmp159,
 151 0014 9F46     		mov	pc, r3	@ tmp159
 152              		.section	.rodata.handleMasterXferState,"a",%progbits
 153              		.align	2
 154              	.L13:
 155 0000 54000000 		.word	.L12
 156 0004 B4000000 		.word	.L11
 157 0008 B4000000 		.word	.L11
 158 000c B4000000 		.word	.L11
 159 0010 B4000000 		.word	.L11
 160 0014 B4000000 		.word	.L11
 161 0018 B4000000 		.word	.L11
 162 001c B4000000 		.word	.L11
ARM GAS  /tmp/ccj3wEk9.s 			page 10


 163 0020 64000000 		.word	.L14
 164 0024 B4000000 		.word	.L11
 165 0028 B4000000 		.word	.L11
 166 002c B4000000 		.word	.L11
 167 0030 B4000000 		.word	.L11
 168 0034 B4000000 		.word	.L11
 169 0038 B4000000 		.word	.L11
 170 003c B4000000 		.word	.L11
 171 0040 64000000 		.word	.L14
 172 0044 B4000000 		.word	.L11
 173 0048 B4000000 		.word	.L11
 174 004c B4000000 		.word	.L11
 175 0050 B4000000 		.word	.L11
 176 0054 B4000000 		.word	.L11
 177 0058 B4000000 		.word	.L11
 178 005c B4000000 		.word	.L11
 179 0060 84000000 		.word	.L15
 180 0064 B4000000 		.word	.L11
 181 0068 B4000000 		.word	.L11
 182 006c B4000000 		.word	.L11
 183 0070 B4000000 		.word	.L11
 184 0074 B4000000 		.word	.L11
 185 0078 B4000000 		.word	.L11
 186 007c B4000000 		.word	.L11
 187 0080 98000000 		.word	.L16
 188 0084 B4000000 		.word	.L11
 189 0088 B4000000 		.word	.L11
 190 008c B4000000 		.word	.L11
 191 0090 B4000000 		.word	.L11
 192 0094 B4000000 		.word	.L11
 193 0098 B4000000 		.word	.L11
 194 009c B4000000 		.word	.L11
 195 00a0 84000000 		.word	.L15
 196 00a4 B4000000 		.word	.L11
 197 00a8 B4000000 		.word	.L11
 198 00ac B4000000 		.word	.L11
 199 00b0 B4000000 		.word	.L11
 200 00b4 B4000000 		.word	.L11
 201 00b8 B4000000 		.word	.L11
 202 00bc B4000000 		.word	.L11
 203 00c0 98000000 		.word	.L16
 204 00c4 B4000000 		.word	.L11
 205 00c8 B4000000 		.word	.L11
 206 00cc B4000000 		.word	.L11
 207 00d0 B4000000 		.word	.L11
 208 00d4 B4000000 		.word	.L11
 209 00d8 B4000000 		.word	.L11
 210 00dc B4000000 		.word	.L11
 211 00e0 9E000000 		.word	.L17
 212 00e4 B4000000 		.word	.L11
 213 00e8 B4000000 		.word	.L11
 214 00ec B4000000 		.word	.L11
 215 00f0 B4000000 		.word	.L11
 216 00f4 B4000000 		.word	.L11
 217 00f8 B4000000 		.word	.L11
 218 00fc B4000000 		.word	.L11
 219 0100 A6000000 		.word	.L18
ARM GAS  /tmp/ccj3wEk9.s 			page 11


 220 0104 B4000000 		.word	.L11
 221 0108 B4000000 		.word	.L11
 222 010c B4000000 		.word	.L11
 223 0110 B4000000 		.word	.L11
 224 0114 B4000000 		.word	.L11
 225 0118 B4000000 		.word	.L11
 226 011c B4000000 		.word	.L11
 227 0120 98000000 		.word	.L16
 228 0124 B4000000 		.word	.L11
 229 0128 B4000000 		.word	.L11
 230 012c B4000000 		.word	.L11
 231 0130 B4000000 		.word	.L11
 232 0134 B4000000 		.word	.L11
 233 0138 B4000000 		.word	.L11
 234 013c B4000000 		.word	.L11
 235 0140 16000000 		.word	.L32
 236 0144 B4000000 		.word	.L11
 237 0148 B4000000 		.word	.L11
 238 014c B4000000 		.word	.L11
 239 0150 B4000000 		.word	.L11
 240 0154 B4000000 		.word	.L11
 241 0158 B4000000 		.word	.L11
 242 015c B4000000 		.word	.L11
 243 0160 50000000 		.word	.L20
 244              		.section	.text.handleMasterXferState
 245              	.L32:
 178:../../lpc_chip_11cxx_lib/src/i2c_11xx.c **** 	switch (getCurState(pI2C)) {
 246              		.loc 1 178 0
 247 0016 3C20     		mov	r0, #60	@ cclr,
 248              	.L19:
 249              	.LVL5:
 202:../../lpc_chip_11cxx_lib/src/i2c_11xx.c **** 		xfer->rxSz--;
 250              		.loc 1 202 0
 251 0018 CB68     		ldr	r3, [r1, #12]	@ D.6724, xfer_11(D)->rxBuff
 252 001a 5C1C     		add	r4, r3, #1	@ D.6724, D.6724,
 253 001c CC60     		str	r4, [r1, #12]	@ D.6724, xfer_11(D)->rxBuff
 254 001e 9468     		ldr	r4, [r2, #8]	@ D.6722, pI2C_10(D)->DAT
 255 0020 1C70     		strb	r4, [r3]	@ D.6722, *_32
 203:../../lpc_chip_11cxx_lib/src/i2c_11xx.c **** 
 256              		.loc 1 203 0
 257 0022 0B69     		ldr	r3, [r1, #16]	@ tmp221, xfer_11(D)->rxSz
 258 0024 013B     		sub	r3, r3, #1	@ D.6718,
 259 0026 0B61     		str	r3, [r1, #16]	@ D.6718, xfer_11(D)->rxSz
 206:../../lpc_chip_11cxx_lib/src/i2c_11xx.c **** 			cclr &= ~I2C_CON_AA;
 260              		.loc 1 206 0
 261 0028 012B     		cmp	r3, #1	@ D.6718,
 262 002a 51DD     		ble	.L25	@,
 263 002c 0423     		mov	r3, #4	@ tmp182,
 264 002e 051C     		mov	r5, r0	@ D.6725, cclr
 265 0030 3C24     		mov	r4, #60	@ tmp183,
 266 0032 9D43     		bic	r5, r3	@ D.6725, tmp182
 267 0034 0C33     		add	r3, r3, #12	@ tmp184,
 268 0036 0340     		and	r3, r0	@ D.6722, cclr
 269 0038 281C     		mov	r0, r5	@ cclr, D.6725
 270              	.LVL6:
 271 003a 6C40     		eor	r4, r5	@ D.6722, D.6725
 272              	.L24:
ARM GAS  /tmp/ccj3wEk9.s 			page 12


 273              	.LVL7:
 231:../../lpc_chip_11cxx_lib/src/i2c_11xx.c **** 	pI2C->CONCLR = cclr;
 274              		.loc 1 231 0
 275 003c 1460     		str	r4, [r2]	@ D.6722, pI2C_10(D)->CONSET
 232:../../lpc_chip_11cxx_lib/src/i2c_11xx.c **** 
 276              		.loc 1 232 0
 277 003e 9061     		str	r0, [r2, #24]	@ cclr, pI2C_10(D)->CONCLR
 235:../../lpc_chip_11cxx_lib/src/i2c_11xx.c **** 		if (xfer->status == I2C_STATUS_BUSY) {
 278              		.loc 1 235 0
 279 0040 002B     		cmp	r3, #0	@ D.6722,
 280 0042 40D1     		bne	.L38	@,
 236:../../lpc_chip_11cxx_lib/src/i2c_11xx.c **** 			xfer->status = I2C_STATUS_DONE;
 281              		.loc 1 236 0
 282 0044 0A7D     		ldrb	r2, [r1, #20]	@ tmp198,
 283              	.LVL8:
 284 0046 042A     		cmp	r2, #4	@ tmp198,
 285 0048 0AD1     		bne	.L39	@,
 239:../../lpc_chip_11cxx_lib/src/i2c_11xx.c **** 	}
 286              		.loc 1 239 0
 287 004a 0020     		mov	r0, #0	@ D.6718,
 288              	.LVL9:
 237:../../lpc_chip_11cxx_lib/src/i2c_11xx.c **** 		}
 289              		.loc 1 237 0
 290 004c 0B75     		strb	r3, [r1, #20]	@ D.6722, xfer_11(D)->status
 291              	.LVL10:
 292              	.L36:
 242:../../lpc_chip_11cxx_lib/src/i2c_11xx.c **** 
 293              		.loc 1 242 0
 294              		@ sp needed	@
 295 004e 30BD     		pop	{r4, r5, pc}
 296              	.LVL11:
 297              	.L20:
 199:../../lpc_chip_11cxx_lib/src/i2c_11xx.c **** 
 298              		.loc 1 199 0
 299 0050 2C20     		mov	r0, #44	@ cclr,
 300 0052 E1E7     		b	.L19	@
 301              	.L12:
 225:../../lpc_chip_11cxx_lib/src/i2c_11xx.c **** 		cclr &= ~I2C_CON_STO;
 302              		.loc 1 225 0
 303 0054 0323     		mov	r3, #3	@ tmp189,
 304 0056 0B75     		strb	r3, [r1, #20]	@ tmp189, xfer_11(D)->status
 305              	.LVL12:
 306              	.L26:
 231:../../lpc_chip_11cxx_lib/src/i2c_11xx.c **** 	pI2C->CONCLR = cclr;
 307              		.loc 1 231 0
 308 0058 1023     		mov	r3, #16	@ tmp217,
 309 005a 1360     		str	r3, [r2]	@ tmp217, pI2C_10(D)->CONSET
 232:../../lpc_chip_11cxx_lib/src/i2c_11xx.c **** 
 310              		.loc 1 232 0
 311 005c 1C33     		add	r3, r3, #28	@ tmp218,
 312 005e 9361     		str	r3, [r2, #24]	@ tmp218, pI2C_10(D)->CONCLR
 313              	.LVL13:
 314              	.L39:
 239:../../lpc_chip_11cxx_lib/src/i2c_11xx.c **** 	}
 315              		.loc 1 239 0
 316 0060 0020     		mov	r0, #0	@ D.6718,
 317 0062 F4E7     		b	.L36	@
ARM GAS  /tmp/ccj3wEk9.s 			page 13


 318              	.LVL14:
 319              	.L14:
 182:../../lpc_chip_11cxx_lib/src/i2c_11xx.c **** 		break;
 320              		.loc 1 182 0
 321 0064 8868     		ldr	r0, [r1, #8]	@ D.6721, xfer_11(D)->txSz
 322 0066 4342     		neg	r3, r0	@ tmp163, D.6721
 323 0068 5841     		adc	r0, r0, r3	@ D.6721, D.6721, tmp163
 324 006a 0B78     		ldrb	r3, [r1]	@ D.6718, *xfer_11(D)
 325 006c 5B00     		lsl	r3, r3, #1	@ D.6718, D.6718,
 326 006e 0343     		orr	r3, r0	@ D.6722, D.6721
 327 0070 9360     		str	r3, [r2, #8]	@ D.6722, pI2C_10(D)->DAT
 328 0072 087D     		ldrb	r0, [r1, #20]	@ tmp167,
 329 0074 0238     		sub	r0, r0, #2	@ tmp169,
 330 0076 431E     		sub	r3, r0, #1	@ tmp170, tmp169
 331 0078 9841     		sbc	r0, r0, r3	@ D.6718, tmp169, tmp170
 332              	.L21:
 231:../../lpc_chip_11cxx_lib/src/i2c_11xx.c **** 	pI2C->CONCLR = cclr;
 333              		.loc 1 231 0
 334 007a 0023     		mov	r3, #0	@ tmp215,
 335 007c 1360     		str	r3, [r2]	@ tmp215, pI2C_10(D)->CONSET
 232:../../lpc_chip_11cxx_lib/src/i2c_11xx.c **** 
 336              		.loc 1 232 0
 337 007e 3C33     		add	r3, r3, #60	@ tmp216,
 338 0080 9361     		str	r3, [r2, #24]	@ tmp216, pI2C_10(D)->CONCLR
 339 0082 E4E7     		b	.L36	@
 340              	.L15:
 188:../../lpc_chip_11cxx_lib/src/i2c_11xx.c **** 			cclr &= ~(xfer->rxSz ? I2C_CON_STA : I2C_CON_STO);
 341              		.loc 1 188 0
 342 0084 8B68     		ldr	r3, [r1, #8]	@ D.6718, xfer_11(D)->txSz
 343 0086 002B     		cmp	r3, #0	@ D.6718,
 344 0088 27D1     		bne	.L22	@,
 189:../../lpc_chip_11cxx_lib/src/i2c_11xx.c **** 		}
 345              		.loc 1 189 0
 346 008a 0B69     		ldr	r3, [r1, #16]	@ tmp220, xfer_11(D)->rxSz
 347 008c 002B     		cmp	r3, #0	@ tmp220,
 348 008e 30D0     		beq	.L41	@,
 349 0090 1023     		mov	r3, #16	@ D.6722,
 350 0092 2024     		mov	r4, #32	@ D.6722,
 351 0094 1C20     		mov	r0, #28	@ cclr,
 352              	.LVL15:
 353 0096 D1E7     		b	.L24	@
 354              	.LVL16:
 355              	.L16:
 215:../../lpc_chip_11cxx_lib/src/i2c_11xx.c **** 		cclr &= ~I2C_CON_STO;
 356              		.loc 1 215 0
 357 0098 0123     		mov	r3, #1	@ tmp185,
 358 009a 0B75     		strb	r3, [r1, #20]	@ tmp185, xfer_11(D)->status
 359              	.LVL17:
 217:../../lpc_chip_11cxx_lib/src/i2c_11xx.c **** 
 360              		.loc 1 217 0
 361 009c DCE7     		b	.L26	@
 362              	.LVL18:
 363              	.L17:
 220:../../lpc_chip_11cxx_lib/src/i2c_11xx.c **** 		break;
 364              		.loc 1 220 0
 365 009e 0223     		mov	r3, #2	@ tmp187,
 221:../../lpc_chip_11cxx_lib/src/i2c_11xx.c **** 
ARM GAS  /tmp/ccj3wEk9.s 			page 14


 366              		.loc 1 221 0
 367 00a0 0020     		mov	r0, #0	@ D.6718,
 220:../../lpc_chip_11cxx_lib/src/i2c_11xx.c **** 		break;
 368              		.loc 1 220 0
 369 00a2 0B75     		strb	r3, [r1, #20]	@ tmp187, xfer_11(D)->status
 221:../../lpc_chip_11cxx_lib/src/i2c_11xx.c **** 
 370              		.loc 1 221 0
 371 00a4 E9E7     		b	.L21	@
 372              	.L18:
 206:../../lpc_chip_11cxx_lib/src/i2c_11xx.c **** 			cclr &= ~I2C_CON_AA;
 373              		.loc 1 206 0
 374 00a6 0B69     		ldr	r3, [r1, #16]	@ tmp223, xfer_11(D)->rxSz
 375 00a8 012B     		cmp	r3, #1	@ tmp223,
 376 00aa 08DD     		ble	.L42	@,
 377 00ac 1023     		mov	r3, #16	@ D.6722,
 378 00ae 0424     		mov	r4, #4	@ D.6722,
 379 00b0 3820     		mov	r0, #56	@ cclr,
 380              	.LVL19:
 381 00b2 C3E7     		b	.L24	@
 382              	.LVL20:
 383              	.L11:
 384 00b4 087D     		ldrb	r0, [r1, #20]	@ tmp211,
 385 00b6 0238     		sub	r0, r0, #2	@ tmp213,
 386 00b8 431E     		sub	r3, r0, #1	@ tmp214, tmp213
 387 00ba 9841     		sbc	r0, r0, r3	@ D.6718, tmp213, tmp214
 388 00bc DDE7     		b	.L21	@
 389              	.L42:
 231:../../lpc_chip_11cxx_lib/src/i2c_11xx.c **** 	pI2C->CONCLR = cclr;
 390              		.loc 1 231 0
 391 00be 0023     		mov	r3, #0	@ tmp202,
 392 00c0 1360     		str	r3, [r2]	@ tmp202, pI2C_10(D)->CONSET
 232:../../lpc_chip_11cxx_lib/src/i2c_11xx.c **** 
 393              		.loc 1 232 0
 394 00c2 3C33     		add	r3, r3, #60	@ tmp203,
 395 00c4 9361     		str	r3, [r2, #24]	@ tmp203, pI2C_10(D)->CONCLR
 396              	.LVL21:
 397              	.L38:
 398 00c6 087D     		ldrb	r0, [r1, #20]	@ tmp205,
 399 00c8 0238     		sub	r0, r0, #2	@ tmp207,
 400 00ca 431E     		sub	r3, r0, #1	@ tmp208, tmp207
 401 00cc 9841     		sbc	r0, r0, r3	@ D.6718, tmp207, tmp208
 402 00ce BEE7     		b	.L36	@
 403              	.LVL22:
 404              	.L25:
 405 00d0 3C24     		mov	r4, #60	@ tmp191,
 406 00d2 1023     		mov	r3, #16	@ tmp192,
 407 00d4 4440     		eor	r4, r0	@ D.6722, cclr
 408 00d6 0340     		and	r3, r0	@ D.6722, cclr
 409 00d8 B0E7     		b	.L24	@
 410              	.LVL23:
 411              	.L22:
 192:../../lpc_chip_11cxx_lib/src/i2c_11xx.c **** 			xfer->txSz--;
 412              		.loc 1 192 0
 413 00da 4868     		ldr	r0, [r1, #4]	@ D.6723, xfer_11(D)->txBuff
 193:../../lpc_chip_11cxx_lib/src/i2c_11xx.c **** 		}
 414              		.loc 1 193 0
 415 00dc 013B     		sub	r3, r3, #1	@ D.6718,
ARM GAS  /tmp/ccj3wEk9.s 			page 15


 192:../../lpc_chip_11cxx_lib/src/i2c_11xx.c **** 			xfer->txSz--;
 416              		.loc 1 192 0
 417 00de 441C     		add	r4, r0, #1	@ D.6723, D.6723,
 418 00e0 4C60     		str	r4, [r1, #4]	@ D.6723, xfer_11(D)->txBuff
 419 00e2 0078     		ldrb	r0, [r0]	@ D.6722, *_22
 420 00e4 9060     		str	r0, [r2, #8]	@ D.6722, pI2C_10(D)->DAT
 421 00e6 087D     		ldrb	r0, [r1, #20]	@ tmp175,
 193:../../lpc_chip_11cxx_lib/src/i2c_11xx.c **** 		}
 422              		.loc 1 193 0
 423 00e8 8B60     		str	r3, [r1, #8]	@ D.6718, xfer_11(D)->txSz
 424 00ea 0238     		sub	r0, r0, #2	@ tmp177,
 425 00ec 431E     		sub	r3, r0, #1	@ tmp178, tmp177
 426 00ee 9841     		sbc	r0, r0, r3	@ D.6718, tmp177, tmp178
 427 00f0 C3E7     		b	.L21	@
 428              	.L41:
 189:../../lpc_chip_11cxx_lib/src/i2c_11xx.c **** 		}
 429              		.loc 1 189 0
 430 00f2 1024     		mov	r4, #16	@ D.6722,
 431 00f4 2C20     		mov	r0, #44	@ cclr,
 432 00f6 A1E7     		b	.L24	@
 433              	.L44:
 434              		.align	2
 435              	.L43:
 436 00f8 00000000 		.word	.L13
 437              		.cfi_endproc
 438              	.LFE209:
 439              		.size	handleMasterXferState, .-handleMasterXferState
 440              		.section	.text.getSlaveIndex,"ax",%progbits
 441              		.align	2
 442              		.global	getSlaveIndex
 443              		.code	16
 444              		.thumb_func
 445              		.type	getSlaveIndex, %function
 446              	getSlaveIndex:
 447              	.LFB210:
 246:../../lpc_chip_11cxx_lib/src/i2c_11xx.c **** 	switch (getCurState(pI2C)) {
 448              		.loc 1 246 0
 449              		.cfi_startproc
 450              	.LVL24:
 451              	.LBB83:
 452              	.LBB84:
 122:../../lpc_chip_11cxx_lib/src/i2c_11xx.c **** }
 453              		.loc 1 122 0
 454 0000 F821     		mov	r1, #248	@ tmp159,
 455 0002 4368     		ldr	r3, [r0, #4]	@ D.6755, pI2C_4(D)->STAT
 456              	.LBE84:
 457              	.LBE83:
 246:../../lpc_chip_11cxx_lib/src/i2c_11xx.c **** 	switch (getCurState(pI2C)) {
 458              		.loc 1 246 0
 459 0004 10B5     		push	{r4, lr}	@
 460              		.cfi_def_cfa_offset 8
 461              		.cfi_offset 4, -8
 462              		.cfi_offset 14, -4
 246:../../lpc_chip_11cxx_lib/src/i2c_11xx.c **** 	switch (getCurState(pI2C)) {
 463              		.loc 1 246 0
 464 0006 021C     		mov	r2, r0	@ pI2C, pI2C
 465              	.LBB86:
ARM GAS  /tmp/ccj3wEk9.s 			page 16


 466              	.LBB85:
 122:../../lpc_chip_11cxx_lib/src/i2c_11xx.c **** }
 467              		.loc 1 122 0
 468 0008 0B40     		and	r3, r1	@ D.6756, tmp159
 469              	.LBE85:
 470              	.LBE86:
 247:../../lpc_chip_11cxx_lib/src/i2c_11xx.c **** 	case 0x60:
 471              		.loc 1 247 0
 472 000a 702B     		cmp	r3, #112	@ D.6756,
 473 000c 0CD0     		beq	.L47	@,
 474 000e 07DD     		ble	.L77	@,
 475 0010 A82B     		cmp	r3, #168	@ D.6756,
 476 0012 09D0     		beq	.L47	@,
 477 0014 B02B     		cmp	r3, #176	@ D.6756,
 478 0016 07D0     		beq	.L47	@,
 479 0018 782B     		cmp	r3, #120	@ D.6756,
 480 001a 05D0     		beq	.L47	@,
 481              	.L49:
 258:../../lpc_chip_11cxx_lib/src/i2c_11xx.c **** }
 482              		.loc 1 258 0
 483 001c 0020     		mov	r0, #0	@ D.6753,
 484              	.LVL25:
 485              	.L46:
 259:../../lpc_chip_11cxx_lib/src/i2c_11xx.c **** 
 486              		.loc 1 259 0
 487              		@ sp needed	@
 488 001e 10BD     		pop	{r4, pc}
 489              	.LVL26:
 490              	.L77:
 247:../../lpc_chip_11cxx_lib/src/i2c_11xx.c **** 	case 0x60:
 491              		.loc 1 247 0
 492 0020 602B     		cmp	r3, #96	@ D.6756,
 493 0022 01D0     		beq	.L47	@,
 494 0024 682B     		cmp	r3, #104	@ D.6756,
 495 0026 F9D1     		bne	.L49	@,
 496              	.L47:
 497              	.LVL27:
 498              	.LBB87:
 499              	.LBB88:
 254:../../lpc_chip_11cxx_lib/src/i2c_11xx.c **** 	}
 500              		.loc 1 254 0
 501 0028 9068     		ldr	r0, [r2, #8]	@ D.6755, pI2C_4(D)->DAT
 502              	.LVL28:
 503 002a C1B2     		uxtb	r1, r0	@ D.6754, D.6755
 504              	.LVL29:
 505              	.LBB89:
 506              	.LBB90:
 155:../../lpc_chip_11cxx_lib/src/i2c_11xx.c **** 		return I2C_SLAVE_GENERAL;					/* General call address */
 507              		.loc 1 155 0
 508 002c 4B08     		lsr	r3, r1, #1	@ tmp163, D.6754,
 156:../../lpc_chip_11cxx_lib/src/i2c_11xx.c **** 	}
 509              		.loc 1 156 0
 510 002e 0020     		mov	r0, #0	@ D.6753,
 155:../../lpc_chip_11cxx_lib/src/i2c_11xx.c **** 		return I2C_SLAVE_GENERAL;					/* General call address */
 511              		.loc 1 155 0
 512 0030 002B     		cmp	r3, #0	@ tmp163,
 513 0032 F4D0     		beq	.L46	@,
ARM GAS  /tmp/ccj3wEk9.s 			page 17


 514              	.LBB91:
 515              	.LBB92:
 148:../../lpc_chip_11cxx_lib/src/i2c_11xx.c **** 	return (addr1 & ~mask) == (addr2 & ~mask);
 516              		.loc 1 148 0
 517 0034 0124     		mov	r4, #1	@ tmp164,
 518              	.LBE92:
 519              	.LBE91:
 158:../../lpc_chip_11cxx_lib/src/i2c_11xx.c **** 		return I2C_SLAVE_0;
 520              		.loc 1 158 0
 521 0036 D368     		ldr	r3, [r2, #12]	@ D.6755, pI2C_4(D)->ADR0
 522 0038 106B     		ldr	r0, [r2, #48]	@ D.6755, pI2C_4(D)->MASK
 523              	.LVL30:
 524              	.LBB94:
 525              	.LBB93:
 149:../../lpc_chip_11cxx_lib/src/i2c_11xx.c **** }
 526              		.loc 1 149 0
 527 003a 4B40     		eor	r3, r1	@ tmp171, D.6754
 528              	.LVL31:
 148:../../lpc_chip_11cxx_lib/src/i2c_11xx.c **** 	return (addr1 & ~mask) == (addr2 & ~mask);
 529              		.loc 1 148 0
 530 003c 2043     		orr	r0, r4	@ tmp167, tmp164
 531              	.LVL32:
 149:../../lpc_chip_11cxx_lib/src/i2c_11xx.c **** }
 532              		.loc 1 149 0
 533 003e C0B2     		uxtb	r0, r0	@ D.6756, tmp167
 534 0040 DBB2     		uxtb	r3, r3	@ D.6756, tmp171
 535 0042 8343     		bic	r3, r0	@ D.6756, D.6756
 536              	.LBE93:
 537              	.LBE94:
 159:../../lpc_chip_11cxx_lib/src/i2c_11xx.c **** 	}
 538              		.loc 1 159 0
 539 0044 0120     		mov	r0, #1	@ D.6753,
 158:../../lpc_chip_11cxx_lib/src/i2c_11xx.c **** 		return I2C_SLAVE_0;
 540              		.loc 1 158 0
 541 0046 002B     		cmp	r3, #0	@ D.6756,
 542 0048 E9D0     		beq	.L46	@,
 161:../../lpc_chip_11cxx_lib/src/i2c_11xx.c **** 		return I2C_SLAVE_1;
 543              		.loc 1 161 0
 544 004a 136A     		ldr	r3, [r2, #32]	@ D.6755, pI2C_4(D)->ADR1
 545 004c 506B     		ldr	r0, [r2, #52]	@ D.6755, pI2C_4(D)->MASK
 546              	.LVL33:
 547              	.LBB95:
 548              	.LBB96:
 149:../../lpc_chip_11cxx_lib/src/i2c_11xx.c **** }
 549              		.loc 1 149 0
 550 004e 4B40     		eor	r3, r1	@ tmp181, D.6754
 551              	.LVL34:
 148:../../lpc_chip_11cxx_lib/src/i2c_11xx.c **** 	return (addr1 & ~mask) == (addr2 & ~mask);
 552              		.loc 1 148 0
 553 0050 2043     		orr	r0, r4	@ tmp177, tmp164
 554              	.LVL35:
 149:../../lpc_chip_11cxx_lib/src/i2c_11xx.c **** }
 555              		.loc 1 149 0
 556 0052 C0B2     		uxtb	r0, r0	@ D.6756, tmp177
 557 0054 DBB2     		uxtb	r3, r3	@ D.6756, tmp181
 558 0056 8343     		bic	r3, r0	@ D.6756, D.6756
 559              	.LBE96:
ARM GAS  /tmp/ccj3wEk9.s 			page 18


 560              	.LBE95:
 162:../../lpc_chip_11cxx_lib/src/i2c_11xx.c **** 	}
 561              		.loc 1 162 0
 562 0058 0220     		mov	r0, #2	@ D.6753,
 161:../../lpc_chip_11cxx_lib/src/i2c_11xx.c **** 		return I2C_SLAVE_1;
 563              		.loc 1 161 0
 564 005a 002B     		cmp	r3, #0	@ D.6756,
 565 005c DFD0     		beq	.L46	@,
 164:../../lpc_chip_11cxx_lib/src/i2c_11xx.c **** 		return I2C_SLAVE_2;
 566              		.loc 1 164 0
 567 005e 536A     		ldr	r3, [r2, #36]	@ D.6755, pI2C_4(D)->ADR2
 568 0060 906B     		ldr	r0, [r2, #56]	@ D.6755, pI2C_4(D)->MASK
 569              	.LVL36:
 570              	.LBB97:
 571              	.LBB98:
 149:../../lpc_chip_11cxx_lib/src/i2c_11xx.c **** }
 572              		.loc 1 149 0
 573 0062 4B40     		eor	r3, r1	@ tmp191, D.6754
 574              	.LVL37:
 148:../../lpc_chip_11cxx_lib/src/i2c_11xx.c **** 	return (addr1 & ~mask) == (addr2 & ~mask);
 575              		.loc 1 148 0
 576 0064 2043     		orr	r0, r4	@ tmp187, tmp164
 577              	.LVL38:
 149:../../lpc_chip_11cxx_lib/src/i2c_11xx.c **** }
 578              		.loc 1 149 0
 579 0066 C0B2     		uxtb	r0, r0	@ D.6756, tmp187
 580 0068 DBB2     		uxtb	r3, r3	@ D.6756, tmp191
 581 006a 8343     		bic	r3, r0	@ D.6756, D.6756
 582              	.LBE98:
 583              	.LBE97:
 165:../../lpc_chip_11cxx_lib/src/i2c_11xx.c **** 	}
 584              		.loc 1 165 0
 585 006c 0320     		mov	r0, #3	@ D.6753,
 164:../../lpc_chip_11cxx_lib/src/i2c_11xx.c **** 		return I2C_SLAVE_2;
 586              		.loc 1 164 0
 587 006e 002B     		cmp	r3, #0	@ D.6756,
 588 0070 D5D0     		beq	.L46	@,
 167:../../lpc_chip_11cxx_lib/src/i2c_11xx.c **** 		return I2C_SLAVE_3;
 589              		.loc 1 167 0
 590 0072 936A     		ldr	r3, [r2, #40]	@ D.6755, pI2C_4(D)->ADR3
 591 0074 D26B     		ldr	r2, [r2, #60]	@ D.6755, pI2C_4(D)->MASK
 592              	.LVL39:
 593              	.LBB99:
 594              	.LBB100:
 149:../../lpc_chip_11cxx_lib/src/i2c_11xx.c **** }
 595              		.loc 1 149 0
 596 0076 5940     		eor	r1, r3	@ tmp201, D.6755
 597              	.LVL40:
 148:../../lpc_chip_11cxx_lib/src/i2c_11xx.c **** 	return (addr1 & ~mask) == (addr2 & ~mask);
 598              		.loc 1 148 0
 599 0078 1443     		orr	r4, r2	@ tmp197, D.6755
 149:../../lpc_chip_11cxx_lib/src/i2c_11xx.c **** }
 600              		.loc 1 149 0
 601 007a E4B2     		uxtb	r4, r4	@ D.6756, tmp197
 602 007c C8B2     		uxtb	r0, r1	@ D.6756, tmp201
 603 007e A043     		bic	r0, r4	@ D.6756, D.6756
 604              	.LBE100:
ARM GAS  /tmp/ccj3wEk9.s 			page 19


 605              	.LBE99:
 172:../../lpc_chip_11cxx_lib/src/i2c_11xx.c **** }
 606              		.loc 1 172 0
 607 0080 4342     		neg	r3, r0	@ tmp206, D.6756
 608 0082 5841     		adc	r0, r0, r3	@ tmp205, D.6756, tmp206
 609              	.LVL41:
 610 0084 8000     		lsl	r0, r0, #2	@ D.6753, tmp205,
 611 0086 CAE7     		b	.L46	@
 612              	.LBE90:
 613              	.LBE89:
 614              	.LBE88:
 615              	.LBE87:
 616              		.cfi_endproc
 617              	.LFE210:
 618              		.size	getSlaveIndex, .-getSlaveIndex
 619              		.section	.text.handleSlaveXferState,"ax",%progbits
 620              		.align	2
 621              		.global	handleSlaveXferState
 622              		.code	16
 623              		.thumb_func
 624              		.type	handleSlaveXferState, %function
 625              	handleSlaveXferState:
 626              	.LFB211:
 263:../../lpc_chip_11cxx_lib/src/i2c_11xx.c **** 	uint32_t cclr = I2C_CON_FLAGS;
 627              		.loc 1 263 0
 628              		.cfi_startproc
 629              	.LVL42:
 267:../../lpc_chip_11cxx_lib/src/i2c_11xx.c **** 	switch (getCurState(pI2C)) {
 630              		.loc 1 267 0
 631 0000 0423     		mov	r3, #4	@ tmp140,
 263:../../lpc_chip_11cxx_lib/src/i2c_11xx.c **** 	uint32_t cclr = I2C_CON_FLAGS;
 632              		.loc 1 263 0
 633 0002 021C     		mov	r2, r0	@ pI2C, pI2C
 267:../../lpc_chip_11cxx_lib/src/i2c_11xx.c **** 	switch (getCurState(pI2C)) {
 634              		.loc 1 267 0
 635 0004 0B75     		strb	r3, [r1, #20]	@ tmp140, xfer_6(D)->status
 636              	.LVL43:
 637              	.LBB101:
 638              	.LBB102:
 122:../../lpc_chip_11cxx_lib/src/i2c_11xx.c **** }
 639              		.loc 1 122 0
 640 0006 4368     		ldr	r3, [r0, #4]	@ D.6766, pI2C_8(D)->STAT
 641 0008 F820     		mov	r0, #248	@ tmp142,
 642              	.LVL44:
 643 000a 0340     		and	r3, r0	@ D.6768, tmp142
 644              	.LBE102:
 645              	.LBE101:
 268:../../lpc_chip_11cxx_lib/src/i2c_11xx.c **** 	case 0x80:		/* SLA: Data received + ACK sent */
 646              		.loc 1 268 0
 647 000c 603B     		sub	r3, r3, #96	@ tmp144,
 648 000e 682B     		cmp	r3, #104	@ tmp144,
 649 0010 39D8     		bhi	.L88	@,
 650 0012 2548     		ldr	r0, .L91	@ tmp147,
 651 0014 9B00     		lsl	r3, r3, #2	@ tmp145, tmp144,
 652 0016 C358     		ldr	r3, [r0, r3]	@ tmp148,
 653 0018 9F46     		mov	pc, r3	@ tmp148
 654              		.section	.rodata.handleSlaveXferState,"a",%progbits
ARM GAS  /tmp/ccj3wEk9.s 			page 20


 655              		.align	2
 656              	.L81:
 657 0000 42000000 		.word	.L80
 658 0004 86000000 		.word	.L88
 659 0008 86000000 		.word	.L88
 660 000c 86000000 		.word	.L88
 661 0010 86000000 		.word	.L88
 662 0014 86000000 		.word	.L88
 663 0018 86000000 		.word	.L88
 664 001c 86000000 		.word	.L88
 665 0020 42000000 		.word	.L80
 666 0024 86000000 		.word	.L88
 667 0028 86000000 		.word	.L88
 668 002c 86000000 		.word	.L88
 669 0030 86000000 		.word	.L88
 670 0034 86000000 		.word	.L88
 671 0038 86000000 		.word	.L88
 672 003c 86000000 		.word	.L88
 673 0040 42000000 		.word	.L80
 674 0044 86000000 		.word	.L88
 675 0048 86000000 		.word	.L88
 676 004c 86000000 		.word	.L88
 677 0050 86000000 		.word	.L88
 678 0054 86000000 		.word	.L88
 679 0058 86000000 		.word	.L88
 680 005c 86000000 		.word	.L88
 681 0060 42000000 		.word	.L80
 682 0064 86000000 		.word	.L88
 683 0068 86000000 		.word	.L88
 684 006c 86000000 		.word	.L88
 685 0070 86000000 		.word	.L88
 686 0074 86000000 		.word	.L88
 687 0078 86000000 		.word	.L88
 688 007c 86000000 		.word	.L88
 689 0080 58000000 		.word	.L82
 690 0084 86000000 		.word	.L88
 691 0088 86000000 		.word	.L88
 692 008c 86000000 		.word	.L88
 693 0090 86000000 		.word	.L88
 694 0094 86000000 		.word	.L88
 695 0098 86000000 		.word	.L88
 696 009c 86000000 		.word	.L88
 697 00a0 74000000 		.word	.L83
 698 00a4 86000000 		.word	.L88
 699 00a8 86000000 		.word	.L88
 700 00ac 86000000 		.word	.L88
 701 00b0 86000000 		.word	.L88
 702 00b4 86000000 		.word	.L88
 703 00b8 86000000 		.word	.L88
 704 00bc 86000000 		.word	.L88
 705 00c0 58000000 		.word	.L82
 706 00c4 86000000 		.word	.L88
 707 00c8 86000000 		.word	.L88
 708 00cc 86000000 		.word	.L88
 709 00d0 86000000 		.word	.L88
 710 00d4 86000000 		.word	.L88
 711 00d8 86000000 		.word	.L88
ARM GAS  /tmp/ccj3wEk9.s 			page 21


 712 00dc 86000000 		.word	.L88
 713 00e0 74000000 		.word	.L83
 714 00e4 86000000 		.word	.L88
 715 00e8 86000000 		.word	.L88
 716 00ec 86000000 		.word	.L88
 717 00f0 86000000 		.word	.L88
 718 00f4 86000000 		.word	.L88
 719 00f8 86000000 		.word	.L88
 720 00fc 86000000 		.word	.L88
 721 0100 74000000 		.word	.L83
 722 0104 86000000 		.word	.L88
 723 0108 86000000 		.word	.L88
 724 010c 86000000 		.word	.L88
 725 0110 86000000 		.word	.L88
 726 0114 86000000 		.word	.L88
 727 0118 86000000 		.word	.L88
 728 011c 86000000 		.word	.L88
 729 0120 1A000000 		.word	.L84
 730 0124 86000000 		.word	.L88
 731 0128 86000000 		.word	.L88
 732 012c 86000000 		.word	.L88
 733 0130 86000000 		.word	.L88
 734 0134 86000000 		.word	.L88
 735 0138 86000000 		.word	.L88
 736 013c 86000000 		.word	.L88
 737 0140 1A000000 		.word	.L84
 738 0144 86000000 		.word	.L88
 739 0148 86000000 		.word	.L88
 740 014c 86000000 		.word	.L88
 741 0150 86000000 		.word	.L88
 742 0154 86000000 		.word	.L88
 743 0158 86000000 		.word	.L88
 744 015c 86000000 		.word	.L88
 745 0160 22000000 		.word	.L85
 746 0164 86000000 		.word	.L88
 747 0168 86000000 		.word	.L88
 748 016c 86000000 		.word	.L88
 749 0170 86000000 		.word	.L88
 750 0174 86000000 		.word	.L88
 751 0178 86000000 		.word	.L88
 752 017c 86000000 		.word	.L88
 753 0180 74000000 		.word	.L83
 754 0184 86000000 		.word	.L88
 755 0188 86000000 		.word	.L88
 756 018c 86000000 		.word	.L88
 757 0190 86000000 		.word	.L88
 758 0194 86000000 		.word	.L88
 759 0198 86000000 		.word	.L88
 760 019c 86000000 		.word	.L88
 761 01a0 74000000 		.word	.L83
 762              		.section	.text.handleSlaveXferState
 763              	.L84:
 291:../../lpc_chip_11cxx_lib/src/i2c_11xx.c **** 
 764              		.loc 1 291 0
 765 001a 0120     		mov	r0, #1	@ tmp159,
 766 001c 9368     		ldr	r3, [r2, #8]	@ D.6766, pI2C_8(D)->DAT
 767 001e 8343     		bic	r3, r0	@ tmp158, tmp159
ARM GAS  /tmp/ccj3wEk9.s 			page 22


 768 0020 0B70     		strb	r3, [r1]	@ tmp158, xfer_6(D)->slaveAddr
 769              	.L85:
 294:../../lpc_chip_11cxx_lib/src/i2c_11xx.c **** 		xfer->txSz--;
 770              		.loc 1 294 0
 771 0022 4B68     		ldr	r3, [r1, #4]	@ D.6769, xfer_6(D)->txBuff
 772 0024 581C     		add	r0, r3, #1	@ D.6769, D.6769,
 773 0026 4860     		str	r0, [r1, #4]	@ D.6769, xfer_6(D)->txBuff
 774 0028 1B78     		ldrb	r3, [r3]	@ D.6766, *_27
 775 002a 9360     		str	r3, [r2, #8]	@ D.6766, pI2C_8(D)->DAT
 295:../../lpc_chip_11cxx_lib/src/i2c_11xx.c **** 		if (xfer->txSz > 0) {
 776              		.loc 1 295 0
 777 002c 8B68     		ldr	r3, [r1, #8]	@ tmp176, xfer_6(D)->txSz
 778 002e 013B     		sub	r3, r3, #1	@ D.6768,
 779 0030 8B60     		str	r3, [r1, #8]	@ D.6768, xfer_6(D)->txSz
 296:../../lpc_chip_11cxx_lib/src/i2c_11xx.c **** 			cclr &= ~I2C_CON_AA;
 780              		.loc 1 296 0
 781 0032 002B     		cmp	r3, #0	@ D.6768,
 782 0034 2BDD     		ble	.L89	@,
 783 0036 0421     		mov	r1, #4	@ D.6766,
 784              	.LVL45:
 299:../../lpc_chip_11cxx_lib/src/i2c_11xx.c **** 		break;
 785              		.loc 1 299 0
 786 0038 0620     		mov	r0, #6	@ ret,
 297:../../lpc_chip_11cxx_lib/src/i2c_11xx.c **** 		}
 787              		.loc 1 297 0
 788 003a 3823     		mov	r3, #56	@ cclr,
 789              	.LVL46:
 790              	.L79:
 317:../../lpc_chip_11cxx_lib/src/i2c_11xx.c **** 	pI2C->CONCLR = cclr;
 791              		.loc 1 317 0
 792 003c 1160     		str	r1, [r2]	@ D.6766, pI2C_8(D)->CONSET
 321:../../lpc_chip_11cxx_lib/src/i2c_11xx.c **** 
 793              		.loc 1 321 0
 794              		@ sp needed	@
 318:../../lpc_chip_11cxx_lib/src/i2c_11xx.c **** 
 795              		.loc 1 318 0
 796 003e 9361     		str	r3, [r2, #24]	@ cclr, pI2C_8(D)->CONCLR
 321:../../lpc_chip_11cxx_lib/src/i2c_11xx.c **** 
 797              		.loc 1 321 0
 798 0040 7047     		bx	lr
 799              	.LVL47:
 800              	.L80:
 283:../../lpc_chip_11cxx_lib/src/i2c_11xx.c **** 		if (xfer->rxSz > 1) {
 801              		.loc 1 283 0
 802 0042 0120     		mov	r0, #1	@ tmp154,
 803 0044 9368     		ldr	r3, [r2, #8]	@ D.6766, pI2C_8(D)->DAT
 804 0046 8343     		bic	r3, r0	@ tmp153, tmp154
 805 0048 0B70     		strb	r3, [r1]	@ tmp153, xfer_6(D)->slaveAddr
 284:../../lpc_chip_11cxx_lib/src/i2c_11xx.c **** 			cclr &= ~I2C_CON_AA;
 806              		.loc 1 284 0
 807 004a 0B69     		ldr	r3, [r1, #16]	@ xfer_6(D)->rxSz, xfer_6(D)->rxSz
 808 004c 012B     		cmp	r3, #1	@ xfer_6(D)->rxSz,
 809 004e 1ADD     		ble	.L88	@,
 810 0050 0421     		mov	r1, #4	@ D.6766,
 811              	.LVL48:
 265:../../lpc_chip_11cxx_lib/src/i2c_11xx.c **** 
 812              		.loc 1 265 0
ARM GAS  /tmp/ccj3wEk9.s 			page 23


 813 0052 0020     		mov	r0, #0	@ ret,
 285:../../lpc_chip_11cxx_lib/src/i2c_11xx.c **** 		}
 814              		.loc 1 285 0
 815 0054 3823     		mov	r3, #56	@ cclr,
 816 0056 F1E7     		b	.L79	@
 817              	.LVL49:
 818              	.L82:
 271:../../lpc_chip_11cxx_lib/src/i2c_11xx.c **** 		xfer->rxSz--;
 819              		.loc 1 271 0
 820 0058 CB68     		ldr	r3, [r1, #12]	@ D.6765, xfer_6(D)->rxBuff
 821 005a 581C     		add	r0, r3, #1	@ D.6765, D.6765,
 822 005c C860     		str	r0, [r1, #12]	@ D.6765, xfer_6(D)->rxBuff
 823 005e 9068     		ldr	r0, [r2, #8]	@ D.6766, pI2C_8(D)->DAT
 824 0060 1870     		strb	r0, [r3]	@ D.6766, *_9
 272:../../lpc_chip_11cxx_lib/src/i2c_11xx.c **** 		ret = RET_SLAVE_RX;
 825              		.loc 1 272 0
 826 0062 0B69     		ldr	r3, [r1, #16]	@ tmp175, xfer_6(D)->rxSz
 827 0064 013B     		sub	r3, r3, #1	@ D.6768,
 828 0066 0B61     		str	r3, [r1, #16]	@ D.6768, xfer_6(D)->rxSz
 829              	.LVL50:
 274:../../lpc_chip_11cxx_lib/src/i2c_11xx.c **** 			cclr &= ~I2C_CON_AA;
 830              		.loc 1 274 0
 831 0068 012B     		cmp	r3, #1	@ D.6768,
 832 006a 18DD     		ble	.L87	@,
 833 006c 0421     		mov	r1, #4	@ D.6766,
 834              	.LVL51:
 273:../../lpc_chip_11cxx_lib/src/i2c_11xx.c **** 		if (xfer->rxSz > 1) {
 835              		.loc 1 273 0
 836 006e 0520     		mov	r0, #5	@ ret,
 275:../../lpc_chip_11cxx_lib/src/i2c_11xx.c **** 		}
 837              		.loc 1 275 0
 838 0070 3823     		mov	r3, #56	@ cclr,
 839 0072 E3E7     		b	.L79	@
 840              	.LVL52:
 841              	.L83:
 309:../../lpc_chip_11cxx_lib/src/i2c_11xx.c **** 		if (xfer->slaveAddr & 1) {
 842              		.loc 1 309 0
 843 0074 0023     		mov	r3, #0	@ tmp163,
 844 0076 0B75     		strb	r3, [r1, #20]	@ tmp163, xfer_6(D)->status
 310:../../lpc_chip_11cxx_lib/src/i2c_11xx.c **** 			cclr &= ~I2C_CON_STA;
 845              		.loc 1 310 0
 846 0078 0B78     		ldrb	r3, [r1]	@ *xfer_6(D), *xfer_6(D)
 847 007a DB07     		lsl	r3, r3, #31	@ tmp174, *xfer_6(D),
 848 007c 0BD5     		bpl	.L90	@,
 849 007e 2421     		mov	r1, #36	@ D.6766,
 850              	.LVL53:
 307:../../lpc_chip_11cxx_lib/src/i2c_11xx.c **** 		cclr &= ~I2C_CON_AA;
 851              		.loc 1 307 0
 852 0080 0220     		mov	r0, #2	@ ret,
 311:../../lpc_chip_11cxx_lib/src/i2c_11xx.c **** 		}
 853              		.loc 1 311 0
 854 0082 1823     		mov	r3, #24	@ cclr,
 855 0084 DAE7     		b	.L79	@
 856              	.LVL54:
 857              	.L88:
 858 0086 0021     		mov	r1, #0	@ D.6766,
 859              	.LVL55:
ARM GAS  /tmp/ccj3wEk9.s 			page 24


 265:../../lpc_chip_11cxx_lib/src/i2c_11xx.c **** 
 860              		.loc 1 265 0
 861 0088 0020     		mov	r0, #0	@ ret,
 264:../../lpc_chip_11cxx_lib/src/i2c_11xx.c **** 	int ret = RET_SLAVE_BUSY;
 862              		.loc 1 264 0
 863 008a 3C23     		mov	r3, #60	@ cclr,
 864 008c D6E7     		b	.L79	@
 865              	.LVL56:
 866              	.L89:
 867 008e 0021     		mov	r1, #0	@ D.6766,
 868              	.LVL57:
 299:../../lpc_chip_11cxx_lib/src/i2c_11xx.c **** 		break;
 869              		.loc 1 299 0
 870 0090 0620     		mov	r0, #6	@ ret,
 264:../../lpc_chip_11cxx_lib/src/i2c_11xx.c **** 	int ret = RET_SLAVE_BUSY;
 871              		.loc 1 264 0
 872 0092 3C23     		mov	r3, #60	@ cclr,
 873 0094 D2E7     		b	.L79	@
 874              	.LVL58:
 875              	.L90:
 876 0096 0421     		mov	r1, #4	@ D.6766,
 877              	.LVL59:
 307:../../lpc_chip_11cxx_lib/src/i2c_11xx.c **** 		cclr &= ~I2C_CON_AA;
 878              		.loc 1 307 0
 879 0098 0220     		mov	r0, #2	@ ret,
 308:../../lpc_chip_11cxx_lib/src/i2c_11xx.c **** 		xfer->status = I2C_STATUS_DONE;
 880              		.loc 1 308 0
 881 009a 3823     		mov	r3, #56	@ cclr,
 882 009c CEE7     		b	.L79	@
 883              	.LVL60:
 884              	.L87:
 885 009e 0021     		mov	r1, #0	@ D.6766,
 886              	.LVL61:
 273:../../lpc_chip_11cxx_lib/src/i2c_11xx.c **** 		if (xfer->rxSz > 1) {
 887              		.loc 1 273 0
 888 00a0 0520     		mov	r0, #5	@ ret,
 264:../../lpc_chip_11cxx_lib/src/i2c_11xx.c **** 	int ret = RET_SLAVE_BUSY;
 889              		.loc 1 264 0
 890 00a2 3C23     		mov	r3, #60	@ cclr,
 891 00a4 CAE7     		b	.L79	@
 892              	.L92:
 893 00a6 C046     		.align	2
 894              	.L91:
 895 00a8 00000000 		.word	.L81
 896              		.cfi_endproc
 897              	.LFE211:
 898              		.size	handleSlaveXferState, .-handleSlaveXferState
 899              		.section	.text.Chip_I2C_Init,"ax",%progbits
 900              		.align	2
 901              		.global	Chip_I2C_Init
 902              		.code	16
 903              		.thumb_func
 904              		.type	Chip_I2C_Init, %function
 905              	Chip_I2C_Init:
 906              	.LFB214:
 343:../../lpc_chip_11cxx_lib/src/i2c_11xx.c **** 
 344:../../lpc_chip_11cxx_lib/src/i2c_11xx.c **** /* Chip polling event handler */
ARM GAS  /tmp/ccj3wEk9.s 			page 25


 345:../../lpc_chip_11cxx_lib/src/i2c_11xx.c **** void Chip_I2C_EventHandlerPolling(I2C_ID_T id, I2C_EVENT_T event)
 346:../../lpc_chip_11cxx_lib/src/i2c_11xx.c **** {
 347:../../lpc_chip_11cxx_lib/src/i2c_11xx.c **** 	struct i2c_interface *iic = &i2c;
 348:../../lpc_chip_11cxx_lib/src/i2c_11xx.c **** 	volatile I2C_STATUS_T *stat;
 349:../../lpc_chip_11cxx_lib/src/i2c_11xx.c **** 
 350:../../lpc_chip_11cxx_lib/src/i2c_11xx.c **** 	/* Only WAIT event needs to be handled */
 351:../../lpc_chip_11cxx_lib/src/i2c_11xx.c **** 	if (event != I2C_EVENT_WAIT) {
 352:../../lpc_chip_11cxx_lib/src/i2c_11xx.c **** 		return;
 353:../../lpc_chip_11cxx_lib/src/i2c_11xx.c **** 	}
 354:../../lpc_chip_11cxx_lib/src/i2c_11xx.c **** 
 355:../../lpc_chip_11cxx_lib/src/i2c_11xx.c **** 	stat = &iic->mXfer->status;
 356:../../lpc_chip_11cxx_lib/src/i2c_11xx.c **** 	/* Call the state change handler till xfer is done */
 357:../../lpc_chip_11cxx_lib/src/i2c_11xx.c **** 	while (*stat == I2C_STATUS_BUSY) {
 358:../../lpc_chip_11cxx_lib/src/i2c_11xx.c **** 		if (Chip_I2C_IsStateChanged(id)) {
 359:../../lpc_chip_11cxx_lib/src/i2c_11xx.c **** 			Chip_I2C_MasterStateHandler(id);
 360:../../lpc_chip_11cxx_lib/src/i2c_11xx.c **** 		}
 361:../../lpc_chip_11cxx_lib/src/i2c_11xx.c **** 	}
 362:../../lpc_chip_11cxx_lib/src/i2c_11xx.c **** }
 363:../../lpc_chip_11cxx_lib/src/i2c_11xx.c **** 
 364:../../lpc_chip_11cxx_lib/src/i2c_11xx.c **** /* Initializes the LPC_I2C peripheral with specified parameter */
 365:../../lpc_chip_11cxx_lib/src/i2c_11xx.c **** void Chip_I2C_Init(I2C_ID_T id)
 366:../../lpc_chip_11cxx_lib/src/i2c_11xx.c **** {
 907              		.loc 1 366 0
 908              		.cfi_startproc
 909              	.LVL62:
 367:../../lpc_chip_11cxx_lib/src/i2c_11xx.c **** 
 368:../../lpc_chip_11cxx_lib/src/i2c_11xx.c **** 	i2c.ip = LPC_I2C;
 369:../../lpc_chip_11cxx_lib/src/i2c_11xx.c **** 	i2c.clk = SYSCTL_CLOCK_I2C;
 910              		.loc 1 369 0
 911 0000 0522     		mov	r2, #5	@ tmp116,
 368:../../lpc_chip_11cxx_lib/src/i2c_11xx.c **** 	i2c.clk = SYSCTL_CLOCK_I2C;
 912              		.loc 1 368 0
 913 0002 0B4B     		ldr	r3, .L94	@ tmp113,
 366:../../lpc_chip_11cxx_lib/src/i2c_11xx.c **** 
 914              		.loc 1 366 0
 915 0004 10B5     		push	{r4, lr}	@
 916              		.cfi_def_cfa_offset 8
 917              		.cfi_offset 4, -8
 918              		.cfi_offset 14, -4
 919              		.loc 1 369 0
 920 0006 1A71     		strb	r2, [r3, #4]	@ tmp116, i2c.clk
 370:../../lpc_chip_11cxx_lib/src/i2c_11xx.c **** 	i2c.mEvent = Chip_I2C_EventHandler;
 921              		.loc 1 370 0
 922 0008 0A4A     		ldr	r2, .L94+4	@ tmp119,
 368:../../lpc_chip_11cxx_lib/src/i2c_11xx.c **** 	i2c.clk = SYSCTL_CLOCK_I2C;
 923              		.loc 1 368 0
 924 000a 8021     		mov	r1, #128	@ tmp114,
 925              		.loc 1 370 0
 926 000c 9A60     		str	r2, [r3, #8]	@ tmp119, i2c.mEvent
 371:../../lpc_chip_11cxx_lib/src/i2c_11xx.c **** 	i2c.sEvent = NULL;
 927              		.loc 1 371 0
 928 000e 0022     		mov	r2, #0	@ tmp121,
 368:../../lpc_chip_11cxx_lib/src/i2c_11xx.c **** 	i2c.clk = SYSCTL_CLOCK_I2C;
 929              		.loc 1 368 0
 930 0010 C905     		lsl	r1, r1, #23	@ tmp114, tmp114,
 372:../../lpc_chip_11cxx_lib/src/i2c_11xx.c **** 	i2c.mXfer = NULL;
 373:../../lpc_chip_11cxx_lib/src/i2c_11xx.c **** 	i2c.sXfer = NULL;
ARM GAS  /tmp/ccj3wEk9.s 			page 26


 374:../../lpc_chip_11cxx_lib/src/i2c_11xx.c **** 	i2c.flags = 0;
 931              		.loc 1 374 0
 932 0012 9A61     		str	r2, [r3, #24]	@ tmp121, i2c.flags
 933              	.LVL63:
 371:../../lpc_chip_11cxx_lib/src/i2c_11xx.c **** 	i2c.mXfer = NULL;
 934              		.loc 1 371 0
 935 0014 DA60     		str	r2, [r3, #12]	@ tmp121, i2c.sEvent
 372:../../lpc_chip_11cxx_lib/src/i2c_11xx.c **** 	i2c.mXfer = NULL;
 936              		.loc 1 372 0
 937 0016 1A61     		str	r2, [r3, #16]	@ tmp121, i2c.mXfer
 373:../../lpc_chip_11cxx_lib/src/i2c_11xx.c **** 	i2c.flags = 0;
 938              		.loc 1 373 0
 939 0018 5A61     		str	r2, [r3, #20]	@ tmp121, i2c.sXfer
 368:../../lpc_chip_11cxx_lib/src/i2c_11xx.c **** 	i2c.clk = SYSCTL_CLOCK_I2C;
 940              		.loc 1 368 0
 941 001a 1960     		str	r1, [r3]	@ tmp114, i2c.ip
 942              	.LBB103:
 943              	.LBB104:
 944              	.LBB105:
 945              		.file 2 "../../lpc_chip_11cxx_lib/inc/clock_11xx.h"
   1:../../lpc_chip_11cxx_lib/inc/clock_11xx.h **** /*
   2:../../lpc_chip_11cxx_lib/inc/clock_11xx.h ****  * @brief LPC11XX Clock control functions
   3:../../lpc_chip_11cxx_lib/inc/clock_11xx.h ****  *
   4:../../lpc_chip_11cxx_lib/inc/clock_11xx.h ****  * @note
   5:../../lpc_chip_11cxx_lib/inc/clock_11xx.h ****  * Copyright(C) NXP Semiconductors, 2012
   6:../../lpc_chip_11cxx_lib/inc/clock_11xx.h ****  * All rights reserved.
   7:../../lpc_chip_11cxx_lib/inc/clock_11xx.h ****  *
   8:../../lpc_chip_11cxx_lib/inc/clock_11xx.h ****  * @par
   9:../../lpc_chip_11cxx_lib/inc/clock_11xx.h ****  * Software that is described herein is for illustrative purposes only
  10:../../lpc_chip_11cxx_lib/inc/clock_11xx.h ****  * which provides customers with programming information regarding the
  11:../../lpc_chip_11cxx_lib/inc/clock_11xx.h ****  * LPC products.  This software is supplied "AS IS" without any warranties of
  12:../../lpc_chip_11cxx_lib/inc/clock_11xx.h ****  * any kind, and NXP Semiconductors and its licensor disclaim any and
  13:../../lpc_chip_11cxx_lib/inc/clock_11xx.h ****  * all warranties, express or implied, including all implied warranties of
  14:../../lpc_chip_11cxx_lib/inc/clock_11xx.h ****  * merchantability, fitness for a particular purpose and non-infringement of
  15:../../lpc_chip_11cxx_lib/inc/clock_11xx.h ****  * intellectual property rights.  NXP Semiconductors assumes no responsibility
  16:../../lpc_chip_11cxx_lib/inc/clock_11xx.h ****  * or liability for the use of the software, conveys no license or rights under any
  17:../../lpc_chip_11cxx_lib/inc/clock_11xx.h ****  * patent, copyright, mask work right, or any other intellectual property rights in
  18:../../lpc_chip_11cxx_lib/inc/clock_11xx.h ****  * or to any products. NXP Semiconductors reserves the right to make changes
  19:../../lpc_chip_11cxx_lib/inc/clock_11xx.h ****  * in the software without notification. NXP Semiconductors also makes no
  20:../../lpc_chip_11cxx_lib/inc/clock_11xx.h ****  * representation or warranty that such application will be suitable for the
  21:../../lpc_chip_11cxx_lib/inc/clock_11xx.h ****  * specified use without further testing or modification.
  22:../../lpc_chip_11cxx_lib/inc/clock_11xx.h ****  *
  23:../../lpc_chip_11cxx_lib/inc/clock_11xx.h ****  * @par
  24:../../lpc_chip_11cxx_lib/inc/clock_11xx.h ****  * Permission to use, copy, modify, and distribute this software and its
  25:../../lpc_chip_11cxx_lib/inc/clock_11xx.h ****  * documentation is hereby granted, under NXP Semiconductors' and its
  26:../../lpc_chip_11cxx_lib/inc/clock_11xx.h ****  * licensor's relevant copyrights in the software, without fee, provided that it
  27:../../lpc_chip_11cxx_lib/inc/clock_11xx.h ****  * is used in conjunction with NXP Semiconductors microcontrollers.  This
  28:../../lpc_chip_11cxx_lib/inc/clock_11xx.h ****  * copyright, permission, and disclaimer notice must appear in all copies of
  29:../../lpc_chip_11cxx_lib/inc/clock_11xx.h ****  * this code.
  30:../../lpc_chip_11cxx_lib/inc/clock_11xx.h ****  */
  31:../../lpc_chip_11cxx_lib/inc/clock_11xx.h **** 
  32:../../lpc_chip_11cxx_lib/inc/clock_11xx.h **** #ifndef __CLOCK_11XX_H_
  33:../../lpc_chip_11cxx_lib/inc/clock_11xx.h **** #define __CLOCK_11XX_H_
  34:../../lpc_chip_11cxx_lib/inc/clock_11xx.h **** 
  35:../../lpc_chip_11cxx_lib/inc/clock_11xx.h **** #ifdef __cplusplus
  36:../../lpc_chip_11cxx_lib/inc/clock_11xx.h **** extern "C" {
  37:../../lpc_chip_11cxx_lib/inc/clock_11xx.h **** #endif
ARM GAS  /tmp/ccj3wEk9.s 			page 27


  38:../../lpc_chip_11cxx_lib/inc/clock_11xx.h **** 
  39:../../lpc_chip_11cxx_lib/inc/clock_11xx.h **** /** @defgroup CLOCK_11XX CHIP: LPC11xx Clock Control block driver
  40:../../lpc_chip_11cxx_lib/inc/clock_11xx.h ****  * @ingroup CHIP_11XX_Drivers
  41:../../lpc_chip_11cxx_lib/inc/clock_11xx.h ****  * @{
  42:../../lpc_chip_11cxx_lib/inc/clock_11xx.h ****  */
  43:../../lpc_chip_11cxx_lib/inc/clock_11xx.h **** 
  44:../../lpc_chip_11cxx_lib/inc/clock_11xx.h **** /** Internal oscillator frequency */
  45:../../lpc_chip_11cxx_lib/inc/clock_11xx.h **** #define SYSCTL_IRC_FREQ (12000000)
  46:../../lpc_chip_11cxx_lib/inc/clock_11xx.h **** 
  47:../../lpc_chip_11cxx_lib/inc/clock_11xx.h **** /**
  48:../../lpc_chip_11cxx_lib/inc/clock_11xx.h ****  * @brief	Set System PLL divider values
  49:../../lpc_chip_11cxx_lib/inc/clock_11xx.h ****  * @param	msel    : PLL feedback divider value. M = msel + 1.
  50:../../lpc_chip_11cxx_lib/inc/clock_11xx.h ****  * @param	psel    : PLL post divider value. P =  (1<<psel).
  51:../../lpc_chip_11cxx_lib/inc/clock_11xx.h ****  * @return	Nothing
  52:../../lpc_chip_11cxx_lib/inc/clock_11xx.h ****  * @note	See the user manual for how to setup the PLL.
  53:../../lpc_chip_11cxx_lib/inc/clock_11xx.h ****  */
  54:../../lpc_chip_11cxx_lib/inc/clock_11xx.h **** STATIC INLINE void Chip_Clock_SetupSystemPLL(uint8_t msel, uint8_t psel)
  55:../../lpc_chip_11cxx_lib/inc/clock_11xx.h **** {
  56:../../lpc_chip_11cxx_lib/inc/clock_11xx.h **** 	LPC_SYSCTL->SYSPLLCTRL = (msel & 0x1F) | ((psel & 0x3) << 5);
  57:../../lpc_chip_11cxx_lib/inc/clock_11xx.h **** }
  58:../../lpc_chip_11cxx_lib/inc/clock_11xx.h **** 
  59:../../lpc_chip_11cxx_lib/inc/clock_11xx.h **** /**
  60:../../lpc_chip_11cxx_lib/inc/clock_11xx.h ****  * @brief	Read System PLL lock status
  61:../../lpc_chip_11cxx_lib/inc/clock_11xx.h ****  * @return	true of the PLL is locked. false if not locked
  62:../../lpc_chip_11cxx_lib/inc/clock_11xx.h ****  */
  63:../../lpc_chip_11cxx_lib/inc/clock_11xx.h **** STATIC INLINE bool Chip_Clock_IsSystemPLLLocked(void)
  64:../../lpc_chip_11cxx_lib/inc/clock_11xx.h **** {
  65:../../lpc_chip_11cxx_lib/inc/clock_11xx.h **** 	return (bool) ((LPC_SYSCTL->SYSPLLSTAT & 1) != 0);
  66:../../lpc_chip_11cxx_lib/inc/clock_11xx.h **** }
  67:../../lpc_chip_11cxx_lib/inc/clock_11xx.h **** 
  68:../../lpc_chip_11cxx_lib/inc/clock_11xx.h **** /**
  69:../../lpc_chip_11cxx_lib/inc/clock_11xx.h ****  * Clock sources for system and USB PLLs
  70:../../lpc_chip_11cxx_lib/inc/clock_11xx.h ****  */
  71:../../lpc_chip_11cxx_lib/inc/clock_11xx.h **** typedef enum CHIP_SYSCTL_PLLCLKSRC {
  72:../../lpc_chip_11cxx_lib/inc/clock_11xx.h **** 	SYSCTL_PLLCLKSRC_IRC = 0,		/*!< Internal oscillator in */
  73:../../lpc_chip_11cxx_lib/inc/clock_11xx.h **** 	SYSCTL_PLLCLKSRC_MAINOSC,		/*!< Crystal (main) oscillator in */
  74:../../lpc_chip_11cxx_lib/inc/clock_11xx.h **** #if defined(CHIP_LPC11AXX)
  75:../../lpc_chip_11cxx_lib/inc/clock_11xx.h **** 	SYSCTL_PLLCLKSRC_EXT_CLKIN,	/*!< External clock in (11Axx only) */
  76:../../lpc_chip_11cxx_lib/inc/clock_11xx.h **** #else
  77:../../lpc_chip_11cxx_lib/inc/clock_11xx.h **** 	SYSCTL_PLLCLKSRC_RESERVED1,	/*!< Reserved */
  78:../../lpc_chip_11cxx_lib/inc/clock_11xx.h **** #endif
  79:../../lpc_chip_11cxx_lib/inc/clock_11xx.h **** 	SYSCTL_PLLCLKSRC_RESERVED2,	/*!< Reserved */
  80:../../lpc_chip_11cxx_lib/inc/clock_11xx.h **** } CHIP_SYSCTL_PLLCLKSRC_T;
  81:../../lpc_chip_11cxx_lib/inc/clock_11xx.h **** 
  82:../../lpc_chip_11cxx_lib/inc/clock_11xx.h **** /**
  83:../../lpc_chip_11cxx_lib/inc/clock_11xx.h ****  * @brief	Set System PLL clock source
  84:../../lpc_chip_11cxx_lib/inc/clock_11xx.h ****  * @param	src	: Clock source for system PLL
  85:../../lpc_chip_11cxx_lib/inc/clock_11xx.h ****  * @return	Nothing
  86:../../lpc_chip_11cxx_lib/inc/clock_11xx.h ****  * @note	This function will also toggle the clock source update register
  87:../../lpc_chip_11cxx_lib/inc/clock_11xx.h ****  * to update the clock source.
  88:../../lpc_chip_11cxx_lib/inc/clock_11xx.h ****  */
  89:../../lpc_chip_11cxx_lib/inc/clock_11xx.h **** void Chip_Clock_SetSystemPLLSource(CHIP_SYSCTL_PLLCLKSRC_T src);
  90:../../lpc_chip_11cxx_lib/inc/clock_11xx.h **** 
  91:../../lpc_chip_11cxx_lib/inc/clock_11xx.h **** #if defined(CHIP_LPC11UXX)
  92:../../lpc_chip_11cxx_lib/inc/clock_11xx.h **** /**
  93:../../lpc_chip_11cxx_lib/inc/clock_11xx.h ****  * @brief	Set USB PLL divider values
  94:../../lpc_chip_11cxx_lib/inc/clock_11xx.h ****  * @param	msel    : PLL feedback divider value. M = msel + 1.
ARM GAS  /tmp/ccj3wEk9.s 			page 28


  95:../../lpc_chip_11cxx_lib/inc/clock_11xx.h ****  * @param	psel    : PLL post divider value. P = (1<<psel).
  96:../../lpc_chip_11cxx_lib/inc/clock_11xx.h ****  * @return	Nothing
  97:../../lpc_chip_11cxx_lib/inc/clock_11xx.h ****  * @note	See the user manual for how to setup the PLL.
  98:../../lpc_chip_11cxx_lib/inc/clock_11xx.h ****  */
  99:../../lpc_chip_11cxx_lib/inc/clock_11xx.h **** STATIC INLINE void Chip_Clock_SetupUSBPLL(uint8_t msel, uint8_t psel)
 100:../../lpc_chip_11cxx_lib/inc/clock_11xx.h **** {
 101:../../lpc_chip_11cxx_lib/inc/clock_11xx.h **** 	LPC_SYSCTL->USBPLLCTRL = (msel & 0x1F) | ((psel & 0x3) << 5);
 102:../../lpc_chip_11cxx_lib/inc/clock_11xx.h **** }
 103:../../lpc_chip_11cxx_lib/inc/clock_11xx.h **** 
 104:../../lpc_chip_11cxx_lib/inc/clock_11xx.h **** /**
 105:../../lpc_chip_11cxx_lib/inc/clock_11xx.h ****  * @brief	Read USB PLL lock status
 106:../../lpc_chip_11cxx_lib/inc/clock_11xx.h ****  * @return	true of the PLL is locked. false if not locked
 107:../../lpc_chip_11cxx_lib/inc/clock_11xx.h ****  */
 108:../../lpc_chip_11cxx_lib/inc/clock_11xx.h **** STATIC INLINE bool Chip_Clock_IsUSBPLLLocked(void)
 109:../../lpc_chip_11cxx_lib/inc/clock_11xx.h **** {
 110:../../lpc_chip_11cxx_lib/inc/clock_11xx.h **** 	return (bool) ((LPC_SYSCTL->USBPLLSTAT & 1) != 0);
 111:../../lpc_chip_11cxx_lib/inc/clock_11xx.h **** }
 112:../../lpc_chip_11cxx_lib/inc/clock_11xx.h **** 
 113:../../lpc_chip_11cxx_lib/inc/clock_11xx.h **** /**
 114:../../lpc_chip_11cxx_lib/inc/clock_11xx.h ****  * @brief	Set USB PLL clock source
 115:../../lpc_chip_11cxx_lib/inc/clock_11xx.h ****  * @param	src	: Clock source for USB PLL
 116:../../lpc_chip_11cxx_lib/inc/clock_11xx.h ****  * @return	Nothing
 117:../../lpc_chip_11cxx_lib/inc/clock_11xx.h ****  * @note	This function will also toggle the clock source update register
 118:../../lpc_chip_11cxx_lib/inc/clock_11xx.h ****  * to update the clock source.
 119:../../lpc_chip_11cxx_lib/inc/clock_11xx.h ****  */
 120:../../lpc_chip_11cxx_lib/inc/clock_11xx.h **** void Chip_Clock_SetUSBPLLSource(CHIP_SYSCTL_PLLCLKSRC_T src);
 121:../../lpc_chip_11cxx_lib/inc/clock_11xx.h **** 
 122:../../lpc_chip_11cxx_lib/inc/clock_11xx.h **** #endif /*defined(CHIP_LPC11UXX)*/
 123:../../lpc_chip_11cxx_lib/inc/clock_11xx.h **** 
 124:../../lpc_chip_11cxx_lib/inc/clock_11xx.h **** /**
 125:../../lpc_chip_11cxx_lib/inc/clock_11xx.h ****  * @brief	Bypass System Oscillator and set oscillator frequency range
 126:../../lpc_chip_11cxx_lib/inc/clock_11xx.h ****  * @param	bypass	: Flag to bypass oscillator
 127:../../lpc_chip_11cxx_lib/inc/clock_11xx.h ****  * @param	highfr	: Flag to set oscillator range from 15-25 MHz
 128:../../lpc_chip_11cxx_lib/inc/clock_11xx.h ****  * @return	Nothing
 129:../../lpc_chip_11cxx_lib/inc/clock_11xx.h ****  * @note	Sets the PLL input to bypass the oscillator. This would be
 130:../../lpc_chip_11cxx_lib/inc/clock_11xx.h ****  * used if an external clock that is not an oscillator is attached
 131:../../lpc_chip_11cxx_lib/inc/clock_11xx.h ****  * to the XTALIN pin.
 132:../../lpc_chip_11cxx_lib/inc/clock_11xx.h ****  */
 133:../../lpc_chip_11cxx_lib/inc/clock_11xx.h **** void Chip_Clock_SetPLLBypass(bool bypass, bool highfr);
 134:../../lpc_chip_11cxx_lib/inc/clock_11xx.h **** 
 135:../../lpc_chip_11cxx_lib/inc/clock_11xx.h **** /**
 136:../../lpc_chip_11cxx_lib/inc/clock_11xx.h ****  * Watchdog and low frequency oscillator frequencies plus or minus 40%
 137:../../lpc_chip_11cxx_lib/inc/clock_11xx.h ****  */
 138:../../lpc_chip_11cxx_lib/inc/clock_11xx.h **** typedef enum CHIP_WDTLFO_OSC {
 139:../../lpc_chip_11cxx_lib/inc/clock_11xx.h **** 	WDTLFO_OSC_ILLEGAL,
 140:../../lpc_chip_11cxx_lib/inc/clock_11xx.h **** 	WDTLFO_OSC_0_60,	/*!< 0.6 MHz watchdog/LFO rate */
 141:../../lpc_chip_11cxx_lib/inc/clock_11xx.h **** 	WDTLFO_OSC_1_05,	/*!< 1.05 MHz watchdog/LFO rate */
 142:../../lpc_chip_11cxx_lib/inc/clock_11xx.h **** 	WDTLFO_OSC_1_40,	/*!< 1.4 MHz watchdog/LFO rate */
 143:../../lpc_chip_11cxx_lib/inc/clock_11xx.h **** 	WDTLFO_OSC_1_75,	/*!< 1.75 MHz watchdog/LFO rate */
 144:../../lpc_chip_11cxx_lib/inc/clock_11xx.h **** 	WDTLFO_OSC_2_10,	/*!< 2.1 MHz watchdog/LFO rate */
 145:../../lpc_chip_11cxx_lib/inc/clock_11xx.h **** 	WDTLFO_OSC_2_40,	/*!< 2.4 MHz watchdog/LFO rate */
 146:../../lpc_chip_11cxx_lib/inc/clock_11xx.h **** 	WDTLFO_OSC_2_70,	/*!< 2.7 MHz watchdog/LFO rate */
 147:../../lpc_chip_11cxx_lib/inc/clock_11xx.h **** 	WDTLFO_OSC_3_00,	/*!< 3.0 MHz watchdog/LFO rate */
 148:../../lpc_chip_11cxx_lib/inc/clock_11xx.h **** 	WDTLFO_OSC_3_25,	/*!< 3.25 MHz watchdog/LFO rate */
 149:../../lpc_chip_11cxx_lib/inc/clock_11xx.h **** 	WDTLFO_OSC_3_50,	/*!< 3.5 MHz watchdog/LFO rate */
 150:../../lpc_chip_11cxx_lib/inc/clock_11xx.h **** 	WDTLFO_OSC_3_75,	/*!< 3.75 MHz watchdog/LFO rate */
 151:../../lpc_chip_11cxx_lib/inc/clock_11xx.h **** 	WDTLFO_OSC_4_00,	/*!< 4.0 MHz watchdog/LFO rate */
ARM GAS  /tmp/ccj3wEk9.s 			page 29


 152:../../lpc_chip_11cxx_lib/inc/clock_11xx.h **** 	WDTLFO_OSC_4_20,	/*!< 4.2 MHz watchdog/LFO rate */
 153:../../lpc_chip_11cxx_lib/inc/clock_11xx.h **** 	WDTLFO_OSC_4_40,	/*!< 4.4 MHz watchdog/LFO rate */
 154:../../lpc_chip_11cxx_lib/inc/clock_11xx.h **** 	WDTLFO_OSC_4_60		/*!< 4.6 MHz watchdog/LFO rate */
 155:../../lpc_chip_11cxx_lib/inc/clock_11xx.h **** } CHIP_WDTLFO_OSC_T;
 156:../../lpc_chip_11cxx_lib/inc/clock_11xx.h **** 
 157:../../lpc_chip_11cxx_lib/inc/clock_11xx.h **** /**
 158:../../lpc_chip_11cxx_lib/inc/clock_11xx.h ****  * @brief	Setup Watchdog oscillator rate and divider
 159:../../lpc_chip_11cxx_lib/inc/clock_11xx.h ****  * @param	wdtclk	: Selected watchdog clock rate
 160:../../lpc_chip_11cxx_lib/inc/clock_11xx.h ****  * @param	div		: Watchdog divider value, even value between 2 and 64
 161:../../lpc_chip_11cxx_lib/inc/clock_11xx.h ****  * @return	Nothing
 162:../../lpc_chip_11cxx_lib/inc/clock_11xx.h ****  * @note	Watchdog rate = selected rate divided by divider rate
 163:../../lpc_chip_11cxx_lib/inc/clock_11xx.h ****  */
 164:../../lpc_chip_11cxx_lib/inc/clock_11xx.h **** STATIC INLINE void Chip_Clock_SetWDTOSC(CHIP_WDTLFO_OSC_T wdtclk, uint8_t div)
 165:../../lpc_chip_11cxx_lib/inc/clock_11xx.h **** {
 166:../../lpc_chip_11cxx_lib/inc/clock_11xx.h **** 	LPC_SYSCTL->WDTOSCCTRL  = (((uint32_t) wdtclk) << 5) | ((div >> 1) - 1);
 167:../../lpc_chip_11cxx_lib/inc/clock_11xx.h **** }
 168:../../lpc_chip_11cxx_lib/inc/clock_11xx.h **** 
 169:../../lpc_chip_11cxx_lib/inc/clock_11xx.h **** #if defined(CHIP_LPC11AXX)
 170:../../lpc_chip_11cxx_lib/inc/clock_11xx.h **** /**
 171:../../lpc_chip_11cxx_lib/inc/clock_11xx.h ****  * @brief	Setup low frequency oscillator rate and divider
 172:../../lpc_chip_11cxx_lib/inc/clock_11xx.h ****  * @param	lfoclk	: Selected low frequency clock rate
 173:../../lpc_chip_11cxx_lib/inc/clock_11xx.h ****  * @param	div		: Low frequency divider value, even value between 2 and 64
 174:../../lpc_chip_11cxx_lib/inc/clock_11xx.h ****  * @return	Nothing
 175:../../lpc_chip_11cxx_lib/inc/clock_11xx.h ****  * @note	Low frequency oscillator rate = selected rate divided by divider rate
 176:../../lpc_chip_11cxx_lib/inc/clock_11xx.h ****  */
 177:../../lpc_chip_11cxx_lib/inc/clock_11xx.h **** STATIC INLINE void Chip_Clock_SetLFOSC(CHIP_WDTLFO_OSC_T lfoclk, uint8_t div)
 178:../../lpc_chip_11cxx_lib/inc/clock_11xx.h **** {
 179:../../lpc_chip_11cxx_lib/inc/clock_11xx.h **** 	LPC_SYSCTL->LFOSCCTRL  = (((uint32_t) lfoclk) << 5) | ((div >> 1) - 1);
 180:../../lpc_chip_11cxx_lib/inc/clock_11xx.h **** }
 181:../../lpc_chip_11cxx_lib/inc/clock_11xx.h **** 
 182:../../lpc_chip_11cxx_lib/inc/clock_11xx.h **** #endif /*CHIP_LPC11AXX*/
 183:../../lpc_chip_11cxx_lib/inc/clock_11xx.h **** 
 184:../../lpc_chip_11cxx_lib/inc/clock_11xx.h **** /**
 185:../../lpc_chip_11cxx_lib/inc/clock_11xx.h ****  * Clock sources for main system clock
 186:../../lpc_chip_11cxx_lib/inc/clock_11xx.h ****  */
 187:../../lpc_chip_11cxx_lib/inc/clock_11xx.h **** typedef enum CHIP_SYSCTL_MAINCLKSRC {
 188:../../lpc_chip_11cxx_lib/inc/clock_11xx.h **** 	SYSCTL_MAINCLKSRC_IRC = 0,		/*!< Internal oscillator */
 189:../../lpc_chip_11cxx_lib/inc/clock_11xx.h **** 	SYSCTL_MAINCLKSRC_PLLIN,		/*!< System PLL input */
 190:../../lpc_chip_11cxx_lib/inc/clock_11xx.h **** 	SYSCTL_MAINCLKSRC_LFOSC,		/*!< LF oscillator rate (11Axx only) */
 191:../../lpc_chip_11cxx_lib/inc/clock_11xx.h **** 	SYSCTL_MAINCLKSRC_WDTOSC = SYSCTL_MAINCLKSRC_LFOSC,	/*!< Watchdog oscillator rate */
 192:../../lpc_chip_11cxx_lib/inc/clock_11xx.h **** 	SYSCTL_MAINCLKSRC_PLLOUT,		/*!< System PLL output */
 193:../../lpc_chip_11cxx_lib/inc/clock_11xx.h **** } CHIP_SYSCTL_MAINCLKSRC_T;
 194:../../lpc_chip_11cxx_lib/inc/clock_11xx.h **** 
 195:../../lpc_chip_11cxx_lib/inc/clock_11xx.h **** /**
 196:../../lpc_chip_11cxx_lib/inc/clock_11xx.h ****  * @brief	Set main system clock source
 197:../../lpc_chip_11cxx_lib/inc/clock_11xx.h ****  * @param	src	: Clock source for main system
 198:../../lpc_chip_11cxx_lib/inc/clock_11xx.h ****  * @return	Nothing
 199:../../lpc_chip_11cxx_lib/inc/clock_11xx.h ****  * @note	This function will also toggle the clock source update register
 200:../../lpc_chip_11cxx_lib/inc/clock_11xx.h ****  * to update the clock source.
 201:../../lpc_chip_11cxx_lib/inc/clock_11xx.h ****  */
 202:../../lpc_chip_11cxx_lib/inc/clock_11xx.h **** void Chip_Clock_SetMainClockSource(CHIP_SYSCTL_MAINCLKSRC_T src);
 203:../../lpc_chip_11cxx_lib/inc/clock_11xx.h **** 
 204:../../lpc_chip_11cxx_lib/inc/clock_11xx.h **** /**
 205:../../lpc_chip_11cxx_lib/inc/clock_11xx.h ****  * @brief   Returns the main clock source
 206:../../lpc_chip_11cxx_lib/inc/clock_11xx.h ****  * @return	Which clock is used for the core clock source?
 207:../../lpc_chip_11cxx_lib/inc/clock_11xx.h ****  */
 208:../../lpc_chip_11cxx_lib/inc/clock_11xx.h **** STATIC INLINE CHIP_SYSCTL_MAINCLKSRC_T Chip_Clock_GetMainClockSource(void)
ARM GAS  /tmp/ccj3wEk9.s 			page 30


 209:../../lpc_chip_11cxx_lib/inc/clock_11xx.h **** {
 210:../../lpc_chip_11cxx_lib/inc/clock_11xx.h **** 	return (CHIP_SYSCTL_MAINCLKSRC_T) (LPC_SYSCTL->MAINCLKSEL);
 211:../../lpc_chip_11cxx_lib/inc/clock_11xx.h **** }
 212:../../lpc_chip_11cxx_lib/inc/clock_11xx.h **** 
 213:../../lpc_chip_11cxx_lib/inc/clock_11xx.h **** /**
 214:../../lpc_chip_11cxx_lib/inc/clock_11xx.h ****  * @brief	Set system clock divider
 215:../../lpc_chip_11cxx_lib/inc/clock_11xx.h ****  * @param	div	: divider for system clock
 216:../../lpc_chip_11cxx_lib/inc/clock_11xx.h ****  * @return	Nothing
 217:../../lpc_chip_11cxx_lib/inc/clock_11xx.h ****  * @note	Use 0 to disable, or a divider value of 1 to 255. The system clock
 218:../../lpc_chip_11cxx_lib/inc/clock_11xx.h ****  * rate is the main system clock divided by this value.
 219:../../lpc_chip_11cxx_lib/inc/clock_11xx.h ****  */
 220:../../lpc_chip_11cxx_lib/inc/clock_11xx.h **** STATIC INLINE void Chip_Clock_SetSysClockDiv(uint32_t div)
 221:../../lpc_chip_11cxx_lib/inc/clock_11xx.h **** {
 222:../../lpc_chip_11cxx_lib/inc/clock_11xx.h **** 	LPC_SYSCTL->SYSAHBCLKDIV  = div;
 223:../../lpc_chip_11cxx_lib/inc/clock_11xx.h **** }
 224:../../lpc_chip_11cxx_lib/inc/clock_11xx.h **** 
 225:../../lpc_chip_11cxx_lib/inc/clock_11xx.h **** /**
 226:../../lpc_chip_11cxx_lib/inc/clock_11xx.h ****  * System and peripheral clocks
 227:../../lpc_chip_11cxx_lib/inc/clock_11xx.h ****  */
 228:../../lpc_chip_11cxx_lib/inc/clock_11xx.h **** typedef enum CHIP_SYSCTL_CLOCK {
 229:../../lpc_chip_11cxx_lib/inc/clock_11xx.h **** 	SYSCTL_CLOCK_SYS = 0,				/*!< 0: System clock */
 230:../../lpc_chip_11cxx_lib/inc/clock_11xx.h **** 	SYSCTL_CLOCK_ROM,					/*!<1:  ROM clock */
 231:../../lpc_chip_11cxx_lib/inc/clock_11xx.h **** 	SYSCTL_CLOCK_RAM,					/*!< 2: RAM clock */
 232:../../lpc_chip_11cxx_lib/inc/clock_11xx.h **** 	SYSCTL_CLOCK_FLASHREG,				/*!< 3: FLASH register interface clock */
 233:../../lpc_chip_11cxx_lib/inc/clock_11xx.h **** 	SYSCTL_CLOCK_FLASHARRAY,			/*!< 4: FLASH array access clock */
 234:../../lpc_chip_11cxx_lib/inc/clock_11xx.h **** #if defined(CHIP_LPC110X)
 235:../../lpc_chip_11cxx_lib/inc/clock_11xx.h **** 	SYSCTL_CLOCK_RESERVED5,				/*!< 5: Reserved */
 236:../../lpc_chip_11cxx_lib/inc/clock_11xx.h **** #else
 237:../../lpc_chip_11cxx_lib/inc/clock_11xx.h **** 	SYSCTL_CLOCK_I2C,					/*!< 5: I2C clock, not on LPC110x */
 238:../../lpc_chip_11cxx_lib/inc/clock_11xx.h **** #endif
 239:../../lpc_chip_11cxx_lib/inc/clock_11xx.h **** 	SYSCTL_CLOCK_GPIO,					/*!< 6: GPIO clock */
 240:../../lpc_chip_11cxx_lib/inc/clock_11xx.h **** 	SYSCTL_CLOCK_CT16B0,				/*!< 7: 16-bit Counter/timer 0 clock */
 241:../../lpc_chip_11cxx_lib/inc/clock_11xx.h **** 	SYSCTL_CLOCK_CT16B1,				/*!< 8: 16-bit Counter/timer 1 clock */
 242:../../lpc_chip_11cxx_lib/inc/clock_11xx.h **** 	SYSCTL_CLOCK_CT32B0,				/*!< 9: 32-bit Counter/timer 0 clock */
 243:../../lpc_chip_11cxx_lib/inc/clock_11xx.h **** 	SYSCTL_CLOCK_CT32B1,				/*!< 10: 32-bit Counter/timer 1 clock */
 244:../../lpc_chip_11cxx_lib/inc/clock_11xx.h **** 	SYSCTL_CLOCK_SSP0,					/*!< 11: SSP0 clock */
 245:../../lpc_chip_11cxx_lib/inc/clock_11xx.h **** 	SYSCTL_CLOCK_UART0,					/*!< 12: UART0 clock */
 246:../../lpc_chip_11cxx_lib/inc/clock_11xx.h **** 	SYSCTL_CLOCK_ADC,					/*!< 13: ADC clock */
 247:../../lpc_chip_11cxx_lib/inc/clock_11xx.h **** #if defined(CHIP_LPC11UXX)
 248:../../lpc_chip_11cxx_lib/inc/clock_11xx.h **** 	SYSCTL_CLOCK_USB,					/*!< 14: USB clock, LPC11Uxx only */
 249:../../lpc_chip_11cxx_lib/inc/clock_11xx.h **** #else
 250:../../lpc_chip_11cxx_lib/inc/clock_11xx.h **** 	SYSCTL_CLOCK_RESERVED14,			/*!< 14: Reserved */
 251:../../lpc_chip_11cxx_lib/inc/clock_11xx.h **** #endif
 252:../../lpc_chip_11cxx_lib/inc/clock_11xx.h **** 	SYSCTL_CLOCK_WDT,					/*!< 15: Watchdog timer clock */
 253:../../lpc_chip_11cxx_lib/inc/clock_11xx.h **** 	SYSCTL_CLOCK_IOCON,					/*!< 16: IOCON block clock */
 254:../../lpc_chip_11cxx_lib/inc/clock_11xx.h **** #if defined(CHIP_LPC11CXX)
 255:../../lpc_chip_11cxx_lib/inc/clock_11xx.h **** 	SYSCTL_CLOCK_CAN,					/*!< 17: CAN clock, LPC11Cxx only */
 256:../../lpc_chip_11cxx_lib/inc/clock_11xx.h **** #else
 257:../../lpc_chip_11cxx_lib/inc/clock_11xx.h **** 	SYSCTL_CLOCK_RESERVED17,			/*!< 17: Reserved */
 258:../../lpc_chip_11cxx_lib/inc/clock_11xx.h **** #endif
 259:../../lpc_chip_11cxx_lib/inc/clock_11xx.h **** #if !(defined(CHIP_LPC110X) || defined(CHIP_LPC11XXLV))  
 260:../../lpc_chip_11cxx_lib/inc/clock_11xx.h **** 	SYSCTL_CLOCK_SSP1,					/*!< 18: SSP1 clock, LPC11A/C/E/Uxx//1125 only */
 261:../../lpc_chip_11cxx_lib/inc/clock_11xx.h **** #if !defined(CHIP_LPC11CXX)
 262:../../lpc_chip_11cxx_lib/inc/clock_11xx.h **** 	SYSCTL_CLOCK_PINT,					/*!< 19: GPIO Pin int register interface clock, LPC11A/E/Uxx only */
 263:../../lpc_chip_11cxx_lib/inc/clock_11xx.h **** #if defined(CHIP_LPC11AXX)
 264:../../lpc_chip_11cxx_lib/inc/clock_11xx.h **** 	SYSCTL_CLOCK_ACOMP,					/*!< 20: Analog comparator clock, LPC11Axx only */
 265:../../lpc_chip_11cxx_lib/inc/clock_11xx.h **** 	SYSCTL_CLOCK_DAC,					/*!< 21: DAC clock, LPC11Axx only */
ARM GAS  /tmp/ccj3wEk9.s 			page 31


 266:../../lpc_chip_11cxx_lib/inc/clock_11xx.h **** #else
 267:../../lpc_chip_11cxx_lib/inc/clock_11xx.h **** 	SYSCTL_CLOCK_RESERVED20,			/*!< 20: Reserved */
 268:../../lpc_chip_11cxx_lib/inc/clock_11xx.h **** 	SYSCTL_CLOCK_RESERVED21,			/*!< 21: Reserved */
 269:../../lpc_chip_11cxx_lib/inc/clock_11xx.h **** #endif
 270:../../lpc_chip_11cxx_lib/inc/clock_11xx.h **** 	SYSCTL_CLOCK_RESERVED22,			/*!< 22: Reserved */
 271:../../lpc_chip_11cxx_lib/inc/clock_11xx.h **** 	SYSCTL_CLOCK_P0INT,					/*!< 23: GPIO GROUP1 interrupt register clock, LPC11Axx only */
 272:../../lpc_chip_11cxx_lib/inc/clock_11xx.h **** 	SYSCTL_CLOCK_GROUP0INT = SYSCTL_CLOCK_P0INT,/*!< 23: GPIO GROUP0 interrupt register interface cloc
 273:../../lpc_chip_11cxx_lib/inc/clock_11xx.h **** 	SYSCTL_CLOCK_P1INT,					/*!< 24: GPIO GROUP1 interrupt register clock, LPC11Axx only */
 274:../../lpc_chip_11cxx_lib/inc/clock_11xx.h **** 	SYSCTL_CLOCK_GROUP1INT = SYSCTL_CLOCK_P1INT,/*!< 24: GPIO GROUP1 interrupt register interface cloc
 275:../../lpc_chip_11cxx_lib/inc/clock_11xx.h **** 	SYSCTL_CLOCK_RESERVED25,			/*!< 25: Reserved */
 276:../../lpc_chip_11cxx_lib/inc/clock_11xx.h **** #if defined(CHIP_LPC11EXX)  || defined(CHIP_LPC11UXX)
 277:../../lpc_chip_11cxx_lib/inc/clock_11xx.h **** 	SYSCTL_CLOCK_RAM1,					/*!< 26: SRAM block (0x20000000) clock, LPC11E/Uxx only */
 278:../../lpc_chip_11cxx_lib/inc/clock_11xx.h **** #else
 279:../../lpc_chip_11cxx_lib/inc/clock_11xx.h **** 	SYSCTL_CLOCK_RESERVED26,			/*!< 26: Reserved */
 280:../../lpc_chip_11cxx_lib/inc/clock_11xx.h **** #endif
 281:../../lpc_chip_11cxx_lib/inc/clock_11xx.h **** #if defined(CHIP_LPC11UXX)
 282:../../lpc_chip_11cxx_lib/inc/clock_11xx.h **** 	SYSCTL_CLOCK_USBRAM,				/*!< 27: USB SRAM block clock, LPC11Uxx only */
 283:../../lpc_chip_11cxx_lib/inc/clock_11xx.h **** #else
 284:../../lpc_chip_11cxx_lib/inc/clock_11xx.h **** 	SYSCTL_CLOCK_RESERVED27,			/*!< 27: Reserved */
 285:../../lpc_chip_11cxx_lib/inc/clock_11xx.h **** #endif
 286:../../lpc_chip_11cxx_lib/inc/clock_11xx.h **** #endif /* !defined(CHIP_LPC11CXX) */
 287:../../lpc_chip_11cxx_lib/inc/clock_11xx.h **** #endif /* !(defined(CHIP_LPC110X) || defined(CHIP_LPC11XXLV)) */
 288:../../lpc_chip_11cxx_lib/inc/clock_11xx.h **** } CHIP_SYSCTL_CLOCK_T;
 289:../../lpc_chip_11cxx_lib/inc/clock_11xx.h **** 
 290:../../lpc_chip_11cxx_lib/inc/clock_11xx.h **** /**
 291:../../lpc_chip_11cxx_lib/inc/clock_11xx.h ****  * @brief	Enable a system or peripheral clock
 292:../../lpc_chip_11cxx_lib/inc/clock_11xx.h ****  * @param	clk	: Clock to enable
 293:../../lpc_chip_11cxx_lib/inc/clock_11xx.h ****  * @return	Nothing
 294:../../lpc_chip_11cxx_lib/inc/clock_11xx.h ****  */
 295:../../lpc_chip_11cxx_lib/inc/clock_11xx.h **** STATIC INLINE void Chip_Clock_EnablePeriphClock(CHIP_SYSCTL_CLOCK_T clk)
 296:../../lpc_chip_11cxx_lib/inc/clock_11xx.h **** {
 297:../../lpc_chip_11cxx_lib/inc/clock_11xx.h **** 	LPC_SYSCTL->SYSAHBCLKCTRL |= (1 << clk);
 946              		.loc 2 297 0
 947 001c 2023     		mov	r3, #32	@ tmp130,
 948 001e 0648     		ldr	r0, .L94+8	@ tmp128,
 949              	.LVL64:
 950 0020 8032     		add	r2, r2, #128	@ tmp129,
 951 0022 8458     		ldr	r4, [r0, r2]	@ D.6773, MEM[(struct LPC_SYSCTL_T *)1074036736B].SYSAHBCLKCTRL
 952              	.LBE105:
 953              	.LBE104:
 954              	.LBE103:
 375:../../lpc_chip_11cxx_lib/src/i2c_11xx.c **** 
 376:../../lpc_chip_11cxx_lib/src/i2c_11xx.c **** 
 377:../../lpc_chip_11cxx_lib/src/i2c_11xx.c **** 	enableClk(id);
 378:../../lpc_chip_11cxx_lib/src/i2c_11xx.c **** 
 379:../../lpc_chip_11cxx_lib/src/i2c_11xx.c **** 	/* Set I2C operation to default */
 380:../../lpc_chip_11cxx_lib/src/i2c_11xx.c **** 	LPC_I2Cx(id)->CONCLR = (I2C_CON_AA | I2C_CON_SI | I2C_CON_STA | I2C_CON_I2EN);
 381:../../lpc_chip_11cxx_lib/src/i2c_11xx.c **** }
 955              		.loc 1 381 0
 956              		@ sp needed	@
 957              	.LBB108:
 958              	.LBB107:
 959              	.LBB106:
 960              		.loc 2 297 0
 961 0024 2343     		orr	r3, r4	@ D.6773, D.6773
 962 0026 8350     		str	r3, [r0, r2]	@ D.6773, MEM[(struct LPC_SYSCTL_T *)1074036736B].SYSAHBCLKCTRL
 963              	.LBE106:
ARM GAS  /tmp/ccj3wEk9.s 			page 32


 964              	.LBE107:
 965              	.LBE108:
 380:../../lpc_chip_11cxx_lib/src/i2c_11xx.c **** }
 966              		.loc 1 380 0
 967 0028 6C23     		mov	r3, #108	@ tmp134,
 968 002a 8B61     		str	r3, [r1, #24]	@ tmp134, MEM[(struct LPC_I2C_T *)1073741824B].CONCLR
 969              		.loc 1 381 0
 970 002c 10BD     		pop	{r4, pc}
 971              	.L95:
 972 002e C046     		.align	2
 973              	.L94:
 974 0030 00000000 		.word	.LANCHOR0
 975 0034 00000000 		.word	Chip_I2C_EventHandler
 976 0038 00800440 		.word	1074036736
 977              		.cfi_endproc
 978              	.LFE214:
 979              		.size	Chip_I2C_Init, .-Chip_I2C_Init
 980              		.section	.text.Chip_I2C_DeInit,"ax",%progbits
 981              		.align	2
 982              		.global	Chip_I2C_DeInit
 983              		.code	16
 984              		.thumb_func
 985              		.type	Chip_I2C_DeInit, %function
 986              	Chip_I2C_DeInit:
 987              	.LFB215:
 382:../../lpc_chip_11cxx_lib/src/i2c_11xx.c **** 
 383:../../lpc_chip_11cxx_lib/src/i2c_11xx.c **** /* De-initializes the I2C peripheral registers to their default reset values */
 384:../../lpc_chip_11cxx_lib/src/i2c_11xx.c **** void Chip_I2C_DeInit(I2C_ID_T id)
 385:../../lpc_chip_11cxx_lib/src/i2c_11xx.c **** {
 988              		.loc 1 385 0
 989              		.cfi_startproc
 990              	.LVL65:
 386:../../lpc_chip_11cxx_lib/src/i2c_11xx.c **** 	/* Disable I2C control */
 387:../../lpc_chip_11cxx_lib/src/i2c_11xx.c **** 	LPC_I2Cx(id)->CONCLR = I2C_CON_I2EN | I2C_CON_SI | I2C_CON_STO | I2C_CON_STA | I2C_CON_AA;
 991              		.loc 1 387 0
 992 0000 7C21     		mov	r1, #124	@ tmp120,
 385:../../lpc_chip_11cxx_lib/src/i2c_11xx.c **** 	/* Disable I2C control */
 993              		.loc 1 385 0
 994 0002 10B5     		push	{r4, lr}	@
 995              		.cfi_def_cfa_offset 8
 996              		.cfi_offset 4, -8
 997              		.cfi_offset 14, -4
 998              		.loc 1 387 0
 999 0004 054A     		ldr	r2, .L97	@ tmp119,
 1000              	.LBB109:
 1001              	.LBB110:
 1002              	.LBB111:
 1003              	.LBB112:
 298:../../lpc_chip_11cxx_lib/inc/clock_11xx.h **** }
 299:../../lpc_chip_11cxx_lib/inc/clock_11xx.h **** 
 300:../../lpc_chip_11cxx_lib/inc/clock_11xx.h **** /**
 301:../../lpc_chip_11cxx_lib/inc/clock_11xx.h ****  * @brief	Disable a system or peripheral clock
 302:../../lpc_chip_11cxx_lib/inc/clock_11xx.h ****  * @param	clk	: Clock to disable
 303:../../lpc_chip_11cxx_lib/inc/clock_11xx.h ****  * @return	Nothing
 304:../../lpc_chip_11cxx_lib/inc/clock_11xx.h ****  */
 305:../../lpc_chip_11cxx_lib/inc/clock_11xx.h **** STATIC INLINE void Chip_Clock_DisablePeriphClock(CHIP_SYSCTL_CLOCK_T clk)
 306:../../lpc_chip_11cxx_lib/inc/clock_11xx.h **** {
ARM GAS  /tmp/ccj3wEk9.s 			page 33


 307:../../lpc_chip_11cxx_lib/inc/clock_11xx.h **** 	LPC_SYSCTL->SYSAHBCLKCTRL &= ~(1 << clk);
 1004              		.loc 2 307 0
 1005 0006 0648     		ldr	r0, .L97+4	@ tmp121,
 1006              	.LVL66:
 1007              	.LBE112:
 1008              	.LBE111:
 1009              	.LBE110:
 1010              	.LBE109:
 1011              		.loc 1 387 0
 1012 0008 1368     		ldr	r3, [r2]	@ D.6777, i2c.ip
 388:../../lpc_chip_11cxx_lib/src/i2c_11xx.c **** 
 389:../../lpc_chip_11cxx_lib/src/i2c_11xx.c **** 	disableClk(id);
 390:../../lpc_chip_11cxx_lib/src/i2c_11xx.c **** }
 1013              		.loc 1 390 0
 1014              		@ sp needed	@
 387:../../lpc_chip_11cxx_lib/src/i2c_11xx.c **** 
 1015              		.loc 1 387 0
 1016 000a 9961     		str	r1, [r3, #24]	@ tmp120, _2->CONCLR
 1017              	.LVL67:
 1018              	.LBB116:
 1019              	.LBB115:
 1020              	.LBB114:
 1021              	.LBB113:
 1022              		.loc 2 307 0
 1023 000c 1479     		ldrb	r4, [r2, #4]	@ D.6780,
 1024 000e 0122     		mov	r2, #1	@ tmp126,
 1025 0010 A240     		lsl	r2, r2, r4	@ D.6780, tmp126, D.6780
 1026 0012 0431     		add	r1, r1, #4	@ tmp122,
 1027 0014 4358     		ldr	r3, [r0, r1]	@ D.6779, MEM[(struct LPC_SYSCTL_T *)1074036736B].SYSAHBCLKCTRL
 1028 0016 9343     		bic	r3, r2	@ D.6779, D.6780
 1029 0018 4350     		str	r3, [r0, r1]	@ D.6779, MEM[(struct LPC_SYSCTL_T *)1074036736B].SYSAHBCLKCTRL
 1030              	.LVL68:
 1031              	.LBE113:
 1032              	.LBE114:
 1033              	.LBE115:
 1034              	.LBE116:
 1035              		.loc 1 390 0
 1036 001a 10BD     		pop	{r4, pc}
 1037              	.L98:
 1038              		.align	2
 1039              	.L97:
 1040 001c 00000000 		.word	.LANCHOR0
 1041 0020 00800440 		.word	1074036736
 1042              		.cfi_endproc
 1043              	.LFE215:
 1044              		.size	Chip_I2C_DeInit, .-Chip_I2C_DeInit
 1045              		.global	__aeabi_uidiv
 1046              		.section	.text.Chip_I2C_SetClockRate,"ax",%progbits
 1047              		.align	2
 1048              		.global	Chip_I2C_SetClockRate
 1049              		.code	16
 1050              		.thumb_func
 1051              		.type	Chip_I2C_SetClockRate, %function
 1052              	Chip_I2C_SetClockRate:
 1053              	.LFB216:
 391:../../lpc_chip_11cxx_lib/src/i2c_11xx.c **** 
 392:../../lpc_chip_11cxx_lib/src/i2c_11xx.c **** /* Set up clock rate for LPC_I2C peripheral */
ARM GAS  /tmp/ccj3wEk9.s 			page 34


 393:../../lpc_chip_11cxx_lib/src/i2c_11xx.c **** void Chip_I2C_SetClockRate(I2C_ID_T id, uint32_t clockrate)
 394:../../lpc_chip_11cxx_lib/src/i2c_11xx.c **** {
 1054              		.loc 1 394 0
 1055              		.cfi_startproc
 1056              	.LVL69:
 1057 0000 08B5     		push	{r3, lr}	@
 1058              		.cfi_def_cfa_offset 8
 1059              		.cfi_offset 3, -8
 1060              		.cfi_offset 14, -4
 1061              	.LBB117:
 1062              	.LBB118:
  90:../../lpc_chip_11cxx_lib/src/i2c_11xx.c **** }
 1063              		.loc 1 90 0
 1064 0002 064B     		ldr	r3, .L100	@ tmp118,
 1065              	.LBE118:
 1066              	.LBE117:
 395:../../lpc_chip_11cxx_lib/src/i2c_11xx.c **** 	uint32_t SCLValue;
 396:../../lpc_chip_11cxx_lib/src/i2c_11xx.c **** 
 397:../../lpc_chip_11cxx_lib/src/i2c_11xx.c **** 	SCLValue = (getClkRate() / clockrate);
 398:../../lpc_chip_11cxx_lib/src/i2c_11xx.c **** 	LPC_I2Cx(id)->SCLH = (uint32_t) (SCLValue >> 1);
 399:../../lpc_chip_11cxx_lib/src/i2c_11xx.c **** 	LPC_I2Cx(id)->SCLL = (uint32_t) (SCLValue - LPC_I2Cx(id)->SCLH);
 400:../../lpc_chip_11cxx_lib/src/i2c_11xx.c **** }
 1067              		.loc 1 400 0
 1068              		@ sp needed	@
 397:../../lpc_chip_11cxx_lib/src/i2c_11xx.c **** 	LPC_I2Cx(id)->SCLH = (uint32_t) (SCLValue >> 1);
 1069              		.loc 1 397 0
 1070 0004 1868     		ldr	r0, [r3]	@, SystemCoreClock
 1071              	.LVL70:
 1072 0006 FFF7FEFF 		bl	__aeabi_uidiv	@
 1073              	.LVL71:
 398:../../lpc_chip_11cxx_lib/src/i2c_11xx.c **** 	LPC_I2Cx(id)->SCLL = (uint32_t) (SCLValue - LPC_I2Cx(id)->SCLH);
 1074              		.loc 1 398 0
 1075 000a 054B     		ldr	r3, .L100+4	@ tmp122,
 1076 000c 4208     		lsr	r2, r0, #1	@ D.6785, tmp121,
 1077 000e 1B68     		ldr	r3, [r3]	@ D.6784, i2c.ip
 1078 0010 1A61     		str	r2, [r3, #16]	@ D.6785, _4->SCLH
 399:../../lpc_chip_11cxx_lib/src/i2c_11xx.c **** }
 1079              		.loc 1 399 0
 1080 0012 1A69     		ldr	r2, [r3, #16]	@ D.6785, _4->SCLH
 1081 0014 801A     		sub	r0, r0, r2	@ D.6785, tmp121, D.6785
 1082              	.LVL72:
 1083 0016 5861     		str	r0, [r3, #20]	@ D.6785, _4->SCLL
 1084              		.loc 1 400 0
 1085 0018 08BD     		pop	{r3, pc}
 1086              	.L101:
 1087 001a C046     		.align	2
 1088              	.L100:
 1089 001c 00000000 		.word	SystemCoreClock
 1090 0020 00000000 		.word	.LANCHOR0
 1091              		.cfi_endproc
 1092              	.LFE216:
 1093              		.size	Chip_I2C_SetClockRate, .-Chip_I2C_SetClockRate
 1094              		.section	.text.Chip_I2C_GetClockRate,"ax",%progbits
 1095              		.align	2
 1096              		.global	Chip_I2C_GetClockRate
 1097              		.code	16
 1098              		.thumb_func
ARM GAS  /tmp/ccj3wEk9.s 			page 35


 1099              		.type	Chip_I2C_GetClockRate, %function
 1100              	Chip_I2C_GetClockRate:
 1101              	.LFB217:
 401:../../lpc_chip_11cxx_lib/src/i2c_11xx.c **** 
 402:../../lpc_chip_11cxx_lib/src/i2c_11xx.c **** /* Get current clock rate for LPC_I2C peripheral */
 403:../../lpc_chip_11cxx_lib/src/i2c_11xx.c **** uint32_t Chip_I2C_GetClockRate(I2C_ID_T id)
 404:../../lpc_chip_11cxx_lib/src/i2c_11xx.c **** {
 1102              		.loc 1 404 0
 1103              		.cfi_startproc
 1104              	.LVL73:
 1105 0000 08B5     		push	{r3, lr}	@
 1106              		.cfi_def_cfa_offset 8
 1107              		.cfi_offset 3, -8
 1108              		.cfi_offset 14, -4
 405:../../lpc_chip_11cxx_lib/src/i2c_11xx.c **** 	return getClkRate() / (LPC_I2Cx(id)->SCLH + LPC_I2Cx(id)->SCLL);
 1109              		.loc 1 405 0
 1110 0002 054B     		ldr	r3, .L103	@ tmp118,
 406:../../lpc_chip_11cxx_lib/src/i2c_11xx.c **** }
 1111              		.loc 1 406 0
 1112              		@ sp needed	@
 405:../../lpc_chip_11cxx_lib/src/i2c_11xx.c **** 	return getClkRate() / (LPC_I2Cx(id)->SCLH + LPC_I2Cx(id)->SCLL);
 1113              		.loc 1 405 0
 1114 0004 1A68     		ldr	r2, [r3]	@ D.6790, i2c.ip
 1115 0006 1369     		ldr	r3, [r2, #16]	@ D.6791, _2->SCLH
 1116 0008 5169     		ldr	r1, [r2, #20]	@ D.6791, _2->SCLL
 1117 000a C918     		add	r1, r1, r3	@ D.6791, D.6791, D.6791
 1118 000c 034B     		ldr	r3, .L103+4	@ tmp120,
 1119 000e 1868     		ldr	r0, [r3]	@, SystemCoreClock
 1120              	.LVL74:
 1121 0010 FFF7FEFF 		bl	__aeabi_uidiv	@
 1122              	.LVL75:
 1123              		.loc 1 406 0
 1124 0014 08BD     		pop	{r3, pc}
 1125              	.L104:
 1126 0016 C046     		.align	2
 1127              	.L103:
 1128 0018 00000000 		.word	.LANCHOR0
 1129 001c 00000000 		.word	SystemCoreClock
 1130              		.cfi_endproc
 1131              	.LFE217:
 1132              		.size	Chip_I2C_GetClockRate, .-Chip_I2C_GetClockRate
 1133              		.section	.text.Chip_I2C_SetMasterEventHandler,"ax",%progbits
 1134              		.align	2
 1135              		.global	Chip_I2C_SetMasterEventHandler
 1136              		.code	16
 1137              		.thumb_func
 1138              		.type	Chip_I2C_SetMasterEventHandler, %function
 1139              	Chip_I2C_SetMasterEventHandler:
 1140              	.LFB218:
 407:../../lpc_chip_11cxx_lib/src/i2c_11xx.c **** 
 408:../../lpc_chip_11cxx_lib/src/i2c_11xx.c **** /* Set the master event handler */
 409:../../lpc_chip_11cxx_lib/src/i2c_11xx.c **** int Chip_I2C_SetMasterEventHandler(I2C_ID_T id, I2C_EVENTHANDLER_T event)
 410:../../lpc_chip_11cxx_lib/src/i2c_11xx.c **** {
 1141              		.loc 1 410 0
 1142              		.cfi_startproc
 1143              	.LVL76:
 411:../../lpc_chip_11cxx_lib/src/i2c_11xx.c **** 	struct i2c_interface *iic = &i2c; 
ARM GAS  /tmp/ccj3wEk9.s 			page 36


 412:../../lpc_chip_11cxx_lib/src/i2c_11xx.c **** 	if (!iic->mXfer) {
 1144              		.loc 1 412 0
 1145 0000 064B     		ldr	r3, .L108	@ tmp117,
 1146 0002 1A69     		ldr	r2, [r3, #16]	@ tmp127, i2c.mXfer
 1147 0004 002A     		cmp	r2, #0	@ tmp127,
 1148 0006 05D0     		beq	.L106	@,
 1149 0008 9868     		ldr	r0, [r3, #8]	@ i2c.mEvent, i2c.mEvent
 1150              	.LVL77:
 1151 000a 081A     		sub	r0, r1, r0	@ tmp123, event, i2c.mEvent
 1152 000c 4342     		neg	r3, r0	@ D.6799, tmp123
 1153 000e 4341     		adc	r3, r3, r0	@ D.6799, tmp123
 1154              	.LVL78:
 1155              	.L107:
 413:../../lpc_chip_11cxx_lib/src/i2c_11xx.c **** 		iic->mEvent = event;
 414:../../lpc_chip_11cxx_lib/src/i2c_11xx.c **** 	}
 415:../../lpc_chip_11cxx_lib/src/i2c_11xx.c **** 	return iic->mEvent == event;
 416:../../lpc_chip_11cxx_lib/src/i2c_11xx.c **** }
 1156              		.loc 1 416 0
 1157 0010 181C     		mov	r0, r3	@, D.6799
 1158              		@ sp needed	@
 1159 0012 7047     		bx	lr
 1160              	.LVL79:
 1161              	.L106:
 413:../../lpc_chip_11cxx_lib/src/i2c_11xx.c **** 		iic->mEvent = event;
 1162              		.loc 1 413 0
 1163 0014 9960     		str	r1, [r3, #8]	@ event, i2c.mEvent
 1164 0016 0123     		mov	r3, #1	@ D.6799,
 1165 0018 FAE7     		b	.L107	@
 1166              	.L109:
 1167 001a C046     		.align	2
 1168              	.L108:
 1169 001c 00000000 		.word	.LANCHOR0
 1170              		.cfi_endproc
 1171              	.LFE218:
 1172              		.size	Chip_I2C_SetMasterEventHandler, .-Chip_I2C_SetMasterEventHandler
 1173              		.section	.text.Chip_I2C_GetMasterEventHandler,"ax",%progbits
 1174              		.align	2
 1175              		.global	Chip_I2C_GetMasterEventHandler
 1176              		.code	16
 1177              		.thumb_func
 1178              		.type	Chip_I2C_GetMasterEventHandler, %function
 1179              	Chip_I2C_GetMasterEventHandler:
 1180              	.LFB219:
 417:../../lpc_chip_11cxx_lib/src/i2c_11xx.c **** 
 418:../../lpc_chip_11cxx_lib/src/i2c_11xx.c **** /* Get the master event handler */
 419:../../lpc_chip_11cxx_lib/src/i2c_11xx.c **** I2C_EVENTHANDLER_T Chip_I2C_GetMasterEventHandler(I2C_ID_T id)
 420:../../lpc_chip_11cxx_lib/src/i2c_11xx.c **** {
 1181              		.loc 1 420 0
 1182              		.cfi_startproc
 1183              	.LVL80:
 421:../../lpc_chip_11cxx_lib/src/i2c_11xx.c **** 	return i2c.mEvent;
 1184              		.loc 1 421 0
 1185 0000 014B     		ldr	r3, .L111	@ tmp114,
 422:../../lpc_chip_11cxx_lib/src/i2c_11xx.c **** }
 1186              		.loc 1 422 0
 1187              		@ sp needed	@
 421:../../lpc_chip_11cxx_lib/src/i2c_11xx.c **** 	return i2c.mEvent;
ARM GAS  /tmp/ccj3wEk9.s 			page 37


 1188              		.loc 1 421 0
 1189 0002 9868     		ldr	r0, [r3, #8]	@ i2c.mEvent, i2c.mEvent
 1190              	.LVL81:
 1191              		.loc 1 422 0
 1192 0004 7047     		bx	lr
 1193              	.L112:
 1194 0006 C046     		.align	2
 1195              	.L111:
 1196 0008 00000000 		.word	.LANCHOR0
 1197              		.cfi_endproc
 1198              	.LFE219:
 1199              		.size	Chip_I2C_GetMasterEventHandler, .-Chip_I2C_GetMasterEventHandler
 1200              		.section	.text.Chip_I2C_MasterTransfer,"ax",%progbits
 1201              		.align	2
 1202              		.global	Chip_I2C_MasterTransfer
 1203              		.code	16
 1204              		.thumb_func
 1205              		.type	Chip_I2C_MasterTransfer, %function
 1206              	Chip_I2C_MasterTransfer:
 1207              	.LFB220:
 423:../../lpc_chip_11cxx_lib/src/i2c_11xx.c **** 
 424:../../lpc_chip_11cxx_lib/src/i2c_11xx.c **** /* Transmit and Receive data in master mode */
 425:../../lpc_chip_11cxx_lib/src/i2c_11xx.c **** int Chip_I2C_MasterTransfer(I2C_ID_T id, I2C_XFER_T *xfer)
 426:../../lpc_chip_11cxx_lib/src/i2c_11xx.c **** {
 1208              		.loc 1 426 0
 1209              		.cfi_startproc
 1210              	.LVL82:
 1211 0000 70B5     		push	{r4, r5, r6, lr}	@
 1212              		.cfi_def_cfa_offset 16
 1213              		.cfi_offset 4, -16
 1214              		.cfi_offset 5, -12
 1215              		.cfi_offset 6, -8
 1216              		.cfi_offset 14, -4
 427:../../lpc_chip_11cxx_lib/src/i2c_11xx.c **** 	struct i2c_interface *iic = &i2c;
 428:../../lpc_chip_11cxx_lib/src/i2c_11xx.c **** 
 429:../../lpc_chip_11cxx_lib/src/i2c_11xx.c **** 	i2c.mEvent(id, I2C_EVENT_LOCK);
 1217              		.loc 1 429 0
 1218 0002 164C     		ldr	r4, .L122	@ tmp151,
 426:../../lpc_chip_11cxx_lib/src/i2c_11xx.c **** 	struct i2c_interface *iic = &i2c;
 1219              		.loc 1 426 0
 1220 0004 0D1C     		mov	r5, r1	@ xfer, xfer
 1221              		.loc 1 429 0
 1222 0006 A368     		ldr	r3, [r4, #8]	@ tmp154, i2c.mEvent
 1223 0008 0321     		mov	r1, #3	@,
 1224              	.LVL83:
 426:../../lpc_chip_11cxx_lib/src/i2c_11xx.c **** 	struct i2c_interface *iic = &i2c;
 1225              		.loc 1 426 0
 1226 000a 061C     		mov	r6, r0	@ id, id
 1227              		.loc 1 429 0
 1228 000c 9847     		blx	r3	@ tmp154
 1229              	.LVL84:
 430:../../lpc_chip_11cxx_lib/src/i2c_11xx.c **** 	xfer->status = I2C_STATUS_BUSY;
 1230              		.loc 1 430 0
 1231 000e 0423     		mov	r3, #4	@ tmp127,
 1232 0010 2B75     		strb	r3, [r5, #20]	@ tmp127, xfer_8(D)->status
 431:../../lpc_chip_11cxx_lib/src/i2c_11xx.c **** 	iic->mXfer = xfer;
 432:../../lpc_chip_11cxx_lib/src/i2c_11xx.c **** 	/* If slave xfer not in progress */
ARM GAS  /tmp/ccj3wEk9.s 			page 38


 433:../../lpc_chip_11cxx_lib/src/i2c_11xx.c **** 	if (!iic->sXfer) {
 1233              		.loc 1 433 0
 1234 0012 6369     		ldr	r3, [r4, #20]	@ tmp156, i2c.sXfer
 431:../../lpc_chip_11cxx_lib/src/i2c_11xx.c **** 	iic->mXfer = xfer;
 1235              		.loc 1 431 0
 1236 0014 2561     		str	r5, [r4, #16]	@ xfer, i2c.mXfer
 1237              		.loc 1 433 0
 1238 0016 002B     		cmp	r3, #0	@ tmp156,
 1239 0018 19D0     		beq	.L121	@,
 1240              	.L114:
 434:../../lpc_chip_11cxx_lib/src/i2c_11xx.c **** 		startMasterXfer(iic->ip);
 435:../../lpc_chip_11cxx_lib/src/i2c_11xx.c **** 	} 
 436:../../lpc_chip_11cxx_lib/src/i2c_11xx.c **** 	i2c.mEvent(id, I2C_EVENT_WAIT);
 1241              		.loc 1 436 0
 1242 001a 0121     		mov	r1, #1	@,
 1243 001c A368     		ldr	r3, [r4, #8]	@ tmp157, i2c.mEvent
 1244 001e 301C     		mov	r0, r6	@, id
 1245 0020 9847     		blx	r3	@ tmp157
 1246              	.LVL85:
 437:../../lpc_chip_11cxx_lib/src/i2c_11xx.c **** 	iic->mXfer = 0;
 1247              		.loc 1 437 0
 1248 0022 0023     		mov	r3, #0	@ tmp138,
 1249              	.LBB119:
 1250              	.LBB120:
 116:../../lpc_chip_11cxx_lib/src/i2c_11xx.c **** }
 1251              		.loc 1 116 0
 1252 0024 1021     		mov	r1, #16	@ tmp152,
 1253 0026 2268     		ldr	r2, [r4]	@ D.6809, i2c.ip
 1254              	.LBE120:
 1255              	.LBE119:
 1256              		.loc 1 437 0
 1257 0028 2361     		str	r3, [r4, #16]	@ tmp138, i2c.mXfer
 1258              	.L115:
 1259              	.LVL86:
 1260              	.LBB122:
 1261              	.LBB121:
 116:../../lpc_chip_11cxx_lib/src/i2c_11xx.c **** }
 1262              		.loc 1 116 0 discriminator 1
 1263 002a 1368     		ldr	r3, [r2]	@ D.6810, _21->CONSET
 1264              	.LBE121:
 1265              	.LBE122:
 438:../../lpc_chip_11cxx_lib/src/i2c_11xx.c **** 
 439:../../lpc_chip_11cxx_lib/src/i2c_11xx.c **** 	/* Wait for stop condition to appear on bus */
 440:../../lpc_chip_11cxx_lib/src/i2c_11xx.c **** 	while (!isI2CBusFree(iic->ip)) {}
 1266              		.loc 1 440 0 discriminator 1
 1267 002c 1942     		tst	r1, r3	@ tmp152, D.6810
 1268 002e FCD1     		bne	.L115	@,
 441:../../lpc_chip_11cxx_lib/src/i2c_11xx.c **** 
 442:../../lpc_chip_11cxx_lib/src/i2c_11xx.c **** 	/* Start slave if one is active */
 443:../../lpc_chip_11cxx_lib/src/i2c_11xx.c **** 	if (SLAVE_ACTIVE(iic)) {
 1269              		.loc 1 443 0
 1270 0030 FF23     		mov	r3, #255	@ tmp145,
 1271 0032 A169     		ldr	r1, [r4, #24]	@ tmp159, i2c.flags
 1272 0034 1B02     		lsl	r3, r3, #8	@ tmp145, tmp145,
 1273 0036 1942     		tst	r1, r3	@ tmp159, tmp145
 1274 0038 03D0     		beq	.L116	@,
 1275              	.LVL87:
ARM GAS  /tmp/ccj3wEk9.s 			page 39


 1276              	.LBB123:
 1277              	.LBB124:
 107:../../lpc_chip_11cxx_lib/src/i2c_11xx.c **** 
 1278              		.loc 1 107 0
 1279 003a 3823     		mov	r3, #56	@ tmp146,
 1280 003c 9361     		str	r3, [r2, #24]	@ tmp146, _21->CONCLR
 110:../../lpc_chip_11cxx_lib/src/i2c_11xx.c **** }
 1281              		.loc 1 110 0
 1282 003e 0C33     		add	r3, r3, #12	@ tmp147,
 1283 0040 1360     		str	r3, [r2]	@ tmp147, _21->CONSET
 1284              	.LVL88:
 1285              	.L116:
 1286              	.LBE124:
 1287              	.LBE123:
 444:../../lpc_chip_11cxx_lib/src/i2c_11xx.c **** 		startSlaverXfer(iic->ip);
 445:../../lpc_chip_11cxx_lib/src/i2c_11xx.c **** 	}
 446:../../lpc_chip_11cxx_lib/src/i2c_11xx.c **** 
 447:../../lpc_chip_11cxx_lib/src/i2c_11xx.c **** 	i2c.mEvent(id, I2C_EVENT_UNLOCK);
 1288              		.loc 1 447 0
 1289 0042 301C     		mov	r0, r6	@, id
 1290 0044 A368     		ldr	r3, [r4, #8]	@ i2c.mEvent, i2c.mEvent
 1291 0046 0421     		mov	r1, #4	@,
 1292 0048 9847     		blx	r3	@ i2c.mEvent
 1293              	.LVL89:
 448:../../lpc_chip_11cxx_lib/src/i2c_11xx.c **** 	return (int) xfer->status;
 449:../../lpc_chip_11cxx_lib/src/i2c_11xx.c **** }
 1294              		.loc 1 449 0
 1295              		@ sp needed	@
 448:../../lpc_chip_11cxx_lib/src/i2c_11xx.c **** 	return (int) xfer->status;
 1296              		.loc 1 448 0
 1297 004a 287D     		ldrb	r0, [r5, #20]	@ D.6812,
 1298              	.LVL90:
 1299              		.loc 1 449 0
 1300 004c 70BD     		pop	{r4, r5, r6, pc}
 1301              	.LVL91:
 1302              	.L121:
 1303              	.LBB125:
 1304              	.LBB126:
  97:../../lpc_chip_11cxx_lib/src/i2c_11xx.c **** 
 1305              		.loc 1 97 0
 1306 004e 3C22     		mov	r2, #60	@ tmp133,
 1307              	.LBE126:
 1308              	.LBE125:
 434:../../lpc_chip_11cxx_lib/src/i2c_11xx.c **** 	} 
 1309              		.loc 1 434 0
 1310 0050 2368     		ldr	r3, [r4]	@ D.6809, i2c.ip
 1311              	.LVL92:
 1312              	.LBB128:
 1313              	.LBB127:
  97:../../lpc_chip_11cxx_lib/src/i2c_11xx.c **** 
 1314              		.loc 1 97 0
 1315 0052 9A61     		str	r2, [r3, #24]	@ tmp133, _12->CONCLR
 100:../../lpc_chip_11cxx_lib/src/i2c_11xx.c **** }
 1316              		.loc 1 100 0
 1317 0054 2432     		add	r2, r2, #36	@ tmp134,
 1318 0056 1A60     		str	r2, [r3]	@ tmp134, _12->CONSET
 1319 0058 DFE7     		b	.L114	@
ARM GAS  /tmp/ccj3wEk9.s 			page 40


 1320              	.L123:
 1321 005a C046     		.align	2
 1322              	.L122:
 1323 005c 00000000 		.word	.LANCHOR0
 1324              	.LBE127:
 1325              	.LBE128:
 1326              		.cfi_endproc
 1327              	.LFE220:
 1328              		.size	Chip_I2C_MasterTransfer, .-Chip_I2C_MasterTransfer
 1329              		.section	.text.Chip_I2C_MasterSend,"ax",%progbits
 1330              		.align	2
 1331              		.global	Chip_I2C_MasterSend
 1332              		.code	16
 1333              		.thumb_func
 1334              		.type	Chip_I2C_MasterSend, %function
 1335              	Chip_I2C_MasterSend:
 1336              	.LFB221:
 450:../../lpc_chip_11cxx_lib/src/i2c_11xx.c **** 
 451:../../lpc_chip_11cxx_lib/src/i2c_11xx.c **** /* Master tx only */
 452:../../lpc_chip_11cxx_lib/src/i2c_11xx.c **** int Chip_I2C_MasterSend(I2C_ID_T id, uint8_t slaveAddr, const uint8_t *buff, uint8_t len)
 453:../../lpc_chip_11cxx_lib/src/i2c_11xx.c **** {
 1337              		.loc 1 453 0
 1338              		.cfi_startproc
 1339              	.LVL93:
 1340 0000 30B5     		push	{r4, r5, lr}	@
 1341              		.cfi_def_cfa_offset 12
 1342              		.cfi_offset 4, -12
 1343              		.cfi_offset 5, -8
 1344              		.cfi_offset 14, -4
 1345 0002 87B0     		sub	sp, sp, #28	@,,
 1346              		.cfi_def_cfa_offset 40
 1347              		.loc 1 453 0
 1348 0004 1D1C     		mov	r5, r3	@ len, len
 454:../../lpc_chip_11cxx_lib/src/i2c_11xx.c **** 	I2C_XFER_T xfer;
 455:../../lpc_chip_11cxx_lib/src/i2c_11xx.c **** 	xfer.slaveAddr = slaveAddr;
 1349              		.loc 1 455 0
 1350 0006 6B46     		mov	r3, sp	@ tmp130,
 1351              	.LVL94:
 1352 0008 1970     		strb	r1, [r3]	@ slaveAddr, xfer.slaveAddr
 456:../../lpc_chip_11cxx_lib/src/i2c_11xx.c **** 	xfer.txBuff = buff;
 457:../../lpc_chip_11cxx_lib/src/i2c_11xx.c **** 	xfer.txSz = len;
 458:../../lpc_chip_11cxx_lib/src/i2c_11xx.c **** 	xfer.rxSz = 0;
 1353              		.loc 1 458 0
 1354 000a 0023     		mov	r3, #0	@ tmp124,
 453:../../lpc_chip_11cxx_lib/src/i2c_11xx.c **** 	I2C_XFER_T xfer;
 1355              		.loc 1 453 0
 1356 000c 041C     		mov	r4, r0	@ id, id
 456:../../lpc_chip_11cxx_lib/src/i2c_11xx.c **** 	xfer.txBuff = buff;
 1357              		.loc 1 456 0
 1358 000e 0192     		str	r2, [sp, #4]	@ buff, xfer.txBuff
 457:../../lpc_chip_11cxx_lib/src/i2c_11xx.c **** 	xfer.rxSz = 0;
 1359              		.loc 1 457 0
 1360 0010 0295     		str	r5, [sp, #8]	@ len, xfer.txSz
 1361              		.loc 1 458 0
 1362 0012 0493     		str	r3, [sp, #16]	@ tmp124, xfer.rxSz
 1363              	.LVL95:
 1364              	.L125:
ARM GAS  /tmp/ccj3wEk9.s 			page 41


 459:../../lpc_chip_11cxx_lib/src/i2c_11xx.c **** 	while (Chip_I2C_MasterTransfer(id, &xfer) == I2C_STATUS_ARBLOST) {}
 1365              		.loc 1 459 0 discriminator 1
 1366 0014 201C     		mov	r0, r4	@, id
 1367 0016 6946     		mov	r1, sp	@,
 1368 0018 FFF7FEFF 		bl	Chip_I2C_MasterTransfer	@
 1369              	.LVL96:
 1370 001c 0228     		cmp	r0, #2	@ D.6816,
 1371 001e F9D0     		beq	.L125	@,
 460:../../lpc_chip_11cxx_lib/src/i2c_11xx.c **** 	return len - xfer.txSz;
 1372              		.loc 1 460 0
 1373 0020 0298     		ldr	r0, [sp, #8]	@ xfer.txSz, xfer.txSz
 1374 0022 281A     		sub	r0, r5, r0	@ D.6816, len, xfer.txSz
 461:../../lpc_chip_11cxx_lib/src/i2c_11xx.c **** }
 1375              		.loc 1 461 0
 1376 0024 07B0     		add	sp, sp, #28	@,,
 1377              		@ sp needed	@
 1378 0026 30BD     		pop	{r4, r5, pc}
 1379              		.cfi_endproc
 1380              	.LFE221:
 1381              		.size	Chip_I2C_MasterSend, .-Chip_I2C_MasterSend
 1382              		.section	.text.Chip_I2C_MasterCmdRead,"ax",%progbits
 1383              		.align	2
 1384              		.global	Chip_I2C_MasterCmdRead
 1385              		.code	16
 1386              		.thumb_func
 1387              		.type	Chip_I2C_MasterCmdRead, %function
 1388              	Chip_I2C_MasterCmdRead:
 1389              	.LFB222:
 462:../../lpc_chip_11cxx_lib/src/i2c_11xx.c **** 
 463:../../lpc_chip_11cxx_lib/src/i2c_11xx.c **** /* Transmit one byte and receive an array of bytes after a repeated start condition is generated in
 464:../../lpc_chip_11cxx_lib/src/i2c_11xx.c ****  * This function is useful for communicating with the I2C slave registers
 465:../../lpc_chip_11cxx_lib/src/i2c_11xx.c ****  */
 466:../../lpc_chip_11cxx_lib/src/i2c_11xx.c **** int Chip_I2C_MasterCmdRead(I2C_ID_T id, uint8_t slaveAddr, uint8_t cmd, uint8_t *buff, int len)
 467:../../lpc_chip_11cxx_lib/src/i2c_11xx.c **** {
 1390              		.loc 1 467 0
 1391              		.cfi_startproc
 1392              	.LVL97:
 1393 0000 70B5     		push	{r4, r5, r6, lr}	@
 1394              		.cfi_def_cfa_offset 16
 1395              		.cfi_offset 4, -16
 1396              		.cfi_offset 5, -12
 1397              		.cfi_offset 6, -8
 1398              		.cfi_offset 14, -4
 1399 0002 88B0     		sub	sp, sp, #32	@,,
 1400              		.cfi_def_cfa_offset 48
 1401              		.loc 1 467 0
 1402 0004 051C     		mov	r5, r0	@ id, id
 1403 0006 6846     		mov	r0, sp	@ tmp134,
 1404              	.LVL98:
 1405 0008 C271     		strb	r2, [r0, #7]	@ cmd, cmd
 468:../../lpc_chip_11cxx_lib/src/i2c_11xx.c **** 	I2C_XFER_T xfer;
 469:../../lpc_chip_11cxx_lib/src/i2c_11xx.c **** 	xfer.slaveAddr = slaveAddr;
 470:../../lpc_chip_11cxx_lib/src/i2c_11xx.c **** 	xfer.txBuff = &cmd;
 471:../../lpc_chip_11cxx_lib/src/i2c_11xx.c **** 	xfer.txSz = 1;
 1406              		.loc 1 471 0
 1407 000a 0122     		mov	r2, #1	@ tmp126,
 1408              	.LVL99:
ARM GAS  /tmp/ccj3wEk9.s 			page 42


 467:../../lpc_chip_11cxx_lib/src/i2c_11xx.c **** 	I2C_XFER_T xfer;
 1409              		.loc 1 467 0
 1410 000c 0C9E     		ldr	r6, [sp, #48]	@ len, len
 469:../../lpc_chip_11cxx_lib/src/i2c_11xx.c **** 	xfer.txBuff = &cmd;
 1411              		.loc 1 469 0
 1412 000e 02AC     		add	r4, sp, #8	@ tmp133,,
 467:../../lpc_chip_11cxx_lib/src/i2c_11xx.c **** 	I2C_XFER_T xfer;
 1413              		.loc 1 467 0
 1414 0010 0730     		add	r0, r0, #7	@ tmp117,
 1415              	.LVL100:
 469:../../lpc_chip_11cxx_lib/src/i2c_11xx.c **** 	xfer.txBuff = &cmd;
 1416              		.loc 1 469 0
 1417 0012 2170     		strb	r1, [r4]	@ slaveAddr, xfer.slaveAddr
 470:../../lpc_chip_11cxx_lib/src/i2c_11xx.c **** 	xfer.txSz = 1;
 1418              		.loc 1 470 0
 1419 0014 6060     		str	r0, [r4, #4]	@ tmp117, xfer.txBuff
 1420              		.loc 1 471 0
 1421 0016 A260     		str	r2, [r4, #8]	@ tmp126, xfer.txSz
 472:../../lpc_chip_11cxx_lib/src/i2c_11xx.c **** 	xfer.rxBuff = buff;
 1422              		.loc 1 472 0
 1423 0018 E360     		str	r3, [r4, #12]	@ buff, xfer.rxBuff
 473:../../lpc_chip_11cxx_lib/src/i2c_11xx.c **** 	xfer.rxSz = len;
 1424              		.loc 1 473 0
 1425 001a 2661     		str	r6, [r4, #16]	@ len, xfer.rxSz
 1426              	.LVL101:
 1427              	.L129:
 474:../../lpc_chip_11cxx_lib/src/i2c_11xx.c **** 	while (Chip_I2C_MasterTransfer(id, &xfer) == I2C_STATUS_ARBLOST) {}
 1428              		.loc 1 474 0 discriminator 1
 1429 001c 281C     		mov	r0, r5	@, id
 1430 001e 211C     		mov	r1, r4	@, tmp133
 1431 0020 FFF7FEFF 		bl	Chip_I2C_MasterTransfer	@
 1432              	.LVL102:
 1433 0024 0228     		cmp	r0, #2	@ D.6819,
 1434 0026 F9D0     		beq	.L129	@,
 475:../../lpc_chip_11cxx_lib/src/i2c_11xx.c **** 	return len - xfer.rxSz;
 1435              		.loc 1 475 0
 1436 0028 2069     		ldr	r0, [r4, #16]	@ xfer.rxSz, xfer.rxSz
 1437 002a 301A     		sub	r0, r6, r0	@ D.6819, len, xfer.rxSz
 476:../../lpc_chip_11cxx_lib/src/i2c_11xx.c **** }
 1438              		.loc 1 476 0
 1439 002c 08B0     		add	sp, sp, #32	@,,
 1440              	.LVL103:
 1441              		@ sp needed	@
 1442 002e 70BD     		pop	{r4, r5, r6, pc}
 1443              		.cfi_endproc
 1444              	.LFE222:
 1445              		.size	Chip_I2C_MasterCmdRead, .-Chip_I2C_MasterCmdRead
 1446              		.section	.text.Chip_I2C_MasterRead,"ax",%progbits
 1447              		.align	2
 1448              		.global	Chip_I2C_MasterRead
 1449              		.code	16
 1450              		.thumb_func
 1451              		.type	Chip_I2C_MasterRead, %function
 1452              	Chip_I2C_MasterRead:
 1453              	.LFB223:
 477:../../lpc_chip_11cxx_lib/src/i2c_11xx.c **** 
 478:../../lpc_chip_11cxx_lib/src/i2c_11xx.c **** /* Sequential master read */
ARM GAS  /tmp/ccj3wEk9.s 			page 43


 479:../../lpc_chip_11cxx_lib/src/i2c_11xx.c **** int Chip_I2C_MasterRead(I2C_ID_T id, uint8_t slaveAddr, uint8_t *buff, int len)
 480:../../lpc_chip_11cxx_lib/src/i2c_11xx.c **** {
 1454              		.loc 1 480 0
 1455              		.cfi_startproc
 1456              	.LVL104:
 1457 0000 30B5     		push	{r4, r5, lr}	@
 1458              		.cfi_def_cfa_offset 12
 1459              		.cfi_offset 4, -12
 1460              		.cfi_offset 5, -8
 1461              		.cfi_offset 14, -4
 1462 0002 87B0     		sub	sp, sp, #28	@,,
 1463              		.cfi_def_cfa_offset 40
 1464              		.loc 1 480 0
 1465 0004 1D1C     		mov	r5, r3	@ len, len
 481:../../lpc_chip_11cxx_lib/src/i2c_11xx.c **** 	I2C_XFER_T xfer;
 482:../../lpc_chip_11cxx_lib/src/i2c_11xx.c **** 	xfer.slaveAddr = slaveAddr;
 1466              		.loc 1 482 0
 1467 0006 6B46     		mov	r3, sp	@ tmp129,
 1468              	.LVL105:
 1469 0008 1970     		strb	r1, [r3]	@ slaveAddr, xfer.slaveAddr
 483:../../lpc_chip_11cxx_lib/src/i2c_11xx.c **** 	xfer.rxBuff = buff;
 484:../../lpc_chip_11cxx_lib/src/i2c_11xx.c **** 	xfer.rxSz = len;
 485:../../lpc_chip_11cxx_lib/src/i2c_11xx.c **** 	xfer.txSz = 0;
 1470              		.loc 1 485 0
 1471 000a 0023     		mov	r3, #0	@ tmp123,
 480:../../lpc_chip_11cxx_lib/src/i2c_11xx.c **** 	I2C_XFER_T xfer;
 1472              		.loc 1 480 0
 1473 000c 041C     		mov	r4, r0	@ id, id
 483:../../lpc_chip_11cxx_lib/src/i2c_11xx.c **** 	xfer.rxBuff = buff;
 1474              		.loc 1 483 0
 1475 000e 0392     		str	r2, [sp, #12]	@ buff, xfer.rxBuff
 484:../../lpc_chip_11cxx_lib/src/i2c_11xx.c **** 	xfer.txSz = 0;
 1476              		.loc 1 484 0
 1477 0010 0495     		str	r5, [sp, #16]	@ len, xfer.rxSz
 1478              		.loc 1 485 0
 1479 0012 0293     		str	r3, [sp, #8]	@ tmp123, xfer.txSz
 1480              	.LVL106:
 1481              	.L133:
 486:../../lpc_chip_11cxx_lib/src/i2c_11xx.c **** 	while (Chip_I2C_MasterTransfer(id, &xfer) == I2C_STATUS_ARBLOST) {}
 1482              		.loc 1 486 0 discriminator 1
 1483 0014 201C     		mov	r0, r4	@, id
 1484 0016 6946     		mov	r1, sp	@,
 1485 0018 FFF7FEFF 		bl	Chip_I2C_MasterTransfer	@
 1486              	.LVL107:
 1487 001c 0228     		cmp	r0, #2	@ D.6822,
 1488 001e F9D0     		beq	.L133	@,
 487:../../lpc_chip_11cxx_lib/src/i2c_11xx.c **** 	return len - xfer.rxSz;
 1489              		.loc 1 487 0
 1490 0020 0498     		ldr	r0, [sp, #16]	@ xfer.rxSz, xfer.rxSz
 1491 0022 281A     		sub	r0, r5, r0	@ D.6822, len, xfer.rxSz
 488:../../lpc_chip_11cxx_lib/src/i2c_11xx.c **** }
 1492              		.loc 1 488 0
 1493 0024 07B0     		add	sp, sp, #28	@,,
 1494              		@ sp needed	@
 1495              	.LVL108:
 1496 0026 30BD     		pop	{r4, r5, pc}
 1497              		.cfi_endproc
ARM GAS  /tmp/ccj3wEk9.s 			page 44


 1498              	.LFE223:
 1499              		.size	Chip_I2C_MasterRead, .-Chip_I2C_MasterRead
 1500              		.section	.text.Chip_I2C_IsMasterActive,"ax",%progbits
 1501              		.align	2
 1502              		.global	Chip_I2C_IsMasterActive
 1503              		.code	16
 1504              		.thumb_func
 1505              		.type	Chip_I2C_IsMasterActive, %function
 1506              	Chip_I2C_IsMasterActive:
 1507              	.LFB224:
 489:../../lpc_chip_11cxx_lib/src/i2c_11xx.c **** 
 490:../../lpc_chip_11cxx_lib/src/i2c_11xx.c **** /* Check if master state is active */
 491:../../lpc_chip_11cxx_lib/src/i2c_11xx.c **** int Chip_I2C_IsMasterActive(I2C_ID_T id)
 492:../../lpc_chip_11cxx_lib/src/i2c_11xx.c **** {
 1508              		.loc 1 492 0
 1509              		.cfi_startproc
 1510              	.LVL109:
 1511              	.LBB129:
 1512              	.LBB130:
 1513              	.LBB131:
 1514              	.LBB132:
 122:../../lpc_chip_11cxx_lib/src/i2c_11xx.c **** }
 1515              		.loc 1 122 0
 1516 0000 F822     		mov	r2, #248	@ tmp120,
 1517              	.LBE132:
 1518              	.LBE131:
 1519              	.LBE130:
 1520              	.LBE129:
 493:../../lpc_chip_11cxx_lib/src/i2c_11xx.c **** 	return isMasterState(i2c.ip);
 1521              		.loc 1 493 0
 1522 0002 054B     		ldr	r3, .L137	@ tmp118,
 1523              	.LBB137:
 1524              	.LBB135:
 128:../../lpc_chip_11cxx_lib/src/i2c_11xx.c **** }
 1525              		.loc 1 128 0
 1526 0004 5F21     		mov	r1, #95	@ tmp124,
 1527              	.LBE135:
 1528              	.LBE137:
 1529              		.loc 1 493 0
 1530 0006 1B68     		ldr	r3, [r3]	@ D.6825, i2c.ip
 1531              	.LVL110:
 494:../../lpc_chip_11cxx_lib/src/i2c_11xx.c **** }
 1532              		.loc 1 494 0
 1533              		@ sp needed	@
 1534              	.LBB138:
 1535              	.LBB136:
 1536              	.LBB134:
 1537              	.LBB133:
 122:../../lpc_chip_11cxx_lib/src/i2c_11xx.c **** }
 1538              		.loc 1 122 0
 1539 0008 5B68     		ldr	r3, [r3, #4]	@ D.6826, _2->STAT
 1540              	.LVL111:
 1541 000a 1340     		and	r3, r2	@ D.6827, tmp120
 1542              	.LBE133:
 1543              	.LBE134:
 128:../../lpc_chip_11cxx_lib/src/i2c_11xx.c **** }
 1544              		.loc 1 128 0
ARM GAS  /tmp/ccj3wEk9.s 			page 45


 1545 000c 0022     		mov	r2, #0	@ tmp126,
 1546 000e D80F     		lsr	r0, r3, #31	@ tmp125, D.6827,
 1547              	.LVL112:
 1548 0010 9942     		cmp	r1, r3	@ tmp124, D.6827
 1549 0012 5041     		adc	r0, r0, r2	@ D.6828, tmp125, tmp126
 1550              	.LBE136:
 1551              	.LBE138:
 1552              		.loc 1 494 0
 1553 0014 7047     		bx	lr
 1554              	.L138:
 1555 0016 C046     		.align	2
 1556              	.L137:
 1557 0018 00000000 		.word	.LANCHOR0
 1558              		.cfi_endproc
 1559              	.LFE224:
 1560              		.size	Chip_I2C_IsMasterActive, .-Chip_I2C_IsMasterActive
 1561              		.section	.text.Chip_I2C_MasterStateHandler,"ax",%progbits
 1562              		.align	2
 1563              		.global	Chip_I2C_MasterStateHandler
 1564              		.code	16
 1565              		.thumb_func
 1566              		.type	Chip_I2C_MasterStateHandler, %function
 1567              	Chip_I2C_MasterStateHandler:
 1568              	.LFB225:
 495:../../lpc_chip_11cxx_lib/src/i2c_11xx.c **** 
 496:../../lpc_chip_11cxx_lib/src/i2c_11xx.c **** /* State change handler for master transfer */
 497:../../lpc_chip_11cxx_lib/src/i2c_11xx.c **** void Chip_I2C_MasterStateHandler(I2C_ID_T id)
 498:../../lpc_chip_11cxx_lib/src/i2c_11xx.c **** {
 1569              		.loc 1 498 0
 1570              		.cfi_startproc
 1571              	.LVL113:
 1572 0000 38B5     		push	{r3, r4, r5, lr}	@
 1573              		.cfi_def_cfa_offset 16
 1574              		.cfi_offset 3, -16
 1575              		.cfi_offset 4, -12
 1576              		.cfi_offset 5, -8
 1577              		.cfi_offset 14, -4
 499:../../lpc_chip_11cxx_lib/src/i2c_11xx.c **** 	if (!handleMasterXferState(i2c.ip, i2c.mXfer)) {
 1578              		.loc 1 499 0
 1579 0002 064C     		ldr	r4, .L141	@ tmp115,
 498:../../lpc_chip_11cxx_lib/src/i2c_11xx.c **** 	if (!handleMasterXferState(i2c.ip, i2c.mXfer)) {
 1580              		.loc 1 498 0
 1581 0004 051C     		mov	r5, r0	@ id, id
 1582              		.loc 1 499 0
 1583 0006 2169     		ldr	r1, [r4, #16]	@, i2c.mXfer
 1584 0008 2068     		ldr	r0, [r4]	@, i2c.ip
 1585              	.LVL114:
 1586 000a FFF7FEFF 		bl	handleMasterXferState	@
 1587              	.LVL115:
 1588 000e 0028     		cmp	r0, #0	@ D.6835,
 1589 0010 03D1     		bne	.L139	@,
 1590              	.LVL116:
 1591              	.LBB141:
 1592              	.LBB142:
 500:../../lpc_chip_11cxx_lib/src/i2c_11xx.c **** 		i2c.mEvent(id, I2C_EVENT_DONE);
 1593              		.loc 1 500 0
 1594 0012 A368     		ldr	r3, [r4, #8]	@ i2c.mEvent, i2c.mEvent
ARM GAS  /tmp/ccj3wEk9.s 			page 46


 1595 0014 281C     		mov	r0, r5	@, id
 1596 0016 0221     		mov	r1, #2	@,
 1597 0018 9847     		blx	r3	@ i2c.mEvent
 1598              	.LVL117:
 1599              	.L139:
 1600              	.LBE142:
 1601              	.LBE141:
 501:../../lpc_chip_11cxx_lib/src/i2c_11xx.c **** 	}
 502:../../lpc_chip_11cxx_lib/src/i2c_11xx.c **** }
 1602              		.loc 1 502 0
 1603              		@ sp needed	@
 1604 001a 38BD     		pop	{r3, r4, r5, pc}
 1605              	.L142:
 1606              		.align	2
 1607              	.L141:
 1608 001c 00000000 		.word	.LANCHOR0
 1609              		.cfi_endproc
 1610              	.LFE225:
 1611              		.size	Chip_I2C_MasterStateHandler, .-Chip_I2C_MasterStateHandler
 1612              		.section	.text.Chip_I2C_EventHandlerPolling,"ax",%progbits
 1613              		.align	2
 1614              		.global	Chip_I2C_EventHandlerPolling
 1615              		.code	16
 1616              		.thumb_func
 1617              		.type	Chip_I2C_EventHandlerPolling, %function
 1618              	Chip_I2C_EventHandlerPolling:
 1619              	.LFB213:
 346:../../lpc_chip_11cxx_lib/src/i2c_11xx.c **** 	struct i2c_interface *iic = &i2c;
 1620              		.loc 1 346 0
 1621              		.cfi_startproc
 1622              	.LVL118:
 1623 0000 F8B5     		push	{r3, r4, r5, r6, r7, lr}	@
 1624              		.cfi_def_cfa_offset 24
 1625              		.cfi_offset 3, -24
 1626              		.cfi_offset 4, -20
 1627              		.cfi_offset 5, -16
 1628              		.cfi_offset 6, -12
 1629              		.cfi_offset 7, -8
 1630              		.cfi_offset 14, -4
 351:../../lpc_chip_11cxx_lib/src/i2c_11xx.c **** 		return;
 1631              		.loc 1 351 0
 1632 0002 0129     		cmp	r1, #1	@ event,
 1633 0004 00D0     		beq	.L151	@,
 1634              	.LVL119:
 1635              	.L143:
 362:../../lpc_chip_11cxx_lib/src/i2c_11xx.c **** 
 1636              		.loc 1 362 0
 1637              		@ sp needed	@
 1638 0006 F8BD     		pop	{r3, r4, r5, r6, r7, pc}
 1639              	.LVL120:
 1640              	.L151:
 1641 0008 061C     		mov	r6, r0	@ id, id
 1642              	.LBB143:
 1643              	.LBB144:
 503:../../lpc_chip_11cxx_lib/src/i2c_11xx.c **** 
 504:../../lpc_chip_11cxx_lib/src/i2c_11xx.c **** /* Setup slave function */
 505:../../lpc_chip_11cxx_lib/src/i2c_11xx.c **** void Chip_I2C_SlaveSetup(I2C_ID_T id,
ARM GAS  /tmp/ccj3wEk9.s 			page 47


 506:../../lpc_chip_11cxx_lib/src/i2c_11xx.c **** 						 I2C_SLAVE_ID sid,
 507:../../lpc_chip_11cxx_lib/src/i2c_11xx.c **** 						 I2C_XFER_T *xfer,
 508:../../lpc_chip_11cxx_lib/src/i2c_11xx.c **** 						 I2C_EVENTHANDLER_T event,
 509:../../lpc_chip_11cxx_lib/src/i2c_11xx.c **** 						 uint8_t addrMask)
 510:../../lpc_chip_11cxx_lib/src/i2c_11xx.c **** {
 511:../../lpc_chip_11cxx_lib/src/i2c_11xx.c **** 	struct i2c_interface *iic = &i2c;
 512:../../lpc_chip_11cxx_lib/src/i2c_11xx.c **** 	struct i2c_slave_interface *si2c = &i2c_slave[id][sid];
 513:../../lpc_chip_11cxx_lib/src/i2c_11xx.c **** 	si2c->xfer = xfer;
 514:../../lpc_chip_11cxx_lib/src/i2c_11xx.c **** 	si2c->event = event;
 515:../../lpc_chip_11cxx_lib/src/i2c_11xx.c **** 
 516:../../lpc_chip_11cxx_lib/src/i2c_11xx.c **** 	/* Set up the slave address */
 517:../../lpc_chip_11cxx_lib/src/i2c_11xx.c **** 	if (sid != I2C_SLAVE_GENERAL) {
 518:../../lpc_chip_11cxx_lib/src/i2c_11xx.c **** 		setSlaveAddr(iic->ip, sid, xfer->slaveAddr, addrMask);
 519:../../lpc_chip_11cxx_lib/src/i2c_11xx.c **** 	}
 520:../../lpc_chip_11cxx_lib/src/i2c_11xx.c **** 
 521:../../lpc_chip_11cxx_lib/src/i2c_11xx.c **** 	if (!SLAVE_ACTIVE(iic) && !iic->mXfer) {
 522:../../lpc_chip_11cxx_lib/src/i2c_11xx.c **** 		startSlaverXfer(iic->ip);
 523:../../lpc_chip_11cxx_lib/src/i2c_11xx.c **** 	}
 524:../../lpc_chip_11cxx_lib/src/i2c_11xx.c **** 	iic->flags |= 1 << (sid + 8);
 525:../../lpc_chip_11cxx_lib/src/i2c_11xx.c **** }
 526:../../lpc_chip_11cxx_lib/src/i2c_11xx.c **** 
 527:../../lpc_chip_11cxx_lib/src/i2c_11xx.c **** /* I2C Slave event handler */
 528:../../lpc_chip_11cxx_lib/src/i2c_11xx.c **** void Chip_I2C_SlaveStateHandler(I2C_ID_T id)
 529:../../lpc_chip_11cxx_lib/src/i2c_11xx.c **** {
 530:../../lpc_chip_11cxx_lib/src/i2c_11xx.c **** 	int ret;
 531:../../lpc_chip_11cxx_lib/src/i2c_11xx.c **** 	struct i2c_interface *iic = &i2c;
 532:../../lpc_chip_11cxx_lib/src/i2c_11xx.c **** 
 533:../../lpc_chip_11cxx_lib/src/i2c_11xx.c **** 	/* Get the currently addressed slave */
 534:../../lpc_chip_11cxx_lib/src/i2c_11xx.c **** 	if (!iic->sXfer) {
 535:../../lpc_chip_11cxx_lib/src/i2c_11xx.c **** 		struct i2c_slave_interface *si2c;
 536:../../lpc_chip_11cxx_lib/src/i2c_11xx.c **** 
 537:../../lpc_chip_11cxx_lib/src/i2c_11xx.c **** 		I2C_SLAVE_ID sid = getSlaveIndex(iic->ip);
 538:../../lpc_chip_11cxx_lib/src/i2c_11xx.c **** 		si2c = &i2c_slave[id][sid];
 539:../../lpc_chip_11cxx_lib/src/i2c_11xx.c **** 		iic->sXfer = si2c->xfer;
 540:../../lpc_chip_11cxx_lib/src/i2c_11xx.c **** 		iic->sEvent = si2c->event;
 541:../../lpc_chip_11cxx_lib/src/i2c_11xx.c **** 	}
 542:../../lpc_chip_11cxx_lib/src/i2c_11xx.c **** 
 543:../../lpc_chip_11cxx_lib/src/i2c_11xx.c **** 	iic->sXfer->slaveAddr |= iic->mXfer != 0;
 544:../../lpc_chip_11cxx_lib/src/i2c_11xx.c **** 	ret = handleSlaveXferState(iic->ip, iic->sXfer);
 545:../../lpc_chip_11cxx_lib/src/i2c_11xx.c **** 	if (ret) {
 546:../../lpc_chip_11cxx_lib/src/i2c_11xx.c **** 		if (iic->sXfer->status == I2C_STATUS_DONE) {
 547:../../lpc_chip_11cxx_lib/src/i2c_11xx.c **** 			iic->sXfer = 0;
 548:../../lpc_chip_11cxx_lib/src/i2c_11xx.c **** 		}
 549:../../lpc_chip_11cxx_lib/src/i2c_11xx.c **** 		iic->sEvent(id, (I2C_EVENT_T) ret);
 550:../../lpc_chip_11cxx_lib/src/i2c_11xx.c **** 	}
 551:../../lpc_chip_11cxx_lib/src/i2c_11xx.c **** }
 552:../../lpc_chip_11cxx_lib/src/i2c_11xx.c **** 
 553:../../lpc_chip_11cxx_lib/src/i2c_11xx.c **** /* Disable I2C device */
 554:../../lpc_chip_11cxx_lib/src/i2c_11xx.c **** void Chip_I2C_Disable(I2C_ID_T id)
 555:../../lpc_chip_11cxx_lib/src/i2c_11xx.c **** {
 556:../../lpc_chip_11cxx_lib/src/i2c_11xx.c **** 	LPC_I2Cx(id)->CONCLR = I2C_I2CONCLR_I2ENC;
 557:../../lpc_chip_11cxx_lib/src/i2c_11xx.c **** }
 558:../../lpc_chip_11cxx_lib/src/i2c_11xx.c **** 
 559:../../lpc_chip_11cxx_lib/src/i2c_11xx.c **** /* State change checking */
 560:../../lpc_chip_11cxx_lib/src/i2c_11xx.c **** int Chip_I2C_IsStateChanged(I2C_ID_T id)
 561:../../lpc_chip_11cxx_lib/src/i2c_11xx.c **** {
 562:../../lpc_chip_11cxx_lib/src/i2c_11xx.c **** 	return (LPC_I2Cx(id)->CONSET & I2C_CON_SI) != 0;
ARM GAS  /tmp/ccj3wEk9.s 			page 48


 1644              		.loc 1 562 0
 1645 000a 0825     		mov	r5, #8	@ tmp126,
 1646              	.LBE144:
 1647              	.LBE143:
 355:../../lpc_chip_11cxx_lib/src/i2c_11xx.c **** 	/* Call the state change handler till xfer is done */
 1648              		.loc 1 355 0
 1649 000c 064F     		ldr	r7, .L152	@ tmp124,
 1650 000e 3C69     		ldr	r4, [r7, #16]	@ D.6840, i2c.mXfer
 1651              	.LVL121:
 1652              	.L145:
 1653              	.LBB147:
 1654              	.LBB145:
 1655              		.loc 1 562 0
 1656 0010 3A68     		ldr	r2, [r7]	@ D.6842, i2c.ip
 1657              	.L146:
 1658              	.LBE145:
 1659              	.LBE147:
 357:../../lpc_chip_11cxx_lib/src/i2c_11xx.c **** 		if (Chip_I2C_IsStateChanged(id)) {
 1660              		.loc 1 357 0
 1661 0012 237D     		ldrb	r3, [r4, #20]	@ MEM[(volatile I2C_STATUS_T *)_6 + 20B], MEM[(volatile I2C_STATUS_T *)_6 + 20B
 1662 0014 042B     		cmp	r3, #4	@ MEM[(volatile I2C_STATUS_T *)_6 + 20B],
 1663 0016 F6D1     		bne	.L143	@,
 1664              	.LVL122:
 1665              	.LBB148:
 1666              	.LBB146:
 1667              		.loc 1 562 0
 1668 0018 1368     		ldr	r3, [r2]	@ D.6843, _10->CONSET
 1669              	.LBE146:
 1670              	.LBE148:
 358:../../lpc_chip_11cxx_lib/src/i2c_11xx.c **** 			Chip_I2C_MasterStateHandler(id);
 1671              		.loc 1 358 0
 1672 001a 1D42     		tst	r5, r3	@ tmp126, D.6843
 1673 001c F9D0     		beq	.L146	@,
 359:../../lpc_chip_11cxx_lib/src/i2c_11xx.c **** 		}
 1674              		.loc 1 359 0
 1675 001e 301C     		mov	r0, r6	@, id
 1676 0020 FFF7FEFF 		bl	Chip_I2C_MasterStateHandler	@
 1677              	.LVL123:
 1678 0024 F4E7     		b	.L145	@
 1679              	.L153:
 1680 0026 C046     		.align	2
 1681              	.L152:
 1682 0028 00000000 		.word	.LANCHOR0
 1683              		.cfi_endproc
 1684              	.LFE213:
 1685              		.size	Chip_I2C_EventHandlerPolling, .-Chip_I2C_EventHandlerPolling
 1686              		.section	.text.Chip_I2C_SlaveSetup,"ax",%progbits
 1687              		.align	2
 1688              		.global	Chip_I2C_SlaveSetup
 1689              		.code	16
 1690              		.thumb_func
 1691              		.type	Chip_I2C_SlaveSetup, %function
 1692              	Chip_I2C_SlaveSetup:
 1693              	.LFB226:
 510:../../lpc_chip_11cxx_lib/src/i2c_11xx.c **** 	struct i2c_interface *iic = &i2c;
 1694              		.loc 1 510 0
 1695              		.cfi_startproc
ARM GAS  /tmp/ccj3wEk9.s 			page 49


 1696              	.LVL124:
 1697 0000 70B5     		push	{r4, r5, r6, lr}	@
 1698              		.cfi_def_cfa_offset 16
 1699              		.cfi_offset 4, -16
 1700              		.cfi_offset 5, -12
 1701              		.cfi_offset 6, -8
 1702              		.cfi_offset 14, -4
 513:../../lpc_chip_11cxx_lib/src/i2c_11xx.c **** 	si2c->event = event;
 1703              		.loc 1 513 0
 1704 0002 8600     		lsl	r6, r0, #2	@ tmp139, id,
 510:../../lpc_chip_11cxx_lib/src/i2c_11xx.c **** 	struct i2c_interface *iic = &i2c;
 1705              		.loc 1 510 0
 1706 0004 04AC     		add	r4, sp, #16	@ tmp136,,
 1707              	.LVL125:
 513:../../lpc_chip_11cxx_lib/src/i2c_11xx.c **** 	si2c->event = event;
 1708              		.loc 1 513 0
 1709 0006 3018     		add	r0, r6, r0	@ tmp140, tmp139, id
 1710              	.LVL126:
 510:../../lpc_chip_11cxx_lib/src/i2c_11xx.c **** 	struct i2c_interface *iic = &i2c;
 1711              		.loc 1 510 0
 1712 0008 2578     		ldrb	r5, [r4]	@ addrMask, addrMask
 513:../../lpc_chip_11cxx_lib/src/i2c_11xx.c **** 	si2c->event = event;
 1713              		.loc 1 513 0
 1714 000a 4018     		add	r0, r0, r1	@ tmp141, tmp140, sid
 1715 000c 154C     		ldr	r4, .L163	@ tmp137,
 1716              	.LVL127:
 1717 000e C000     		lsl	r0, r0, #3	@ tmp142, tmp141,
 1718 0010 0251     		str	r2, [r0, r4]	@ xfer, MEM[(struct i2c_slave_interface *)&i2c_slave][_4][_6].xfer
 514:../../lpc_chip_11cxx_lib/src/i2c_11xx.c **** 
 1719              		.loc 1 514 0
 1720 0012 2018     		add	r0, r4, r0	@ tmp149, tmp137, tmp142
 1721 0014 4360     		str	r3, [r0, #4]	@ event, MEM[(struct i2c_slave_interface *)&i2c_slave][_4][_6].event
 518:../../lpc_chip_11cxx_lib/src/i2c_11xx.c **** 	}
 1722              		.loc 1 518 0
 1723 0016 1448     		ldr	r0, .L163+4	@ tmp169,
 517:../../lpc_chip_11cxx_lib/src/i2c_11xx.c **** 		setSlaveAddr(iic->ip, sid, xfer->slaveAddr, addrMask);
 1724              		.loc 1 517 0
 1725 0018 0029     		cmp	r1, #0	@ sid,
 1726 001a 0DD0     		beq	.L155	@,
 518:../../lpc_chip_11cxx_lib/src/i2c_11xx.c **** 	}
 1727              		.loc 1 518 0
 1728 001c 1478     		ldrb	r4, [r2]	@ D.6849, *xfer_8(D)
 1729              	.LBB149:
 1730              	.LBB150:
 135:../../lpc_chip_11cxx_lib/src/i2c_11xx.c **** 	if (sid == I2C_SLAVE_0) {
 1731              		.loc 1 135 0
 1732 001e 0A1C     		mov	r2, r1	@ tmp151, sid
 1733              	.LVL128:
 1734              	.LBE150:
 1735              	.LBE149:
 518:../../lpc_chip_11cxx_lib/src/i2c_11xx.c **** 	}
 1736              		.loc 1 518 0
 1737 0020 0368     		ldr	r3, [r0]	@ D.6848, i2c.ip
 1738              	.LVL129:
 1739              	.LBB154:
 1740              	.LBB152:
 135:../../lpc_chip_11cxx_lib/src/i2c_11xx.c **** 	if (sid == I2C_SLAVE_0) {
ARM GAS  /tmp/ccj3wEk9.s 			page 50


 1741              		.loc 1 135 0
 1742 0022 0B32     		add	r2, r2, #11	@ tmp151,
 1743 0024 9200     		lsl	r2, r2, #2	@ tmp152, tmp151,
 1744 0026 D550     		str	r5, [r2, r3]	@ addrMask, _12->MASK
 136:../../lpc_chip_11cxx_lib/src/i2c_11xx.c **** 		pI2C->ADR0 = addr;
 1745              		.loc 1 136 0
 1746 0028 0129     		cmp	r1, #1	@ sid,
 1747 002a 13D0     		beq	.L161	@,
 1748              	.LVL130:
 1749              	.LBB151:
 141:../../lpc_chip_11cxx_lib/src/i2c_11xx.c **** 	}
 1750              		.loc 1 141 0
 1751 002c 0F4A     		ldr	r2, .L163+8	@ tmp172,
 140:../../lpc_chip_11cxx_lib/src/i2c_11xx.c **** 		abase[index - 1] = addr;
 1752              		.loc 1 140 0
 1753 002e 2033     		add	r3, r3, #32	@ abase,
 1754              	.LVL131:
 141:../../lpc_chip_11cxx_lib/src/i2c_11xx.c **** 	}
 1755              		.loc 1 141 0
 1756 0030 8A18     		add	r2, r1, r2	@ D.6852, sid, tmp172
 1757 0032 9200     		lsl	r2, r2, #2	@ D.6852, D.6852,
 1758 0034 9B18     		add	r3, r3, r2	@ D.6853, abase, D.6852
 1759              	.LVL132:
 1760 0036 1C60     		str	r4, [r3]	@ D.6849, *_33
 1761              	.LVL133:
 1762              	.L155:
 1763              	.LBE151:
 1764              	.LBE152:
 1765              	.LBE154:
 521:../../lpc_chip_11cxx_lib/src/i2c_11xx.c **** 		startSlaverXfer(iic->ip);
 1766              		.loc 1 521 0
 1767 0038 FF22     		mov	r2, #255	@ tmp158,
 1768 003a 8369     		ldr	r3, [r0, #24]	@ D.6850, i2c.flags
 1769 003c 1202     		lsl	r2, r2, #8	@ tmp158, tmp158,
 1770 003e 1342     		tst	r3, r2	@ D.6850, tmp158
 1771 0040 02D1     		bne	.L157	@,
 521:../../lpc_chip_11cxx_lib/src/i2c_11xx.c **** 		startSlaverXfer(iic->ip);
 1772              		.loc 1 521 0 is_stmt 0 discriminator 1
 1773 0042 0269     		ldr	r2, [r0, #16]	@ tmp173, i2c.mXfer
 1774 0044 002A     		cmp	r2, #0	@ tmp173,
 1775 0046 07D0     		beq	.L162	@,
 1776              	.L157:
 524:../../lpc_chip_11cxx_lib/src/i2c_11xx.c **** }
 1777              		.loc 1 524 0 is_stmt 1
 1778 0048 0122     		mov	r2, #1	@ tmp167,
 1779 004a 0831     		add	r1, r1, #8	@ D.6847,
 1780              	.LVL134:
 1781 004c 8A40     		lsl	r2, r2, r1	@ D.6847, D.6847, D.6847
 1782 004e 1343     		orr	r3, r2	@ D.6850, D.6847
 1783 0050 8361     		str	r3, [r0, #24]	@ D.6850, i2c.flags
 525:../../lpc_chip_11cxx_lib/src/i2c_11xx.c **** 
 1784              		.loc 1 525 0
 1785              		@ sp needed	@
 1786 0052 70BD     		pop	{r4, r5, r6, pc}
 1787              	.LVL135:
 1788              	.L161:
 1789              	.LBB155:
ARM GAS  /tmp/ccj3wEk9.s 			page 51


 1790              	.LBB153:
 137:../../lpc_chip_11cxx_lib/src/i2c_11xx.c **** 	}
 1791              		.loc 1 137 0
 1792 0054 DC60     		str	r4, [r3, #12]	@ D.6849, _12->ADR0
 1793 0056 EFE7     		b	.L155	@
 1794              	.LVL136:
 1795              	.L162:
 1796              	.LBE153:
 1797              	.LBE155:
 1798              	.LBB156:
 1799              	.LBB157:
 107:../../lpc_chip_11cxx_lib/src/i2c_11xx.c **** 
 1800              		.loc 1 107 0
 1801 0058 3824     		mov	r4, #56	@ tmp162,
 1802              	.LBE157:
 1803              	.LBE156:
 522:../../lpc_chip_11cxx_lib/src/i2c_11xx.c **** 	}
 1804              		.loc 1 522 0
 1805 005a 0268     		ldr	r2, [r0]	@ D.6848, i2c.ip
 1806              	.LVL137:
 1807              	.LBB159:
 1808              	.LBB158:
 107:../../lpc_chip_11cxx_lib/src/i2c_11xx.c **** 
 1809              		.loc 1 107 0
 1810 005c 9461     		str	r4, [r2, #24]	@ tmp162, _19->CONCLR
 110:../../lpc_chip_11cxx_lib/src/i2c_11xx.c **** }
 1811              		.loc 1 110 0
 1812 005e 0C34     		add	r4, r4, #12	@ tmp163,
 1813 0060 1460     		str	r4, [r2]	@ tmp163, _19->CONSET
 1814 0062 F1E7     		b	.L157	@
 1815              	.L164:
 1816              		.align	2
 1817              	.L163:
 1818 0064 00000000 		.word	.LANCHOR1
 1819 0068 00000000 		.word	.LANCHOR0
 1820 006c FEFFFF3F 		.word	1073741822
 1821              	.LBE158:
 1822              	.LBE159:
 1823              		.cfi_endproc
 1824              	.LFE226:
 1825              		.size	Chip_I2C_SlaveSetup, .-Chip_I2C_SlaveSetup
 1826              		.section	.text.Chip_I2C_SlaveStateHandler,"ax",%progbits
 1827              		.align	2
 1828              		.global	Chip_I2C_SlaveStateHandler
 1829              		.code	16
 1830              		.thumb_func
 1831              		.type	Chip_I2C_SlaveStateHandler, %function
 1832              	Chip_I2C_SlaveStateHandler:
 1833              	.LFB227:
 529:../../lpc_chip_11cxx_lib/src/i2c_11xx.c **** 	int ret;
 1834              		.loc 1 529 0
 1835              		.cfi_startproc
 1836              	.LVL138:
 1837 0000 F8B5     		push	{r3, r4, r5, r6, r7, lr}	@
 1838              		.cfi_def_cfa_offset 24
 1839              		.cfi_offset 3, -24
 1840              		.cfi_offset 4, -20
ARM GAS  /tmp/ccj3wEk9.s 			page 52


 1841              		.cfi_offset 5, -16
 1842              		.cfi_offset 6, -12
 1843              		.cfi_offset 7, -8
 1844              		.cfi_offset 14, -4
 534:../../lpc_chip_11cxx_lib/src/i2c_11xx.c **** 		struct i2c_slave_interface *si2c;
 1845              		.loc 1 534 0
 1846 0002 154D     		ldr	r5, .L175	@ tmp164,
 529:../../lpc_chip_11cxx_lib/src/i2c_11xx.c **** 	int ret;
 1847              		.loc 1 529 0
 1848 0004 061C     		mov	r6, r0	@ id, id
 534:../../lpc_chip_11cxx_lib/src/i2c_11xx.c **** 		struct i2c_slave_interface *si2c;
 1849              		.loc 1 534 0
 1850 0006 6C69     		ldr	r4, [r5, #20]	@ D.6858, i2c.sXfer
 1851              	.LBB160:
 537:../../lpc_chip_11cxx_lib/src/i2c_11xx.c **** 		si2c = &i2c_slave[id][sid];
 1852              		.loc 1 537 0
 1853 0008 2F68     		ldr	r7, [r5]	@ D.6866, i2c.ip
 1854              	.LBE160:
 534:../../lpc_chip_11cxx_lib/src/i2c_11xx.c **** 		struct i2c_slave_interface *si2c;
 1855              		.loc 1 534 0
 1856 000a 002C     		cmp	r4, #0	@ D.6858,
 1857 000c 15D0     		beq	.L173	@,
 1858              	.LVL139:
 1859              	.L167:
 543:../../lpc_chip_11cxx_lib/src/i2c_11xx.c **** 	ret = handleSlaveXferState(iic->ip, iic->sXfer);
 1860              		.loc 1 543 0
 1861 000e 2A69     		ldr	r2, [r5, #16]	@ tmp152, i2c.mXfer
 544:../../lpc_chip_11cxx_lib/src/i2c_11xx.c **** 	if (ret) {
 1862              		.loc 1 544 0
 1863 0010 381C     		mov	r0, r7	@, D.6866
 543:../../lpc_chip_11cxx_lib/src/i2c_11xx.c **** 	ret = handleSlaveXferState(iic->ip, iic->sXfer);
 1864              		.loc 1 543 0
 1865 0012 531E     		sub	r3, r2, #1	@ tmp153, tmp152
 1866 0014 9A41     		sbc	r2, r2, r3	@ tmp152, tmp152, tmp153
 1867 0016 2378     		ldrb	r3, [r4]	@ *_41, *_41
 544:../../lpc_chip_11cxx_lib/src/i2c_11xx.c **** 	if (ret) {
 1868              		.loc 1 544 0
 1869 0018 211C     		mov	r1, r4	@, D.6858
 543:../../lpc_chip_11cxx_lib/src/i2c_11xx.c **** 	ret = handleSlaveXferState(iic->ip, iic->sXfer);
 1870              		.loc 1 543 0
 1871 001a 1343     		orr	r3, r2	@ tmp156, tmp152
 1872 001c 2370     		strb	r3, [r4]	@ tmp156, _41->slaveAddr
 544:../../lpc_chip_11cxx_lib/src/i2c_11xx.c **** 	if (ret) {
 1873              		.loc 1 544 0
 1874 001e FFF7FEFF 		bl	handleSlaveXferState	@
 1875              	.LVL140:
 545:../../lpc_chip_11cxx_lib/src/i2c_11xx.c **** 		if (iic->sXfer->status == I2C_STATUS_DONE) {
 1876              		.loc 1 545 0
 1877 0022 0028     		cmp	r0, #0	@ ret,
 1878 0024 06D0     		beq	.L165	@,
 546:../../lpc_chip_11cxx_lib/src/i2c_11xx.c **** 			iic->sXfer = 0;
 1879              		.loc 1 546 0
 1880 0026 237D     		ldrb	r3, [r4, #20]	@ tmp158,
 1881 0028 002B     		cmp	r3, #0	@ tmp158,
 1882 002a 04D0     		beq	.L174	@,
 1883              	.L169:
 549:../../lpc_chip_11cxx_lib/src/i2c_11xx.c **** 	}
ARM GAS  /tmp/ccj3wEk9.s 			page 53


 1884              		.loc 1 549 0
 1885 002c C1B2     		uxtb	r1, r0	@ ret, ret
 1886 002e EB68     		ldr	r3, [r5, #12]	@ i2c.sEvent, i2c.sEvent
 1887 0030 301C     		mov	r0, r6	@, id
 1888              	.LVL141:
 1889 0032 9847     		blx	r3	@ i2c.sEvent
 1890              	.LVL142:
 1891              	.L165:
 551:../../lpc_chip_11cxx_lib/src/i2c_11xx.c **** 
 1892              		.loc 1 551 0
 1893              		@ sp needed	@
 1894 0034 F8BD     		pop	{r3, r4, r5, r6, r7, pc}
 1895              	.LVL143:
 1896              	.L174:
 547:../../lpc_chip_11cxx_lib/src/i2c_11xx.c **** 		}
 1897              		.loc 1 547 0
 1898 0036 6B61     		str	r3, [r5, #20]	@ tmp158, i2c.sXfer
 1899 0038 F8E7     		b	.L169	@
 1900              	.LVL144:
 1901              	.L173:
 1902              	.LBB161:
 537:../../lpc_chip_11cxx_lib/src/i2c_11xx.c **** 		si2c = &i2c_slave[id][sid];
 1903              		.loc 1 537 0
 1904 003a 381C     		mov	r0, r7	@, D.6866
 1905              	.LVL145:
 1906 003c FFF7FEFF 		bl	getSlaveIndex	@
 1907              	.LVL146:
 539:../../lpc_chip_11cxx_lib/src/i2c_11xx.c **** 		iic->sEvent = si2c->event;
 1908              		.loc 1 539 0
 1909 0040 B300     		lsl	r3, r6, #2	@ tmp135, id,
 1910 0042 9B19     		add	r3, r3, r6	@ tmp136, tmp135, id
 1911 0044 054A     		ldr	r2, .L175+4	@ tmp133,
 1912 0046 1818     		add	r0, r3, r0	@ tmp137, tmp136, tmp131
 1913              	.LVL147:
 1914 0048 C000     		lsl	r0, r0, #3	@ tmp138, tmp137,
 1915 004a 8458     		ldr	r4, [r0, r2]	@ D.6858, MEM[(struct i2c_slave_interface *)&i2c_slave][_10][_11].xfer
 540:../../lpc_chip_11cxx_lib/src/i2c_11xx.c **** 	}
 1916              		.loc 1 540 0
 1917 004c 1018     		add	r0, r2, r0	@ tmp147, tmp133, tmp138
 1918 004e 4368     		ldr	r3, [r0, #4]	@ tmp167, MEM[(struct i2c_slave_interface *)&i2c_slave][_10][_11].event
 539:../../lpc_chip_11cxx_lib/src/i2c_11xx.c **** 		iic->sEvent = si2c->event;
 1919              		.loc 1 539 0
 1920 0050 6C61     		str	r4, [r5, #20]	@ D.6858, i2c.sXfer
 540:../../lpc_chip_11cxx_lib/src/i2c_11xx.c **** 	}
 1921              		.loc 1 540 0
 1922 0052 EB60     		str	r3, [r5, #12]	@ tmp167, i2c.sEvent
 1923 0054 DBE7     		b	.L167	@
 1924              	.L176:
 1925 0056 C046     		.align	2
 1926              	.L175:
 1927 0058 00000000 		.word	.LANCHOR0
 1928 005c 00000000 		.word	.LANCHOR1
 1929              	.LBE161:
 1930              		.cfi_endproc
 1931              	.LFE227:
 1932              		.size	Chip_I2C_SlaveStateHandler, .-Chip_I2C_SlaveStateHandler
 1933              		.section	.text.Chip_I2C_Disable,"ax",%progbits
ARM GAS  /tmp/ccj3wEk9.s 			page 54


 1934              		.align	2
 1935              		.global	Chip_I2C_Disable
 1936              		.code	16
 1937              		.thumb_func
 1938              		.type	Chip_I2C_Disable, %function
 1939              	Chip_I2C_Disable:
 1940              	.LFB228:
 555:../../lpc_chip_11cxx_lib/src/i2c_11xx.c **** 	LPC_I2Cx(id)->CONCLR = I2C_I2CONCLR_I2ENC;
 1941              		.loc 1 555 0
 1942              		.cfi_startproc
 1943              	.LVL148:
 556:../../lpc_chip_11cxx_lib/src/i2c_11xx.c **** }
 1944              		.loc 1 556 0
 1945 0000 4022     		mov	r2, #64	@ tmp113,
 1946 0002 024B     		ldr	r3, .L178	@ tmp112,
 557:../../lpc_chip_11cxx_lib/src/i2c_11xx.c **** 
 1947              		.loc 1 557 0
 1948              		@ sp needed	@
 556:../../lpc_chip_11cxx_lib/src/i2c_11xx.c **** }
 1949              		.loc 1 556 0
 1950 0004 1B68     		ldr	r3, [r3]	@ D.6871, i2c.ip
 1951 0006 9A61     		str	r2, [r3, #24]	@ tmp113, _2->CONCLR
 557:../../lpc_chip_11cxx_lib/src/i2c_11xx.c **** 
 1952              		.loc 1 557 0
 1953 0008 7047     		bx	lr
 1954              	.L179:
 1955 000a C046     		.align	2
 1956              	.L178:
 1957 000c 00000000 		.word	.LANCHOR0
 1958              		.cfi_endproc
 1959              	.LFE228:
 1960              		.size	Chip_I2C_Disable, .-Chip_I2C_Disable
 1961              		.section	.text.Chip_I2C_IsStateChanged,"ax",%progbits
 1962              		.align	2
 1963              		.global	Chip_I2C_IsStateChanged
 1964              		.code	16
 1965              		.thumb_func
 1966              		.type	Chip_I2C_IsStateChanged, %function
 1967              	Chip_I2C_IsStateChanged:
 1968              	.LFB229:
 561:../../lpc_chip_11cxx_lib/src/i2c_11xx.c **** 	return (LPC_I2Cx(id)->CONSET & I2C_CON_SI) != 0;
 1969              		.loc 1 561 0
 1970              		.cfi_startproc
 1971              	.LVL149:
 1972              		.loc 1 562 0
 1973 0000 024B     		ldr	r3, .L181	@ tmp117,
 563:../../lpc_chip_11cxx_lib/src/i2c_11xx.c **** }
 1974              		.loc 1 563 0
 1975              		@ sp needed	@
 562:../../lpc_chip_11cxx_lib/src/i2c_11xx.c **** }
 1976              		.loc 1 562 0
 1977 0002 1B68     		ldr	r3, [r3]	@ D.6875, i2c.ip
 1978 0004 1868     		ldr	r0, [r3]	@ D.6876, _2->CONSET
 1979              	.LVL150:
 1980 0006 0007     		lsl	r0, r0, #28	@ tmp120, D.6876,
 1981 0008 C00F     		lsr	r0, r0, #31	@ D.6877, tmp120,
 1982              		.loc 1 563 0
ARM GAS  /tmp/ccj3wEk9.s 			page 55


 1983 000a 7047     		bx	lr
 1984              	.L182:
 1985              		.align	2
 1986              	.L181:
 1987 000c 00000000 		.word	.LANCHOR0
 1988              		.cfi_endproc
 1989              	.LFE229:
 1990              		.size	Chip_I2C_IsStateChanged, .-Chip_I2C_IsStateChanged
 1991              		.section	.data.i2c,"aw",%progbits
 1992              		.align	2
 1993              		.set	.LANCHOR0,. + 0
 1994              		.type	i2c, %object
 1995              		.size	i2c, 28
 1996              	i2c:
 1997              	@ ip:
 1998 0000 00000040 		.word	1073741824
 1999              	@ clk:
 2000 0004 05       		.byte	5
 2001              	@ mEvent:
 2002 0005 000000   		.space	3
 2003 0008 00000000 		.word	Chip_I2C_EventHandler
 2004              	@ sEvent:
 2005 000c 00000000 		.word	0
 2006              	@ mXfer:
 2007 0010 00000000 		.word	0
 2008              	@ sXfer:
 2009 0014 00000000 		.word	0
 2010              	@ flags:
 2011 0018 00000000 		.word	0
 2012              		.section	.bss.i2c_slave,"aw",%nobits
 2013              		.align	2
 2014              		.set	.LANCHOR1,. + 0
 2015              		.type	i2c_slave, %object
 2016              		.size	i2c_slave, 40
 2017              	i2c_slave:
 2018 0000 00000000 		.space	40
 2018      00000000 
 2018      00000000 
 2018      00000000 
 2018      00000000 
 2019              		.text
 2020              	.Letext0:
 2021              		.file 3 "/usr/arm-none-eabi/include/machine/_default_types.h"
 2022              		.file 4 "/usr/arm-none-eabi/include/sys/_stdint.h"
 2023              		.file 5 "../../lpc_chip_11cxx_lib/inc/sysctl_11xx.h"
 2024              		.file 6 "../../lpc_chip_11cxx_lib/inc/i2c_11xx.h"
 2025              		.file 7 "../../lpc_chip_11cxx_lib/inc/chip.h"